EXPORTS
    ??0?$PatternProvider@VExpandCollapseProvider@DirectUI@@UIExpandCollapseProvider@@$00@DirectUI@@QEAA@XZ=C:/Windows/System32/DUI70.??0?$PatternProvider@VExpandCollapseProvider@DirectUI@@UIExpandCollapseProvider@@$00@DirectUI@@QEAA@XZ @1
    ??0?$PatternProvider@VGridItemProvider@DirectUI@@UIGridItemProvider@@$01@DirectUI@@QEAA@XZ=C:/Windows/System32/DUI70.??0?$PatternProvider@VGridItemProvider@DirectUI@@UIGridItemProvider@@$01@DirectUI@@QEAA@XZ @2
    ??0?$PatternProvider@VGridProvider@DirectUI@@UIGridProvider@@$02@DirectUI@@QEAA@XZ=C:/Windows/System32/DUI70.??0?$PatternProvider@VGridProvider@DirectUI@@UIGridProvider@@$02@DirectUI@@QEAA@XZ @3
    ??0?$PatternProvider@VInvokeProvider@DirectUI@@UIInvokeProvider@@$0A@@DirectUI@@QEAA@XZ=C:/Windows/System32/DUI70.??0?$PatternProvider@VInvokeProvider@DirectUI@@UIInvokeProvider@@$0A@@DirectUI@@QEAA@XZ @4
    ??0?$PatternProvider@VRangeValueProvider@DirectUI@@UIRangeValueProvider@@$03@DirectUI@@QEAA@XZ=C:/Windows/System32/DUI70.??0?$PatternProvider@VRangeValueProvider@DirectUI@@UIRangeValueProvider@@$03@DirectUI@@QEAA@XZ @5
    ??0?$PatternProvider@VScrollItemProvider@DirectUI@@UIScrollItemProvider@@$05@DirectUI@@QEAA@XZ=C:/Windows/System32/DUI70.??0?$PatternProvider@VScrollItemProvider@DirectUI@@UIScrollItemProvider@@$05@DirectUI@@QEAA@XZ @6
    ??0?$PatternProvider@VScrollProvider@DirectUI@@UIScrollProvider@@$04@DirectUI@@QEAA@XZ=C:/Windows/System32/DUI70.??0?$PatternProvider@VScrollProvider@DirectUI@@UIScrollProvider@@$04@DirectUI@@QEAA@XZ @7
    ??0?$PatternProvider@VSelectionItemProvider@DirectUI@@UISelectionItemProvider@@$06@DirectUI@@QEAA@XZ=C:/Windows/System32/DUI70.??0?$PatternProvider@VSelectionItemProvider@DirectUI@@UISelectionItemProvider@@$06@DirectUI@@QEAA@XZ @8
    ??0?$PatternProvider@VSelectionProvider@DirectUI@@UISelectionProvider@@$07@DirectUI@@QEAA@XZ=C:/Windows/System32/DUI70.??0?$PatternProvider@VSelectionProvider@DirectUI@@UISelectionProvider@@$07@DirectUI@@QEAA@XZ @9
    ??0?$PatternProvider@VTableItemProvider@DirectUI@@UITableItemProvider@@$09@DirectUI@@QEAA@XZ=C:/Windows/System32/DUI70.??0?$PatternProvider@VTableItemProvider@DirectUI@@UITableItemProvider@@$09@DirectUI@@QEAA@XZ @10
    ??0?$PatternProvider@VTableProvider@DirectUI@@UITableProvider@@$08@DirectUI@@QEAA@XZ=C:/Windows/System32/DUI70.??0?$PatternProvider@VTableProvider@DirectUI@@UITableProvider@@$08@DirectUI@@QEAA@XZ @11
    ??0?$PatternProvider@VToggleProvider@DirectUI@@UIToggleProvider@@$0L@@DirectUI@@QEAA@XZ=C:/Windows/System32/DUI70.??0?$PatternProvider@VToggleProvider@DirectUI@@UIToggleProvider@@$0L@@DirectUI@@QEAA@XZ @12
    ??0?$PatternProvider@VValueProvider@DirectUI@@UIValueProvider@@$0M@@DirectUI@@QEAA@XZ=C:/Windows/System32/DUI70.??0?$PatternProvider@VValueProvider@DirectUI@@UIValueProvider@@$0M@@DirectUI@@QEAA@XZ @13
    ??0?$SafeArrayAccessor@H@DirectUI@@QEAA@XZ=C:/Windows/System32/DUI70.??0?$SafeArrayAccessor@H@DirectUI@@QEAA@XZ @14
    ??0AccessibleButton@DirectUI@@QEAA@$$QEAV01@@Z=C:/Windows/System32/DUI70.??0AccessibleButton@DirectUI@@QEAA@$$QEAV01@@Z @15
    ??0AccessibleButton@DirectUI@@QEAA@AEBV01@@Z=C:/Windows/System32/DUI70.??0AccessibleButton@DirectUI@@QEAA@AEBV01@@Z @16
    ??0AccessibleButton@DirectUI@@QEAA@XZ=C:/Windows/System32/DUI70.??0AccessibleButton@DirectUI@@QEAA@XZ @17
    ??0AnimationStrip@DirectUI@@QEAA@AEBV01@@Z=C:/Windows/System32/DUI70.??0AnimationStrip@DirectUI@@QEAA@AEBV01@@Z @18
    ??0AnimationStrip@DirectUI@@QEAA@XZ=C:/Windows/System32/DUI70.??0AnimationStrip@DirectUI@@QEAA@XZ @19
    ??0AutoButton@DirectUI@@QEAA@$$QEAV01@@Z=C:/Windows/System32/DUI70.??0AutoButton@DirectUI@@QEAA@$$QEAV01@@Z @20
    ??0AutoButton@DirectUI@@QEAA@AEBV01@@Z=C:/Windows/System32/DUI70.??0AutoButton@DirectUI@@QEAA@AEBV01@@Z @21
    ??0AutoButton@DirectUI@@QEAA@XZ=C:/Windows/System32/DUI70.??0AutoButton@DirectUI@@QEAA@XZ @22
    ??0AutoLock@DirectUI@@QEAA@PEAU_RTL_CRITICAL_SECTION@@@Z=C:/Windows/System32/DUI70.??0AutoLock@DirectUI@@QEAA@PEAU_RTL_CRITICAL_SECTION@@@Z @23
    ??0AutoThread@DirectUI@@QEAA@XZ=C:/Windows/System32/DUI70.??0AutoThread@DirectUI@@QEAA@XZ @24
    ??0AutoVariant@DirectUI@@QEAA@XZ=C:/Windows/System32/DUI70.??0AutoVariant@DirectUI@@QEAA@XZ @25
    ??0BaseScrollBar@DirectUI@@QEAA@$$QEAV01@@Z=C:/Windows/System32/DUI70.??0BaseScrollBar@DirectUI@@QEAA@$$QEAV01@@Z @26
    ??0BaseScrollBar@DirectUI@@QEAA@AEBV01@@Z=C:/Windows/System32/DUI70.??0BaseScrollBar@DirectUI@@QEAA@AEBV01@@Z @27
    ??0BaseScrollBar@DirectUI@@QEAA@XZ=C:/Windows/System32/DUI70.??0BaseScrollBar@DirectUI@@QEAA@XZ @28
    ??0BaseScrollViewer@DirectUI@@QEAA@AEBV01@@Z=C:/Windows/System32/DUI70.??0BaseScrollViewer@DirectUI@@QEAA@AEBV01@@Z @29
    ??0BaseScrollViewer@DirectUI@@QEAA@XZ=C:/Windows/System32/DUI70.??0BaseScrollViewer@DirectUI@@QEAA@XZ @30
    ??0Bind@DirectUI@@QEAA@$$QEAV01@@Z=C:/Windows/System32/DUI70.??0Bind@DirectUI@@QEAA@$$QEAV01@@Z @31
    ??0Bind@DirectUI@@QEAA@AEBV01@@Z=C:/Windows/System32/DUI70.??0Bind@DirectUI@@QEAA@AEBV01@@Z @32
    ??0Bind@DirectUI@@QEAA@XZ=C:/Windows/System32/DUI70.??0Bind@DirectUI@@QEAA@XZ @33
    ??0BorderLayout@DirectUI@@QEAA@AEBV01@@Z=C:/Windows/System32/DUI70.??0BorderLayout@DirectUI@@QEAA@AEBV01@@Z @34
    ??0BorderLayout@DirectUI@@QEAA@XZ=C:/Windows/System32/DUI70.??0BorderLayout@DirectUI@@QEAA@XZ @35
    ??0Browser@DirectUI@@QEAA@$$QEAV01@@Z=C:/Windows/System32/DUI70.??0Browser@DirectUI@@QEAA@$$QEAV01@@Z @36
    ??0Browser@DirectUI@@QEAA@AEBV01@@Z=C:/Windows/System32/DUI70.??0Browser@DirectUI@@QEAA@AEBV01@@Z @37
    ??0Browser@DirectUI@@QEAA@XZ=C:/Windows/System32/DUI70.??0Browser@DirectUI@@QEAA@XZ @38
    ??0BrowserSelectionProxy@DirectUI@@QEAA@$$QEAV01@@Z=C:/Windows/System32/DUI70.??0BrowserSelectionProxy@DirectUI@@QEAA@$$QEAV01@@Z @39
    ??0BrowserSelectionProxy@DirectUI@@QEAA@AEBV01@@Z=C:/Windows/System32/DUI70.??0BrowserSelectionProxy@DirectUI@@QEAA@AEBV01@@Z @40
    ??0BrowserSelectionProxy@DirectUI@@QEAA@XZ=C:/Windows/System32/DUI70.??0BrowserSelectionProxy@DirectUI@@QEAA@XZ @41
    ??0Button@DirectUI@@QEAA@AEBV01@@Z=C:/Windows/System32/DUI70.??0Button@DirectUI@@QEAA@AEBV01@@Z @42
    ??0Button@DirectUI@@QEAA@XZ=C:/Windows/System32/DUI70.??0Button@DirectUI@@QEAA@XZ @43
    ??0CCAVI@DirectUI@@QEAA@$$QEAV01@@Z=C:/Windows/System32/DUI70.??0CCAVI@DirectUI@@QEAA@$$QEAV01@@Z @44
    ??0CCAVI@DirectUI@@QEAA@AEBV01@@Z=C:/Windows/System32/DUI70.??0CCAVI@DirectUI@@QEAA@AEBV01@@Z @45
    ??0CCAVI@DirectUI@@QEAA@XZ=C:/Windows/System32/DUI70.??0CCAVI@DirectUI@@QEAA@XZ @46
    ??0CCBase@DirectUI@@QEAA@AEBV01@@Z=C:/Windows/System32/DUI70.??0CCBase@DirectUI@@QEAA@AEBV01@@Z @47
    ??0CCBase@DirectUI@@QEAA@KPEBG@Z=C:/Windows/System32/DUI70.??0CCBase@DirectUI@@QEAA@KPEBG@Z @48
    ??0CCBaseCheckRadioButton@DirectUI@@QEAA@$$QEAV01@@Z=C:/Windows/System32/DUI70.??0CCBaseCheckRadioButton@DirectUI@@QEAA@$$QEAV01@@Z @49
    ??0CCBaseCheckRadioButton@DirectUI@@QEAA@AEBV01@@Z=C:/Windows/System32/DUI70.??0CCBaseCheckRadioButton@DirectUI@@QEAA@AEBV01@@Z @50
    ??0CCBaseCheckRadioButton@DirectUI@@QEAA@K@Z=C:/Windows/System32/DUI70.??0CCBaseCheckRadioButton@DirectUI@@QEAA@K@Z @51
    ??0CCBaseScrollBar@DirectUI@@QEAA@$$QEAV01@@Z=C:/Windows/System32/DUI70.??0CCBaseScrollBar@DirectUI@@QEAA@$$QEAV01@@Z @52
    ??0CCBaseScrollBar@DirectUI@@QEAA@AEBV01@@Z=C:/Windows/System32/DUI70.??0CCBaseScrollBar@DirectUI@@QEAA@AEBV01@@Z @53
    ??0CCBaseScrollBar@DirectUI@@QEAA@K@Z=C:/Windows/System32/DUI70.??0CCBaseScrollBar@DirectUI@@QEAA@K@Z @54
    ??0CCCheckBox@DirectUI@@QEAA@$$QEAV01@@Z=C:/Windows/System32/DUI70.??0CCCheckBox@DirectUI@@QEAA@$$QEAV01@@Z @55
    ??0CCCheckBox@DirectUI@@QEAA@AEBV01@@Z=C:/Windows/System32/DUI70.??0CCCheckBox@DirectUI@@QEAA@AEBV01@@Z @56
    ??0CCCheckBox@DirectUI@@QEAA@K@Z=C:/Windows/System32/DUI70.??0CCCheckBox@DirectUI@@QEAA@K@Z @57
    ??0CCCommandLink@DirectUI@@QEAA@$$QEAV01@@Z=C:/Windows/System32/DUI70.??0CCCommandLink@DirectUI@@QEAA@$$QEAV01@@Z @58
    ??0CCCommandLink@DirectUI@@QEAA@AEBV01@@Z=C:/Windows/System32/DUI70.??0CCCommandLink@DirectUI@@QEAA@AEBV01@@Z @59
    ??0CCCommandLink@DirectUI@@QEAA@K@Z=C:/Windows/System32/DUI70.??0CCCommandLink@DirectUI@@QEAA@K@Z @60
    ??0CCHScrollBar@DirectUI@@QEAA@$$QEAV01@@Z=C:/Windows/System32/DUI70.??0CCHScrollBar@DirectUI@@QEAA@$$QEAV01@@Z @61
    ??0CCHScrollBar@DirectUI@@QEAA@AEBV01@@Z=C:/Windows/System32/DUI70.??0CCHScrollBar@DirectUI@@QEAA@AEBV01@@Z @62
    ??0CCHScrollBar@DirectUI@@QEAA@XZ=C:/Windows/System32/DUI70.??0CCHScrollBar@DirectUI@@QEAA@XZ @63
    ??0CCListBox@DirectUI@@QEAA@$$QEAV01@@Z=C:/Windows/System32/DUI70.??0CCListBox@DirectUI@@QEAA@$$QEAV01@@Z @64
    ??0CCListBox@DirectUI@@QEAA@AEBV01@@Z=C:/Windows/System32/DUI70.??0CCListBox@DirectUI@@QEAA@AEBV01@@Z @65
    ??0CCListBox@DirectUI@@QEAA@XZ=C:/Windows/System32/DUI70.??0CCListBox@DirectUI@@QEAA@XZ @66
    ??0CCListView@DirectUI@@QEAA@$$QEAV01@@Z=C:/Windows/System32/DUI70.??0CCListView@DirectUI@@QEAA@$$QEAV01@@Z @67
    ??0CCListView@DirectUI@@QEAA@AEBV01@@Z=C:/Windows/System32/DUI70.??0CCListView@DirectUI@@QEAA@AEBV01@@Z @68
    ??0CCListView@DirectUI@@QEAA@XZ=C:/Windows/System32/DUI70.??0CCListView@DirectUI@@QEAA@XZ @69
    ??0CCProgressBar@DirectUI@@QEAA@$$QEAV01@@Z=C:/Windows/System32/DUI70.??0CCProgressBar@DirectUI@@QEAA@$$QEAV01@@Z @70
    ??0CCProgressBar@DirectUI@@QEAA@AEBV01@@Z=C:/Windows/System32/DUI70.??0CCProgressBar@DirectUI@@QEAA@AEBV01@@Z @71
    ??0CCProgressBar@DirectUI@@QEAA@XZ=C:/Windows/System32/DUI70.??0CCProgressBar@DirectUI@@QEAA@XZ @72
    ??0CCPushButton@DirectUI@@QEAA@$$QEAV01@@Z=C:/Windows/System32/DUI70.??0CCPushButton@DirectUI@@QEAA@$$QEAV01@@Z @73
    ??0CCPushButton@DirectUI@@QEAA@AEBV01@@Z=C:/Windows/System32/DUI70.??0CCPushButton@DirectUI@@QEAA@AEBV01@@Z @74
    ??0CCPushButton@DirectUI@@QEAA@K@Z=C:/Windows/System32/DUI70.??0CCPushButton@DirectUI@@QEAA@K@Z @75
    ??0CCRadioButton@DirectUI@@QEAA@$$QEAV01@@Z=C:/Windows/System32/DUI70.??0CCRadioButton@DirectUI@@QEAA@$$QEAV01@@Z @76
    ??0CCRadioButton@DirectUI@@QEAA@AEBV01@@Z=C:/Windows/System32/DUI70.??0CCRadioButton@DirectUI@@QEAA@AEBV01@@Z @77
    ??0CCRadioButton@DirectUI@@QEAA@XZ=C:/Windows/System32/DUI70.??0CCRadioButton@DirectUI@@QEAA@XZ @78
    ??0CCSysLink@DirectUI@@QEAA@$$QEAV01@@Z=C:/Windows/System32/DUI70.??0CCSysLink@DirectUI@@QEAA@$$QEAV01@@Z @79
    ??0CCSysLink@DirectUI@@QEAA@AEBV01@@Z=C:/Windows/System32/DUI70.??0CCSysLink@DirectUI@@QEAA@AEBV01@@Z @80
    ??0CCSysLink@DirectUI@@QEAA@XZ=C:/Windows/System32/DUI70.??0CCSysLink@DirectUI@@QEAA@XZ @81
    ??0CCTrackBar@DirectUI@@QEAA@$$QEAV01@@Z=C:/Windows/System32/DUI70.??0CCTrackBar@DirectUI@@QEAA@$$QEAV01@@Z @82
    ??0CCTrackBar@DirectUI@@QEAA@AEBV01@@Z=C:/Windows/System32/DUI70.??0CCTrackBar@DirectUI@@QEAA@AEBV01@@Z @83
    ??0CCTrackBar@DirectUI@@QEAA@XZ=C:/Windows/System32/DUI70.??0CCTrackBar@DirectUI@@QEAA@XZ @84
    ??0CCTreeView@DirectUI@@QEAA@$$QEAV01@@Z=C:/Windows/System32/DUI70.??0CCTreeView@DirectUI@@QEAA@$$QEAV01@@Z @85
    ??0CCTreeView@DirectUI@@QEAA@AEBV01@@Z=C:/Windows/System32/DUI70.??0CCTreeView@DirectUI@@QEAA@AEBV01@@Z @86
    ??0CCTreeView@DirectUI@@QEAA@K@Z=C:/Windows/System32/DUI70.??0CCTreeView@DirectUI@@QEAA@K@Z @87
    ??0CCVScrollBar@DirectUI@@QEAA@$$QEAV01@@Z=C:/Windows/System32/DUI70.??0CCVScrollBar@DirectUI@@QEAA@$$QEAV01@@Z @88
    ??0CCVScrollBar@DirectUI@@QEAA@AEBV01@@Z=C:/Windows/System32/DUI70.??0CCVScrollBar@DirectUI@@QEAA@AEBV01@@Z @89
    ??0CCVScrollBar@DirectUI@@QEAA@XZ=C:/Windows/System32/DUI70.??0CCVScrollBar@DirectUI@@QEAA@XZ @90
    ??0CallstackTracker@DirectUI@@QEAA@XZ=C:/Windows/System32/DUI70.??0CallstackTracker@DirectUI@@QEAA@XZ @91
    ??0CheckBoxGlyph@DirectUI@@QEAA@AEBV01@@Z=C:/Windows/System32/DUI70.??0CheckBoxGlyph@DirectUI@@QEAA@AEBV01@@Z @92
    ??0CheckBoxGlyph@DirectUI@@QEAA@XZ=C:/Windows/System32/DUI70.??0CheckBoxGlyph@DirectUI@@QEAA@XZ @93
    ??0ClassInfoBase@DirectUI@@QEAA@AEBV01@@Z=C:/Windows/System32/DUI70.??0ClassInfoBase@DirectUI@@QEAA@AEBV01@@Z @94
    ??0ClassInfoBase@DirectUI@@QEAA@XZ=C:/Windows/System32/DUI70.??0ClassInfoBase@DirectUI@@QEAA@XZ @95
    ??0Clipper@DirectUI@@QEAA@$$QEAV01@@Z=C:/Windows/System32/DUI70.??0Clipper@DirectUI@@QEAA@$$QEAV01@@Z @96
    ??0Clipper@DirectUI@@QEAA@AEBV01@@Z=C:/Windows/System32/DUI70.??0Clipper@DirectUI@@QEAA@AEBV01@@Z @97
    ??0Clipper@DirectUI@@QEAA@XZ=C:/Windows/System32/DUI70.??0Clipper@DirectUI@@QEAA@XZ @98
    ??0Combobox@DirectUI@@QEAA@AEBV01@@Z=C:/Windows/System32/DUI70.??0Combobox@DirectUI@@QEAA@AEBV01@@Z @99
    ??0Combobox@DirectUI@@QEAA@XZ=C:/Windows/System32/DUI70.??0Combobox@DirectUI@@QEAA@XZ @100
    ??0CritSecLock@DirectUI@@QEAA@PEAU_RTL_CRITICAL_SECTION@@@Z=C:/Windows/System32/DUI70.??0CritSecLock@DirectUI@@QEAA@PEAU_RTL_CRITICAL_SECTION@@@Z @101
    ??0DCSurface@DirectUI@@QEAA@AEBV01@@Z=C:/Windows/System32/DUI70.??0DCSurface@DirectUI@@QEAA@AEBV01@@Z @102
    ??0DCSurface@DirectUI@@QEAA@PEAUHDC__@@@Z=C:/Windows/System32/DUI70.??0DCSurface@DirectUI@@QEAA@PEAUHDC__@@@Z @103
    ??0DUIFactory@DirectUI@@QEAA@PEAUHWND__@@@Z=C:/Windows/System32/DUI70.??0DUIFactory@DirectUI@@QEAA@PEAUHWND__@@@Z @104
    ??0DUIXmlParser@DirectUI@@QEAA@AEBV01@@Z=C:/Windows/System32/DUI70.??0DUIXmlParser@DirectUI@@QEAA@AEBV01@@Z @105
    ??0DUIXmlParser@DirectUI@@QEAA@XZ=C:/Windows/System32/DUI70.??0DUIXmlParser@DirectUI@@QEAA@XZ @106
    ??0DialogElement@DirectUI@@QEAA@$$QEAV01@@Z=C:/Windows/System32/DUI70.??0DialogElement@DirectUI@@QEAA@$$QEAV01@@Z @107
    ??0DialogElement@DirectUI@@QEAA@AEBV01@@Z=C:/Windows/System32/DUI70.??0DialogElement@DirectUI@@QEAA@AEBV01@@Z @108
    ??0DialogElement@DirectUI@@QEAA@XZ=C:/Windows/System32/DUI70.??0DialogElement@DirectUI@@QEAA@XZ @109
    ??0DuiAccessible@DirectUI@@QEAA@XZ=C:/Windows/System32/DUI70.??0DuiAccessible@DirectUI@@QEAA@XZ @110
    ??0Edit@DirectUI@@QEAA@AEBV01@@Z=C:/Windows/System32/DUI70.??0Edit@DirectUI@@QEAA@AEBV01@@Z @111
    ??0Edit@DirectUI@@QEAA@XZ=C:/Windows/System32/DUI70.??0Edit@DirectUI@@QEAA@XZ @112
    ??0Element@DirectUI@@QEAA@AEBV01@@Z=C:/Windows/System32/DUI70.??0Element@DirectUI@@QEAA@AEBV01@@Z @113
    ??0Element@DirectUI@@QEAA@XZ=C:/Windows/System32/DUI70.??0Element@DirectUI@@QEAA@XZ @114
    ??0ElementProvider@DirectUI@@QEAA@XZ=C:/Windows/System32/DUI70.??0ElementProvider@DirectUI@@QEAA@XZ @115
    ??0ElementProxy@DirectUI@@IEAA@XZ=C:/Windows/System32/DUI70.??0ElementProxy@DirectUI@@IEAA@XZ @116
    ??0ElementProxy@DirectUI@@QEAA@$$QEAV01@@Z=C:/Windows/System32/DUI70.??0ElementProxy@DirectUI@@QEAA@$$QEAV01@@Z @117
    ??0ElementProxy@DirectUI@@QEAA@AEBV01@@Z=C:/Windows/System32/DUI70.??0ElementProxy@DirectUI@@QEAA@AEBV01@@Z @118
    ??0ElementWithHWND@DirectUI@@QEAA@$$QEAV01@@Z=C:/Windows/System32/DUI70.??0ElementWithHWND@DirectUI@@QEAA@$$QEAV01@@Z @119
    ??0ElementWithHWND@DirectUI@@QEAA@AEBV01@@Z=C:/Windows/System32/DUI70.??0ElementWithHWND@DirectUI@@QEAA@AEBV01@@Z @120
    ??0ElementWithHWND@DirectUI@@QEAA@XZ=C:/Windows/System32/DUI70.??0ElementWithHWND@DirectUI@@QEAA@XZ @121
    ??0ExpandCollapseProvider@DirectUI@@QEAA@XZ=C:/Windows/System32/DUI70.??0ExpandCollapseProvider@DirectUI@@QEAA@XZ @122
    ??0ExpandCollapseProxy@DirectUI@@QEAA@$$QEAV01@@Z=C:/Windows/System32/DUI70.??0ExpandCollapseProxy@DirectUI@@QEAA@$$QEAV01@@Z @123
    ??0ExpandCollapseProxy@DirectUI@@QEAA@AEBV01@@Z=C:/Windows/System32/DUI70.??0ExpandCollapseProxy@DirectUI@@QEAA@AEBV01@@Z @124
    ??0ExpandCollapseProxy@DirectUI@@QEAA@XZ=C:/Windows/System32/DUI70.??0ExpandCollapseProxy@DirectUI@@QEAA@XZ @125
    ??0Expandable@DirectUI@@QEAA@$$QEAV01@@Z=C:/Windows/System32/DUI70.??0Expandable@DirectUI@@QEAA@$$QEAV01@@Z @126
    ??0Expandable@DirectUI@@QEAA@AEBV01@@Z=C:/Windows/System32/DUI70.??0Expandable@DirectUI@@QEAA@AEBV01@@Z @127
    ??0Expandable@DirectUI@@QEAA@XZ=C:/Windows/System32/DUI70.??0Expandable@DirectUI@@QEAA@XZ @128
    ??0Expando@DirectUI@@QEAA@$$QEAV01@@Z=C:/Windows/System32/DUI70.??0Expando@DirectUI@@QEAA@$$QEAV01@@Z @129
    ??0Expando@DirectUI@@QEAA@AEBV01@@Z=C:/Windows/System32/DUI70.??0Expando@DirectUI@@QEAA@AEBV01@@Z @130
    ??0Expando@DirectUI@@QEAA@XZ=C:/Windows/System32/DUI70.??0Expando@DirectUI@@QEAA@XZ @131
    ??0ExpandoButtonGlyph@DirectUI@@QEAA@AEBV01@@Z=C:/Windows/System32/DUI70.??0ExpandoButtonGlyph@DirectUI@@QEAA@AEBV01@@Z @132
    ??0ExpandoButtonGlyph@DirectUI@@QEAA@XZ=C:/Windows/System32/DUI70.??0ExpandoButtonGlyph@DirectUI@@QEAA@XZ @133
    ??0FillLayout@DirectUI@@QEAA@AEBV01@@Z=C:/Windows/System32/DUI70.??0FillLayout@DirectUI@@QEAA@AEBV01@@Z @134
    ??0FillLayout@DirectUI@@QEAA@XZ=C:/Windows/System32/DUI70.??0FillLayout@DirectUI@@QEAA@XZ @135
    ??0FlowLayout@DirectUI@@QEAA@AEBV01@@Z=C:/Windows/System32/DUI70.??0FlowLayout@DirectUI@@QEAA@AEBV01@@Z @136
    ??0FlowLayout@DirectUI@@QEAA@XZ=C:/Windows/System32/DUI70.??0FlowLayout@DirectUI@@QEAA@XZ @137
    ??0FontCache@DirectUI@@QEAA@$$QEAV01@@Z=C:/Windows/System32/DUI70.??0FontCache@DirectUI@@QEAA@$$QEAV01@@Z @138
    ??0FontCache@DirectUI@@QEAA@AEBV01@@Z=C:/Windows/System32/DUI70.??0FontCache@DirectUI@@QEAA@AEBV01@@Z @139
    ??0FontCache@DirectUI@@QEAA@XZ=C:/Windows/System32/DUI70.??0FontCache@DirectUI@@QEAA@XZ @140
    ??0FontCheckOut@DirectUI@@QEAA@PEAVElement@1@PEAUHDC__@@@Z=C:/Windows/System32/DUI70.??0FontCheckOut@DirectUI@@QEAA@PEAVElement@1@PEAUHDC__@@@Z @141
    ??0GridItemProvider@DirectUI@@QEAA@XZ=C:/Windows/System32/DUI70.??0GridItemProvider@DirectUI@@QEAA@XZ @142
    ??0GridItemProxy@DirectUI@@QEAA@$$QEAV01@@Z=C:/Windows/System32/DUI70.??0GridItemProxy@DirectUI@@QEAA@$$QEAV01@@Z @143
    ??0GridItemProxy@DirectUI@@QEAA@AEBV01@@Z=C:/Windows/System32/DUI70.??0GridItemProxy@DirectUI@@QEAA@AEBV01@@Z @144
    ??0GridItemProxy@DirectUI@@QEAA@XZ=C:/Windows/System32/DUI70.??0GridItemProxy@DirectUI@@QEAA@XZ @145
    ??0GridLayout@DirectUI@@QEAA@AEBV01@@Z=C:/Windows/System32/DUI70.??0GridLayout@DirectUI@@QEAA@AEBV01@@Z @146
    ??0GridLayout@DirectUI@@QEAA@XZ=C:/Windows/System32/DUI70.??0GridLayout@DirectUI@@QEAA@XZ @147
    ??0GridProvider@DirectUI@@QEAA@XZ=C:/Windows/System32/DUI70.??0GridProvider@DirectUI@@QEAA@XZ @148
    ??0GridProxy@DirectUI@@QEAA@$$QEAV01@@Z=C:/Windows/System32/DUI70.??0GridProxy@DirectUI@@QEAA@$$QEAV01@@Z @149
    ??0GridProxy@DirectUI@@QEAA@AEBV01@@Z=C:/Windows/System32/DUI70.??0GridProxy@DirectUI@@QEAA@AEBV01@@Z @150
    ??0GridProxy@DirectUI@@QEAA@XZ=C:/Windows/System32/DUI70.??0GridProxy@DirectUI@@QEAA@XZ @151
    ??0HWNDElement@DirectUI@@QEAA@AEBV01@@Z=C:/Windows/System32/DUI70.??0HWNDElement@DirectUI@@QEAA@AEBV01@@Z @152
    ??0HWNDElement@DirectUI@@QEAA@XZ=C:/Windows/System32/DUI70.??0HWNDElement@DirectUI@@QEAA@XZ @153
    ??0HWNDElementAccessible@DirectUI@@QEAA@XZ=C:/Windows/System32/DUI70.??0HWNDElementAccessible@DirectUI@@QEAA@XZ @154
    ??0HWNDElementProvider@DirectUI@@QEAA@XZ=C:/Windows/System32/DUI70.??0HWNDElementProvider@DirectUI@@QEAA@XZ @155
    ??0HWNDElementProxy@DirectUI@@IEAA@XZ=C:/Windows/System32/DUI70.??0HWNDElementProxy@DirectUI@@IEAA@XZ @156
    ??0HWNDElementProxy@DirectUI@@QEAA@$$QEAV01@@Z=C:/Windows/System32/DUI70.??0HWNDElementProxy@DirectUI@@QEAA@$$QEAV01@@Z @157
    ??0HWNDElementProxy@DirectUI@@QEAA@AEBV01@@Z=C:/Windows/System32/DUI70.??0HWNDElementProxy@DirectUI@@QEAA@AEBV01@@Z @158
    ??0HWNDHost@DirectUI@@QEAA@AEBV01@@Z=C:/Windows/System32/DUI70.??0HWNDHost@DirectUI@@QEAA@AEBV01@@Z @159
    ??0HWNDHost@DirectUI@@QEAA@XZ=C:/Windows/System32/DUI70.??0HWNDHost@DirectUI@@QEAA@XZ @160
    ??0HWNDHostAccessible@DirectUI@@QEAA@XZ=C:/Windows/System32/DUI70.??0HWNDHostAccessible@DirectUI@@QEAA@XZ @161
    ??0HWNDHostClientAccessible@DirectUI@@QEAA@XZ=C:/Windows/System32/DUI70.??0HWNDHostClientAccessible@DirectUI@@QEAA@XZ @162
    ??0IDataEngine@DirectUI@@QEAA@AEBU01@@Z=C:/Windows/System32/DUI70.??0IDataEngine@DirectUI@@QEAA@AEBU01@@Z @163
    ??0IDataEngine@DirectUI@@QEAA@XZ=C:/Windows/System32/DUI70.??0IDataEngine@DirectUI@@QEAA@XZ @164
    ??0IDataEntry@DirectUI@@QEAA@AEBU01@@Z=C:/Windows/System32/DUI70.??0IDataEntry@DirectUI@@QEAA@AEBU01@@Z @165
    ??0IDataEntry@DirectUI@@QEAA@XZ=C:/Windows/System32/DUI70.??0IDataEntry@DirectUI@@QEAA@XZ @166
    ??0IProvider@DirectUI@@QEAA@$$QEAV01@@Z=C:/Windows/System32/DUI70.??0IProvider@DirectUI@@QEAA@$$QEAV01@@Z @167
    ??0IProvider@DirectUI@@QEAA@AEBV01@@Z=C:/Windows/System32/DUI70.??0IProvider@DirectUI@@QEAA@AEBV01@@Z @168
    ??0IProvider@DirectUI@@QEAA@XZ=C:/Windows/System32/DUI70.??0IProvider@DirectUI@@QEAA@XZ @169
    ??0ISBLeak@DirectUI@@QEAA@$$QEAU01@@Z=C:/Windows/System32/DUI70.??0ISBLeak@DirectUI@@QEAA@$$QEAU01@@Z @170
    ??0ISBLeak@DirectUI@@QEAA@AEBU01@@Z=C:/Windows/System32/DUI70.??0ISBLeak@DirectUI@@QEAA@AEBU01@@Z @171
    ??0ISBLeak@DirectUI@@QEAA@XZ=C:/Windows/System32/DUI70.??0ISBLeak@DirectUI@@QEAA@XZ @172
    ??0IXElementCP@DirectUI@@QEAA@$$QEAV01@@Z=C:/Windows/System32/DUI70.??0IXElementCP@DirectUI@@QEAA@$$QEAV01@@Z @173
    ??0IXElementCP@DirectUI@@QEAA@AEBV01@@Z=C:/Windows/System32/DUI70.??0IXElementCP@DirectUI@@QEAA@AEBV01@@Z @174
    ??0IXElementCP@DirectUI@@QEAA@XZ=C:/Windows/System32/DUI70.??0IXElementCP@DirectUI@@QEAA@XZ @175
    ??0IXProviderCP@DirectUI@@QEAA@$$QEAV01@@Z=C:/Windows/System32/DUI70.??0IXProviderCP@DirectUI@@QEAA@$$QEAV01@@Z @176
    ??0IXProviderCP@DirectUI@@QEAA@AEBV01@@Z=C:/Windows/System32/DUI70.??0IXProviderCP@DirectUI@@QEAA@AEBV01@@Z @177
    ??0IXProviderCP@DirectUI@@QEAA@XZ=C:/Windows/System32/DUI70.??0IXProviderCP@DirectUI@@QEAA@XZ @178
    ??0InvokeHelper@DirectUI@@QEAA@XZ=C:/Windows/System32/DUI70.??0InvokeHelper@DirectUI@@QEAA@XZ @179
    ??0InvokeProvider@DirectUI@@QEAA@XZ=C:/Windows/System32/DUI70.??0InvokeProvider@DirectUI@@QEAA@XZ @180
    ??0InvokeProxy@DirectUI@@QEAA@$$QEAV01@@Z=C:/Windows/System32/DUI70.??0InvokeProxy@DirectUI@@QEAA@$$QEAV01@@Z @181
    ??0InvokeProxy@DirectUI@@QEAA@AEBV01@@Z=C:/Windows/System32/DUI70.??0InvokeProxy@DirectUI@@QEAA@AEBV01@@Z @182
    ??0InvokeProxy@DirectUI@@QEAA@XZ=C:/Windows/System32/DUI70.??0InvokeProxy@DirectUI@@QEAA@XZ @183
    ??0ItemList@DirectUI@@QEAA@XZ=C:/Windows/System32/DUI70.??0ItemList@DirectUI@@QEAA@XZ @184
    ??0Layout@DirectUI@@QEAA@AEBV01@@Z=C:/Windows/System32/DUI70.??0Layout@DirectUI@@QEAA@AEBV01@@Z @185
    ??0Layout@DirectUI@@QEAA@XZ=C:/Windows/System32/DUI70.??0Layout@DirectUI@@QEAA@XZ @186
    ??0LinkedList@DirectUI@@QEAA@XZ=C:/Windows/System32/DUI70.??0LinkedList@DirectUI@@QEAA@XZ @187
    ??0Macro@DirectUI@@QEAA@$$QEAV01@@Z=C:/Windows/System32/DUI70.??0Macro@DirectUI@@QEAA@$$QEAV01@@Z @188
    ??0Macro@DirectUI@@QEAA@AEBV01@@Z=C:/Windows/System32/DUI70.??0Macro@DirectUI@@QEAA@AEBV01@@Z @189
    ??0Macro@DirectUI@@QEAA@XZ=C:/Windows/System32/DUI70.??0Macro@DirectUI@@QEAA@XZ @190
    ??0ModernProgressBar@DirectUI@@QEAA@XZ=C:/Windows/System32/DUI70.??0ModernProgressBar@DirectUI@@QEAA@XZ @191
    ??0ModernProgressBarRangeValueProxy@DirectUI@@QEAA@$$QEAV01@@Z=C:/Windows/System32/DUI70.??0ModernProgressBarRangeValueProxy@DirectUI@@QEAA@$$QEAV01@@Z @192
    ??0ModernProgressBarRangeValueProxy@DirectUI@@QEAA@AEBV01@@Z=C:/Windows/System32/DUI70.??0ModernProgressBarRangeValueProxy@DirectUI@@QEAA@AEBV01@@Z @193
    ??0ModernProgressBarRangeValueProxy@DirectUI@@QEAA@XZ=C:/Windows/System32/DUI70.??0ModernProgressBarRangeValueProxy@DirectUI@@QEAA@XZ @194
    ??0ModernProgressRing@DirectUI@@QEAA@XZ=C:/Windows/System32/DUI70.??0ModernProgressRing@DirectUI@@QEAA@XZ @195
    ??0Movie@DirectUI@@QEAA@AEBV01@@Z=C:/Windows/System32/DUI70.??0Movie@DirectUI@@QEAA@AEBV01@@Z @196
    ??0Movie@DirectUI@@QEAA@XZ=C:/Windows/System32/DUI70.??0Movie@DirectUI@@QEAA@XZ @197
    ??0NativeHWNDHost@DirectUI@@QEAA@AEBV01@@Z=C:/Windows/System32/DUI70.??0NativeHWNDHost@DirectUI@@QEAA@AEBV01@@Z @198
    ??0NativeHWNDHost@DirectUI@@QEAA@XZ=C:/Windows/System32/DUI70.??0NativeHWNDHost@DirectUI@@QEAA@XZ @199
    ??0Navigator@DirectUI@@QEAA@$$QEAV01@@Z=C:/Windows/System32/DUI70.??0Navigator@DirectUI@@QEAA@$$QEAV01@@Z @200
    ??0Navigator@DirectUI@@QEAA@AEBV01@@Z=C:/Windows/System32/DUI70.??0Navigator@DirectUI@@QEAA@AEBV01@@Z @201
    ??0Navigator@DirectUI@@QEAA@XZ=C:/Windows/System32/DUI70.??0Navigator@DirectUI@@QEAA@XZ @202
    ??0NavigatorSelectionItemProxy@DirectUI@@QEAA@$$QEAV01@@Z=C:/Windows/System32/DUI70.??0NavigatorSelectionItemProxy@DirectUI@@QEAA@$$QEAV01@@Z @203
    ??0NavigatorSelectionItemProxy@DirectUI@@QEAA@AEBV01@@Z=C:/Windows/System32/DUI70.??0NavigatorSelectionItemProxy@DirectUI@@QEAA@AEBV01@@Z @204
    ??0NavigatorSelectionItemProxy@DirectUI@@QEAA@XZ=C:/Windows/System32/DUI70.??0NavigatorSelectionItemProxy@DirectUI@@QEAA@XZ @205
    ??0NineGridLayout@DirectUI@@QEAA@AEBV01@@Z=C:/Windows/System32/DUI70.??0NineGridLayout@DirectUI@@QEAA@AEBV01@@Z @206
    ??0NineGridLayout@DirectUI@@QEAA@XZ=C:/Windows/System32/DUI70.??0NineGridLayout@DirectUI@@QEAA@XZ @207
    ??0PText@DirectUI@@QEAA@AEBV01@@Z=C:/Windows/System32/DUI70.??0PText@DirectUI@@QEAA@AEBV01@@Z @208
    ??0PText@DirectUI@@QEAA@XZ=C:/Windows/System32/DUI70.??0PText@DirectUI@@QEAA@XZ @209
    ??0Page@DirectUI@@QEAA@$$QEAV01@@Z=C:/Windows/System32/DUI70.??0Page@DirectUI@@QEAA@$$QEAV01@@Z @210
    ??0Page@DirectUI@@QEAA@AEBV01@@Z=C:/Windows/System32/DUI70.??0Page@DirectUI@@QEAA@AEBV01@@Z @211
    ??0Page@DirectUI@@QEAA@XZ=C:/Windows/System32/DUI70.??0Page@DirectUI@@QEAA@XZ @212
    ??0Pages@DirectUI@@QEAA@$$QEAV01@@Z=C:/Windows/System32/DUI70.??0Pages@DirectUI@@QEAA@$$QEAV01@@Z @213
    ??0Pages@DirectUI@@QEAA@AEBV01@@Z=C:/Windows/System32/DUI70.??0Pages@DirectUI@@QEAA@AEBV01@@Z @214
    ??0Pages@DirectUI@@QEAA@XZ=C:/Windows/System32/DUI70.??0Pages@DirectUI@@QEAA@XZ @215
    ??0Progress@DirectUI@@QEAA@AEBV01@@Z=C:/Windows/System32/DUI70.??0Progress@DirectUI@@QEAA@AEBV01@@Z @216
    ??0Progress@DirectUI@@QEAA@XZ=C:/Windows/System32/DUI70.??0Progress@DirectUI@@QEAA@XZ @217
    ??0ProgressRangeValueProxy@DirectUI@@QEAA@$$QEAV01@@Z=C:/Windows/System32/DUI70.??0ProgressRangeValueProxy@DirectUI@@QEAA@$$QEAV01@@Z @218
    ??0ProgressRangeValueProxy@DirectUI@@QEAA@AEBV01@@Z=C:/Windows/System32/DUI70.??0ProgressRangeValueProxy@DirectUI@@QEAA@AEBV01@@Z @219
    ??0ProgressRangeValueProxy@DirectUI@@QEAA@XZ=C:/Windows/System32/DUI70.??0ProgressRangeValueProxy@DirectUI@@QEAA@XZ @220
    ??0ProviderProxy@DirectUI@@IEAA@XZ=C:/Windows/System32/DUI70.??0ProviderProxy@DirectUI@@IEAA@XZ @221
    ??0ProviderProxy@DirectUI@@QEAA@$$QEAV01@@Z=C:/Windows/System32/DUI70.??0ProviderProxy@DirectUI@@QEAA@$$QEAV01@@Z @222
    ??0ProviderProxy@DirectUI@@QEAA@AEBV01@@Z=C:/Windows/System32/DUI70.??0ProviderProxy@DirectUI@@QEAA@AEBV01@@Z @223
    ??0Proxy@DirectUI@@QEAA@AEBV01@@Z=C:/Windows/System32/DUI70.??0Proxy@DirectUI@@QEAA@AEBV01@@Z @224
    ??0Proxy@DirectUI@@QEAA@XZ=C:/Windows/System32/DUI70.??0Proxy@DirectUI@@QEAA@XZ @225
    ??0PushButton@DirectUI@@QEAA@$$QEAV01@@Z=C:/Windows/System32/DUI70.??0PushButton@DirectUI@@QEAA@$$QEAV01@@Z @226
    ??0PushButton@DirectUI@@QEAA@AEBV01@@Z=C:/Windows/System32/DUI70.??0PushButton@DirectUI@@QEAA@AEBV01@@Z @227
    ??0PushButton@DirectUI@@QEAA@XZ=C:/Windows/System32/DUI70.??0PushButton@DirectUI@@QEAA@XZ @228
    ??0RadioButtonGlyph@DirectUI@@QEAA@AEBV01@@Z=C:/Windows/System32/DUI70.??0RadioButtonGlyph@DirectUI@@QEAA@AEBV01@@Z @229
    ??0RadioButtonGlyph@DirectUI@@QEAA@XZ=C:/Windows/System32/DUI70.??0RadioButtonGlyph@DirectUI@@QEAA@XZ @230
    ??0RangeValueProvider@DirectUI@@QEAA@XZ=C:/Windows/System32/DUI70.??0RangeValueProvider@DirectUI@@QEAA@XZ @231
    ??0RangeValueProxy@DirectUI@@IEAA@XZ=C:/Windows/System32/DUI70.??0RangeValueProxy@DirectUI@@IEAA@XZ @232
    ??0RangeValueProxy@DirectUI@@QEAA@$$QEAV01@@Z=C:/Windows/System32/DUI70.??0RangeValueProxy@DirectUI@@QEAA@$$QEAV01@@Z @233
    ??0RangeValueProxy@DirectUI@@QEAA@AEBV01@@Z=C:/Windows/System32/DUI70.??0RangeValueProxy@DirectUI@@QEAA@AEBV01@@Z @234
    ??0RefPointElement@DirectUI@@QEAA@AEBV01@@Z=C:/Windows/System32/DUI70.??0RefPointElement@DirectUI@@QEAA@AEBV01@@Z @235
    ??0RefPointElement@DirectUI@@QEAA@XZ=C:/Windows/System32/DUI70.??0RefPointElement@DirectUI@@QEAA@XZ @236
    ??0RefcountBase@DirectUI@@QEAA@XZ=C:/Windows/System32/DUI70.??0RefcountBase@DirectUI@@QEAA@XZ @237
    ??0RepeatButton@DirectUI@@QEAA@AEBV01@@Z=C:/Windows/System32/DUI70.??0RepeatButton@DirectUI@@QEAA@AEBV01@@Z @238
    ??0RepeatButton@DirectUI@@QEAA@XZ=C:/Windows/System32/DUI70.??0RepeatButton@DirectUI@@QEAA@XZ @239
    ??0Repeater@DirectUI@@QEAA@$$QEAV01@@Z=C:/Windows/System32/DUI70.??0Repeater@DirectUI@@QEAA@$$QEAV01@@Z @240
    ??0Repeater@DirectUI@@QEAA@AEBV01@@Z=C:/Windows/System32/DUI70.??0Repeater@DirectUI@@QEAA@AEBV01@@Z @241
    ??0Repeater@DirectUI@@QEAA@XZ=C:/Windows/System32/DUI70.??0Repeater@DirectUI@@QEAA@XZ @242
    ??0ResourceModuleHandles@DirectUI@@QEAA@XZ=C:/Windows/System32/DUI70.??0ResourceModuleHandles@DirectUI@@QEAA@XZ @243
    ??0RichText@DirectUI@@QEAA@XZ=C:/Windows/System32/DUI70.??0RichText@DirectUI@@QEAA@XZ @244
    ??0RowLayout@DirectUI@@QEAA@AEBV01@@Z=C:/Windows/System32/DUI70.??0RowLayout@DirectUI@@QEAA@AEBV01@@Z @245
    ??0RowLayout@DirectUI@@QEAA@XZ=C:/Windows/System32/DUI70.??0RowLayout@DirectUI@@QEAA@XZ @246
    ??0ScrollBar@DirectUI@@QEAA@AEBV01@@Z=C:/Windows/System32/DUI70.??0ScrollBar@DirectUI@@QEAA@AEBV01@@Z @247
    ??0ScrollBar@DirectUI@@QEAA@XZ=C:/Windows/System32/DUI70.??0ScrollBar@DirectUI@@QEAA@XZ @248
    ??0ScrollBarRangeValueProxy@DirectUI@@QEAA@$$QEAV01@@Z=C:/Windows/System32/DUI70.??0ScrollBarRangeValueProxy@DirectUI@@QEAA@$$QEAV01@@Z @249
    ??0ScrollBarRangeValueProxy@DirectUI@@QEAA@AEBV01@@Z=C:/Windows/System32/DUI70.??0ScrollBarRangeValueProxy@DirectUI@@QEAA@AEBV01@@Z @250
    ??0ScrollBarRangeValueProxy@DirectUI@@QEAA@XZ=C:/Windows/System32/DUI70.??0ScrollBarRangeValueProxy@DirectUI@@QEAA@XZ @251
    ??0ScrollItemProvider@DirectUI@@QEAA@XZ=C:/Windows/System32/DUI70.??0ScrollItemProvider@DirectUI@@QEAA@XZ @252
    ??0ScrollItemProxy@DirectUI@@QEAA@$$QEAV01@@Z=C:/Windows/System32/DUI70.??0ScrollItemProxy@DirectUI@@QEAA@$$QEAV01@@Z @253
    ??0ScrollItemProxy@DirectUI@@QEAA@AEBV01@@Z=C:/Windows/System32/DUI70.??0ScrollItemProxy@DirectUI@@QEAA@AEBV01@@Z @254
    ??0ScrollItemProxy@DirectUI@@QEAA@XZ=C:/Windows/System32/DUI70.??0ScrollItemProxy@DirectUI@@QEAA@XZ @255
    ??0ScrollProvider@DirectUI@@QEAA@XZ=C:/Windows/System32/DUI70.??0ScrollProvider@DirectUI@@QEAA@XZ @256
    ??0ScrollProxy@DirectUI@@QEAA@$$QEAV01@@Z=C:/Windows/System32/DUI70.??0ScrollProxy@DirectUI@@QEAA@$$QEAV01@@Z @257
    ??0ScrollProxy@DirectUI@@QEAA@AEBV01@@Z=C:/Windows/System32/DUI70.??0ScrollProxy@DirectUI@@QEAA@AEBV01@@Z @258
    ??0ScrollProxy@DirectUI@@QEAA@XZ=C:/Windows/System32/DUI70.??0ScrollProxy@DirectUI@@QEAA@XZ @259
    ??0ScrollViewer@DirectUI@@QEAA@AEBV01@@Z=C:/Windows/System32/DUI70.??0ScrollViewer@DirectUI@@QEAA@AEBV01@@Z @260
    ??0ScrollViewer@DirectUI@@QEAA@XZ=C:/Windows/System32/DUI70.??0ScrollViewer@DirectUI@@QEAA@XZ @261
    ??0SelectionItemProvider@DirectUI@@QEAA@XZ=C:/Windows/System32/DUI70.??0SelectionItemProvider@DirectUI@@QEAA@XZ @262
    ??0SelectionItemProxy@DirectUI@@IEAA@XZ=C:/Windows/System32/DUI70.??0SelectionItemProxy@DirectUI@@IEAA@XZ @263
    ??0SelectionItemProxy@DirectUI@@QEAA@$$QEAV01@@Z=C:/Windows/System32/DUI70.??0SelectionItemProxy@DirectUI@@QEAA@$$QEAV01@@Z @264
    ??0SelectionItemProxy@DirectUI@@QEAA@AEBV01@@Z=C:/Windows/System32/DUI70.??0SelectionItemProxy@DirectUI@@QEAA@AEBV01@@Z @265
    ??0SelectionProvider@DirectUI@@QEAA@XZ=C:/Windows/System32/DUI70.??0SelectionProvider@DirectUI@@QEAA@XZ @266
    ??0SelectionProxy@DirectUI@@IEAA@XZ=C:/Windows/System32/DUI70.??0SelectionProxy@DirectUI@@IEAA@XZ @267
    ??0SelectionProxy@DirectUI@@QEAA@$$QEAV01@@Z=C:/Windows/System32/DUI70.??0SelectionProxy@DirectUI@@QEAA@$$QEAV01@@Z @268
    ??0SelectionProxy@DirectUI@@QEAA@AEBV01@@Z=C:/Windows/System32/DUI70.??0SelectionProxy@DirectUI@@QEAA@AEBV01@@Z @269
    ??0Selector@DirectUI@@QEAA@AEBV01@@Z=C:/Windows/System32/DUI70.??0Selector@DirectUI@@QEAA@AEBV01@@Z @270
    ??0Selector@DirectUI@@QEAA@XZ=C:/Windows/System32/DUI70.??0Selector@DirectUI@@QEAA@XZ @271
    ??0SelectorNoDefault@DirectUI@@QEAA@$$QEAV01@@Z=C:/Windows/System32/DUI70.??0SelectorNoDefault@DirectUI@@QEAA@$$QEAV01@@Z @272
    ??0SelectorNoDefault@DirectUI@@QEAA@AEBV01@@Z=C:/Windows/System32/DUI70.??0SelectorNoDefault@DirectUI@@QEAA@AEBV01@@Z @273
    ??0SelectorNoDefault@DirectUI@@QEAA@XZ=C:/Windows/System32/DUI70.??0SelectorNoDefault@DirectUI@@QEAA@XZ @274
    ??0SelectorSelectionItemProxy@DirectUI@@QEAA@$$QEAV01@@Z=C:/Windows/System32/DUI70.??0SelectorSelectionItemProxy@DirectUI@@QEAA@$$QEAV01@@Z @275
    ??0SelectorSelectionItemProxy@DirectUI@@QEAA@AEBV01@@Z=C:/Windows/System32/DUI70.??0SelectorSelectionItemProxy@DirectUI@@QEAA@AEBV01@@Z @276
    ??0SelectorSelectionItemProxy@DirectUI@@QEAA@XZ=C:/Windows/System32/DUI70.??0SelectorSelectionItemProxy@DirectUI@@QEAA@XZ @277
    ??0SelectorSelectionProxy@DirectUI@@QEAA@$$QEAV01@@Z=C:/Windows/System32/DUI70.??0SelectorSelectionProxy@DirectUI@@QEAA@$$QEAV01@@Z @278
    ??0SelectorSelectionProxy@DirectUI@@QEAA@AEBV01@@Z=C:/Windows/System32/DUI70.??0SelectorSelectionProxy@DirectUI@@QEAA@AEBV01@@Z @279
    ??0SelectorSelectionProxy@DirectUI@@QEAA@XZ=C:/Windows/System32/DUI70.??0SelectorSelectionProxy@DirectUI@@QEAA@XZ @280
    ??0ShellBorderLayout@DirectUI@@QEAA@AEBV01@@Z=C:/Windows/System32/DUI70.??0ShellBorderLayout@DirectUI@@QEAA@AEBV01@@Z @281
    ??0ShellBorderLayout@DirectUI@@QEAA@XZ=C:/Windows/System32/DUI70.??0ShellBorderLayout@DirectUI@@QEAA@XZ @282
    ??0StyleSheet@DirectUI@@QEAA@$$QEAV01@@Z=C:/Windows/System32/DUI70.??0StyleSheet@DirectUI@@QEAA@$$QEAV01@@Z @283
    ??0StyleSheet@DirectUI@@QEAA@AEBV01@@Z=C:/Windows/System32/DUI70.??0StyleSheet@DirectUI@@QEAA@AEBV01@@Z @284
    ??0StyleSheet@DirectUI@@QEAA@XZ=C:/Windows/System32/DUI70.??0StyleSheet@DirectUI@@QEAA@XZ @285
    ??0StyledScrollViewer@DirectUI@@QEAA@AEBV01@@Z=C:/Windows/System32/DUI70.??0StyledScrollViewer@DirectUI@@QEAA@AEBV01@@Z @286
    ??0StyledScrollViewer@DirectUI@@QEAA@XZ=C:/Windows/System32/DUI70.??0StyledScrollViewer@DirectUI@@QEAA@XZ @287
    ??0Surface@DirectUI@@QEAA@AEBV01@@Z=C:/Windows/System32/DUI70.??0Surface@DirectUI@@QEAA@AEBV01@@Z @288
    ??0Surface@DirectUI@@QEAA@XZ=C:/Windows/System32/DUI70.??0Surface@DirectUI@@QEAA@XZ @289
    ??0TableItemProvider@DirectUI@@QEAA@XZ=C:/Windows/System32/DUI70.??0TableItemProvider@DirectUI@@QEAA@XZ @290
    ??0TableItemProxy@DirectUI@@QEAA@$$QEAV01@@Z=C:/Windows/System32/DUI70.??0TableItemProxy@DirectUI@@QEAA@$$QEAV01@@Z @291
    ??0TableItemProxy@DirectUI@@QEAA@AEBV01@@Z=C:/Windows/System32/DUI70.??0TableItemProxy@DirectUI@@QEAA@AEBV01@@Z @292
    ??0TableItemProxy@DirectUI@@QEAA@XZ=C:/Windows/System32/DUI70.??0TableItemProxy@DirectUI@@QEAA@XZ @293
    ??0TableLayout@DirectUI@@QEAA@AEBV01@@Z=C:/Windows/System32/DUI70.??0TableLayout@DirectUI@@QEAA@AEBV01@@Z @294
    ??0TableLayout@DirectUI@@QEAA@XZ=C:/Windows/System32/DUI70.??0TableLayout@DirectUI@@QEAA@XZ @295
    ??0TableProvider@DirectUI@@QEAA@XZ=C:/Windows/System32/DUI70.??0TableProvider@DirectUI@@QEAA@XZ @296
    ??0TableProxy@DirectUI@@QEAA@$$QEAV01@@Z=C:/Windows/System32/DUI70.??0TableProxy@DirectUI@@QEAA@$$QEAV01@@Z @297
    ??0TableProxy@DirectUI@@QEAA@AEBV01@@Z=C:/Windows/System32/DUI70.??0TableProxy@DirectUI@@QEAA@AEBV01@@Z @298
    ??0TableProxy@DirectUI@@QEAA@XZ=C:/Windows/System32/DUI70.??0TableProxy@DirectUI@@QEAA@XZ @299
    ??0TaskPage@DirectUI@@QEAA@AEBV01@@Z=C:/Windows/System32/DUI70.??0TaskPage@DirectUI@@QEAA@AEBV01@@Z @300
    ??0TaskPage@DirectUI@@QEAA@XZ=C:/Windows/System32/DUI70.??0TaskPage@DirectUI@@QEAA@XZ @301
    ??0TextGraphic@DirectUI@@QEAA@$$QEAV01@@Z=C:/Windows/System32/DUI70.??0TextGraphic@DirectUI@@QEAA@$$QEAV01@@Z @302
    ??0TextGraphic@DirectUI@@QEAA@AEBV01@@Z=C:/Windows/System32/DUI70.??0TextGraphic@DirectUI@@QEAA@AEBV01@@Z @303
    ??0TextGraphic@DirectUI@@QEAA@XZ=C:/Windows/System32/DUI70.??0TextGraphic@DirectUI@@QEAA@XZ @304
    ??0Thumb@DirectUI@@QEAA@AEBV01@@Z=C:/Windows/System32/DUI70.??0Thumb@DirectUI@@QEAA@AEBV01@@Z @305
    ??0Thumb@DirectUI@@QEAA@XZ=C:/Windows/System32/DUI70.??0Thumb@DirectUI@@QEAA@XZ @306
    ??0ToggleProvider@DirectUI@@QEAA@XZ=C:/Windows/System32/DUI70.??0ToggleProvider@DirectUI@@QEAA@XZ @307
    ??0ToggleProxy@DirectUI@@QEAA@$$QEAV01@@Z=C:/Windows/System32/DUI70.??0ToggleProxy@DirectUI@@QEAA@$$QEAV01@@Z @308
    ??0ToggleProxy@DirectUI@@QEAA@AEBV01@@Z=C:/Windows/System32/DUI70.??0ToggleProxy@DirectUI@@QEAA@AEBV01@@Z @309
    ??0ToggleProxy@DirectUI@@QEAA@XZ=C:/Windows/System32/DUI70.??0ToggleProxy@DirectUI@@QEAA@XZ @310
    ??0TouchButton@DirectUI@@QEAA@XZ=C:/Windows/System32/DUI70.??0TouchButton@DirectUI@@QEAA@XZ @311
    ??0TouchCheckBox@DirectUI@@QEAA@XZ=C:/Windows/System32/DUI70.??0TouchCheckBox@DirectUI@@QEAA@XZ @312
    ??0TouchCheckBoxGlyph@DirectUI@@QEAA@XZ=C:/Windows/System32/DUI70.??0TouchCheckBoxGlyph@DirectUI@@QEAA@XZ @313
    ??0TouchCommandButton@DirectUI@@QEAA@XZ=C:/Windows/System32/DUI70.??0TouchCommandButton@DirectUI@@QEAA@XZ @314
    ??0TouchEdit2@DirectUI@@QEAA@XZ=C:/Windows/System32/DUI70.??0TouchEdit2@DirectUI@@QEAA@XZ @315
    ??0TouchHWNDElement@DirectUI@@QEAA@XZ=C:/Windows/System32/DUI70.??0TouchHWNDElement@DirectUI@@QEAA@XZ @316
    ??0TouchHyperLink@DirectUI@@QEAA@XZ=C:/Windows/System32/DUI70.??0TouchHyperLink@DirectUI@@QEAA@XZ @317
    ??0TouchRepeatButton@DirectUI@@QEAA@XZ=C:/Windows/System32/DUI70.??0TouchRepeatButton@DirectUI@@QEAA@XZ @318
    ??0TouchScrollBar@DirectUI@@QEAA@XZ=C:/Windows/System32/DUI70.??0TouchScrollBar@DirectUI@@QEAA@XZ @319
    ??0TouchSelect@DirectUI@@QEAA@XZ=C:/Windows/System32/DUI70.??0TouchSelect@DirectUI@@QEAA@XZ @320
    ??0TouchSelectItem@DirectUI@@QEAA@XZ=C:/Windows/System32/DUI70.??0TouchSelectItem@DirectUI@@QEAA@XZ @321
    ??0UnknownElement@DirectUI@@QEAA@AEBV01@@Z=C:/Windows/System32/DUI70.??0UnknownElement@DirectUI@@QEAA@AEBV01@@Z @322
    ??0UnknownElement@DirectUI@@QEAA@XZ=C:/Windows/System32/DUI70.??0UnknownElement@DirectUI@@QEAA@XZ @323
    ??0ValueProvider@DirectUI@@QEAA@XZ=C:/Windows/System32/DUI70.??0ValueProvider@DirectUI@@QEAA@XZ @324
    ??0ValueProxy@DirectUI@@QEAA@$$QEAV01@@Z=C:/Windows/System32/DUI70.??0ValueProxy@DirectUI@@QEAA@$$QEAV01@@Z @325
    ??0ValueProxy@DirectUI@@QEAA@AEBV01@@Z=C:/Windows/System32/DUI70.??0ValueProxy@DirectUI@@QEAA@AEBV01@@Z @326
    ??0ValueProxy@DirectUI@@QEAA@XZ=C:/Windows/System32/DUI70.??0ValueProxy@DirectUI@@QEAA@XZ @327
    ??0VerticalFlowLayout@DirectUI@@QEAA@AEBV01@@Z=C:/Windows/System32/DUI70.??0VerticalFlowLayout@DirectUI@@QEAA@AEBV01@@Z @328
    ??0VerticalFlowLayout@DirectUI@@QEAA@XZ=C:/Windows/System32/DUI70.??0VerticalFlowLayout@DirectUI@@QEAA@XZ @329
    ??0Viewer@DirectUI@@QEAA@AEBV01@@Z=C:/Windows/System32/DUI70.??0Viewer@DirectUI@@QEAA@AEBV01@@Z @330
    ??0Viewer@DirectUI@@QEAA@XZ=C:/Windows/System32/DUI70.??0Viewer@DirectUI@@QEAA@XZ @331
    ??0XBaby@DirectUI@@QEAA@AEBV01@@Z=C:/Windows/System32/DUI70.??0XBaby@DirectUI@@QEAA@AEBV01@@Z @332
    ??0XBaby@DirectUI@@QEAA@XZ=C:/Windows/System32/DUI70.??0XBaby@DirectUI@@QEAA@XZ @333
    ??0XElement@DirectUI@@QEAA@AEBV01@@Z=C:/Windows/System32/DUI70.??0XElement@DirectUI@@QEAA@AEBV01@@Z @334
    ??0XElement@DirectUI@@QEAA@XZ=C:/Windows/System32/DUI70.??0XElement@DirectUI@@QEAA@XZ @335
    ??0XHost@DirectUI@@QEAA@XZ=C:/Windows/System32/DUI70.??0XHost@DirectUI@@QEAA@XZ @336
    ??0XProvider@DirectUI@@QEAA@AEBV01@@Z=C:/Windows/System32/DUI70.??0XProvider@DirectUI@@QEAA@AEBV01@@Z @337
    ??0XProvider@DirectUI@@QEAA@XZ=C:/Windows/System32/DUI70.??0XProvider@DirectUI@@QEAA@XZ @338
    ??0XResourceProvider@DirectUI@@QEAA@$$QEAV01@@Z=C:/Windows/System32/DUI70.??0XResourceProvider@DirectUI@@QEAA@$$QEAV01@@Z @339
    ??0XResourceProvider@DirectUI@@QEAA@AEBV01@@Z=C:/Windows/System32/DUI70.??0XResourceProvider@DirectUI@@QEAA@AEBV01@@Z @340
    ??0XResourceProvider@DirectUI@@QEAA@XZ=C:/Windows/System32/DUI70.??0XResourceProvider@DirectUI@@QEAA@XZ @341
    ??1?$PatternProvider@VExpandCollapseProvider@DirectUI@@UIExpandCollapseProvider@@$00@DirectUI@@UEAA@XZ=C:/Windows/System32/DUI70.??1?$PatternProvider@VExpandCollapseProvider@DirectUI@@UIExpandCollapseProvider@@$00@DirectUI@@UEAA@XZ @342
    ??1?$PatternProvider@VGridItemProvider@DirectUI@@UIGridItemProvider@@$01@DirectUI@@UEAA@XZ=C:/Windows/System32/DUI70.??1?$PatternProvider@VGridItemProvider@DirectUI@@UIGridItemProvider@@$01@DirectUI@@UEAA@XZ @343
    ??1?$PatternProvider@VGridProvider@DirectUI@@UIGridProvider@@$02@DirectUI@@UEAA@XZ=C:/Windows/System32/DUI70.??1?$PatternProvider@VGridProvider@DirectUI@@UIGridProvider@@$02@DirectUI@@UEAA@XZ @344
    ??1?$PatternProvider@VInvokeProvider@DirectUI@@UIInvokeProvider@@$0A@@DirectUI@@UEAA@XZ=C:/Windows/System32/DUI70.??1?$PatternProvider@VInvokeProvider@DirectUI@@UIInvokeProvider@@$0A@@DirectUI@@UEAA@XZ @345
    ??1?$PatternProvider@VRangeValueProvider@DirectUI@@UIRangeValueProvider@@$03@DirectUI@@UEAA@XZ=C:/Windows/System32/DUI70.??1?$PatternProvider@VRangeValueProvider@DirectUI@@UIRangeValueProvider@@$03@DirectUI@@UEAA@XZ @346
    ??1?$PatternProvider@VScrollItemProvider@DirectUI@@UIScrollItemProvider@@$05@DirectUI@@UEAA@XZ=C:/Windows/System32/DUI70.??1?$PatternProvider@VScrollItemProvider@DirectUI@@UIScrollItemProvider@@$05@DirectUI@@UEAA@XZ @347
    ??1?$PatternProvider@VScrollProvider@DirectUI@@UIScrollProvider@@$04@DirectUI@@UEAA@XZ=C:/Windows/System32/DUI70.??1?$PatternProvider@VScrollProvider@DirectUI@@UIScrollProvider@@$04@DirectUI@@UEAA@XZ @348
    ??1?$PatternProvider@VSelectionItemProvider@DirectUI@@UISelectionItemProvider@@$06@DirectUI@@UEAA@XZ=C:/Windows/System32/DUI70.??1?$PatternProvider@VSelectionItemProvider@DirectUI@@UISelectionItemProvider@@$06@DirectUI@@UEAA@XZ @349
    ??1?$PatternProvider@VSelectionProvider@DirectUI@@UISelectionProvider@@$07@DirectUI@@UEAA@XZ=C:/Windows/System32/DUI70.??1?$PatternProvider@VSelectionProvider@DirectUI@@UISelectionProvider@@$07@DirectUI@@UEAA@XZ @350
    ??1?$PatternProvider@VTableItemProvider@DirectUI@@UITableItemProvider@@$09@DirectUI@@UEAA@XZ=C:/Windows/System32/DUI70.??1?$PatternProvider@VTableItemProvider@DirectUI@@UITableItemProvider@@$09@DirectUI@@UEAA@XZ @351
    ??1?$PatternProvider@VTableProvider@DirectUI@@UITableProvider@@$08@DirectUI@@UEAA@XZ=C:/Windows/System32/DUI70.??1?$PatternProvider@VTableProvider@DirectUI@@UITableProvider@@$08@DirectUI@@UEAA@XZ @352
    ??1?$PatternProvider@VToggleProvider@DirectUI@@UIToggleProvider@@$0L@@DirectUI@@UEAA@XZ=C:/Windows/System32/DUI70.??1?$PatternProvider@VToggleProvider@DirectUI@@UIToggleProvider@@$0L@@DirectUI@@UEAA@XZ @353
    ??1?$PatternProvider@VValueProvider@DirectUI@@UIValueProvider@@$0M@@DirectUI@@UEAA@XZ=C:/Windows/System32/DUI70.??1?$PatternProvider@VValueProvider@DirectUI@@UIValueProvider@@$0M@@DirectUI@@UEAA@XZ @354
    ??1?$SafeArrayAccessor@H@DirectUI@@QEAA@XZ=C:/Windows/System32/DUI70.??1?$SafeArrayAccessor@H@DirectUI@@QEAA@XZ @355
    ??1AccessibleButton@DirectUI@@UEAA@XZ=C:/Windows/System32/DUI70.??1AccessibleButton@DirectUI@@UEAA@XZ @356
    ??1AnimationStrip@DirectUI@@UEAA@XZ=C:/Windows/System32/DUI70.??1AnimationStrip@DirectUI@@UEAA@XZ @357
    ??1AutoButton@DirectUI@@UEAA@XZ=C:/Windows/System32/DUI70.??1AutoButton@DirectUI@@UEAA@XZ @358
    ??1AutoLock@DirectUI@@QEAA@XZ=C:/Windows/System32/DUI70.??1AutoLock@DirectUI@@QEAA@XZ @359
    ??1AutoThread@DirectUI@@QEAA@XZ=C:/Windows/System32/DUI70.??1AutoThread@DirectUI@@QEAA@XZ @360
    ??1AutoVariant@DirectUI@@QEAA@XZ=C:/Windows/System32/DUI70.??1AutoVariant@DirectUI@@QEAA@XZ @361
    ??1BaseScrollViewer@DirectUI@@UEAA@XZ=C:/Windows/System32/DUI70.??1BaseScrollViewer@DirectUI@@UEAA@XZ @362
    ??1Bind@DirectUI@@UEAA@XZ=C:/Windows/System32/DUI70.??1Bind@DirectUI@@UEAA@XZ @363
    ??1BorderLayout@DirectUI@@UEAA@XZ=C:/Windows/System32/DUI70.??1BorderLayout@DirectUI@@UEAA@XZ @364
    ??1Browser@DirectUI@@UEAA@XZ=C:/Windows/System32/DUI70.??1Browser@DirectUI@@UEAA@XZ @365
    ??1Button@DirectUI@@UEAA@XZ=C:/Windows/System32/DUI70.??1Button@DirectUI@@UEAA@XZ @366
    ??1CCAVI@DirectUI@@UEAA@XZ=C:/Windows/System32/DUI70.??1CCAVI@DirectUI@@UEAA@XZ @367
    ??1CCBase@DirectUI@@UEAA@XZ=C:/Windows/System32/DUI70.??1CCBase@DirectUI@@UEAA@XZ @368
    ??1CCBaseCheckRadioButton@DirectUI@@UEAA@XZ=C:/Windows/System32/DUI70.??1CCBaseCheckRadioButton@DirectUI@@UEAA@XZ @369
    ??1CCBaseScrollBar@DirectUI@@UEAA@XZ=C:/Windows/System32/DUI70.??1CCBaseScrollBar@DirectUI@@UEAA@XZ @370
    ??1CCCheckBox@DirectUI@@UEAA@XZ=C:/Windows/System32/DUI70.??1CCCheckBox@DirectUI@@UEAA@XZ @371
    ??1CCCommandLink@DirectUI@@UEAA@XZ=C:/Windows/System32/DUI70.??1CCCommandLink@DirectUI@@UEAA@XZ @372
    ??1CCHScrollBar@DirectUI@@UEAA@XZ=C:/Windows/System32/DUI70.??1CCHScrollBar@DirectUI@@UEAA@XZ @373
    ??1CCListBox@DirectUI@@UEAA@XZ=C:/Windows/System32/DUI70.??1CCListBox@DirectUI@@UEAA@XZ @374
    ??1CCListView@DirectUI@@UEAA@XZ=C:/Windows/System32/DUI70.??1CCListView@DirectUI@@UEAA@XZ @375
    ??1CCProgressBar@DirectUI@@UEAA@XZ=C:/Windows/System32/DUI70.??1CCProgressBar@DirectUI@@UEAA@XZ @376
    ??1CCPushButton@DirectUI@@UEAA@XZ=C:/Windows/System32/DUI70.??1CCPushButton@DirectUI@@UEAA@XZ @377
    ??1CCRadioButton@DirectUI@@UEAA@XZ=C:/Windows/System32/DUI70.??1CCRadioButton@DirectUI@@UEAA@XZ @378
    ??1CCSysLink@DirectUI@@UEAA@XZ=C:/Windows/System32/DUI70.??1CCSysLink@DirectUI@@UEAA@XZ @379
    ??1CCTrackBar@DirectUI@@UEAA@XZ=C:/Windows/System32/DUI70.??1CCTrackBar@DirectUI@@UEAA@XZ @380
    ??1CCTreeView@DirectUI@@UEAA@XZ=C:/Windows/System32/DUI70.??1CCTreeView@DirectUI@@UEAA@XZ @381
    ??1CCVScrollBar@DirectUI@@UEAA@XZ=C:/Windows/System32/DUI70.??1CCVScrollBar@DirectUI@@UEAA@XZ @382
    ??1CallstackTracker@DirectUI@@QEAA@XZ=C:/Windows/System32/DUI70.??1CallstackTracker@DirectUI@@QEAA@XZ @383
    ??1CheckBoxGlyph@DirectUI@@UEAA@XZ=C:/Windows/System32/DUI70.??1CheckBoxGlyph@DirectUI@@UEAA@XZ @384
    ??1ClassInfoBase@DirectUI@@UEAA@XZ=C:/Windows/System32/DUI70.??1ClassInfoBase@DirectUI@@UEAA@XZ @385
    ??1Clipper@DirectUI@@UEAA@XZ=C:/Windows/System32/DUI70.??1Clipper@DirectUI@@UEAA@XZ @386
    ??1Combobox@DirectUI@@UEAA@XZ=C:/Windows/System32/DUI70.??1Combobox@DirectUI@@UEAA@XZ @387
    ??1CritSecLock@DirectUI@@QEAA@XZ=C:/Windows/System32/DUI70.??1CritSecLock@DirectUI@@QEAA@XZ @388
    ??1DCSurface@DirectUI@@UEAA@XZ=C:/Windows/System32/DUI70.??1DCSurface@DirectUI@@UEAA@XZ @389
    ??1DUIFactory@DirectUI@@QEAA@XZ=C:/Windows/System32/DUI70.??1DUIFactory@DirectUI@@QEAA@XZ @390
    ??1DUIXmlParser@DirectUI@@UEAA@XZ=C:/Windows/System32/DUI70.??1DUIXmlParser@DirectUI@@UEAA@XZ @391
    ??1DialogElement@DirectUI@@UEAA@XZ=C:/Windows/System32/DUI70.??1DialogElement@DirectUI@@UEAA@XZ @392
    ??1DuiAccessible@DirectUI@@UEAA@XZ=C:/Windows/System32/DUI70.??1DuiAccessible@DirectUI@@UEAA@XZ @393
    ??1Edit@DirectUI@@UEAA@XZ=C:/Windows/System32/DUI70.??1Edit@DirectUI@@UEAA@XZ @394
    ??1Element@DirectUI@@UEAA@XZ=C:/Windows/System32/DUI70.??1Element@DirectUI@@UEAA@XZ @395
    ??1ElementProvider@DirectUI@@UEAA@XZ=C:/Windows/System32/DUI70.??1ElementProvider@DirectUI@@UEAA@XZ @396
    ??1ElementWithHWND@DirectUI@@UEAA@XZ=C:/Windows/System32/DUI70.??1ElementWithHWND@DirectUI@@UEAA@XZ @397
    ??1ExpandCollapseProvider@DirectUI@@UEAA@XZ=C:/Windows/System32/DUI70.??1ExpandCollapseProvider@DirectUI@@UEAA@XZ @398
    ??1Expandable@DirectUI@@UEAA@XZ=C:/Windows/System32/DUI70.??1Expandable@DirectUI@@UEAA@XZ @399
    ??1Expando@DirectUI@@UEAA@XZ=C:/Windows/System32/DUI70.??1Expando@DirectUI@@UEAA@XZ @400
    ??1ExpandoButtonGlyph@DirectUI@@UEAA@XZ=C:/Windows/System32/DUI70.??1ExpandoButtonGlyph@DirectUI@@UEAA@XZ @401
    ??1FillLayout@DirectUI@@UEAA@XZ=C:/Windows/System32/DUI70.??1FillLayout@DirectUI@@UEAA@XZ @402
    ??1FlowLayout@DirectUI@@UEAA@XZ=C:/Windows/System32/DUI70.??1FlowLayout@DirectUI@@UEAA@XZ @403
    ??1FontCheckOut@DirectUI@@QEAA@XZ=C:/Windows/System32/DUI70.??1FontCheckOut@DirectUI@@QEAA@XZ @404
    ??1GridItemProvider@DirectUI@@UEAA@XZ=C:/Windows/System32/DUI70.??1GridItemProvider@DirectUI@@UEAA@XZ @405
    ??1GridLayout@DirectUI@@UEAA@XZ=C:/Windows/System32/DUI70.??1GridLayout@DirectUI@@UEAA@XZ @406
    ??1GridProvider@DirectUI@@UEAA@XZ=C:/Windows/System32/DUI70.??1GridProvider@DirectUI@@UEAA@XZ @407
    ??1HWNDElement@DirectUI@@UEAA@XZ=C:/Windows/System32/DUI70.??1HWNDElement@DirectUI@@UEAA@XZ @408
    ??1HWNDElementAccessible@DirectUI@@UEAA@XZ=C:/Windows/System32/DUI70.??1HWNDElementAccessible@DirectUI@@UEAA@XZ @409
    ??1HWNDElementProvider@DirectUI@@UEAA@XZ=C:/Windows/System32/DUI70.??1HWNDElementProvider@DirectUI@@UEAA@XZ @410
    ??1HWNDHost@DirectUI@@UEAA@XZ=C:/Windows/System32/DUI70.??1HWNDHost@DirectUI@@UEAA@XZ @411
    ??1HWNDHostAccessible@DirectUI@@UEAA@XZ=C:/Windows/System32/DUI70.??1HWNDHostAccessible@DirectUI@@UEAA@XZ @412
    ??1HWNDHostClientAccessible@DirectUI@@UEAA@XZ=C:/Windows/System32/DUI70.??1HWNDHostClientAccessible@DirectUI@@UEAA@XZ @413
    ??1IDataEngine@DirectUI@@UEAA@XZ=C:/Windows/System32/DUI70.??1IDataEngine@DirectUI@@UEAA@XZ @414
    ??1IDataEntry@DirectUI@@UEAA@XZ=C:/Windows/System32/DUI70.??1IDataEntry@DirectUI@@UEAA@XZ @415
    ??1InvokeHelper@DirectUI@@UEAA@XZ=C:/Windows/System32/DUI70.??1InvokeHelper@DirectUI@@UEAA@XZ @416
    ??1InvokeProvider@DirectUI@@UEAA@XZ=C:/Windows/System32/DUI70.??1InvokeProvider@DirectUI@@UEAA@XZ @417
    ??1ItemList@DirectUI@@UEAA@XZ=C:/Windows/System32/DUI70.??1ItemList@DirectUI@@UEAA@XZ @418
    ??1Layout@DirectUI@@UEAA@XZ=C:/Windows/System32/DUI70.??1Layout@DirectUI@@UEAA@XZ @419
    ??1LinkedList@DirectUI@@QEAA@XZ=C:/Windows/System32/DUI70.??1LinkedList@DirectUI@@QEAA@XZ @420
    ??1Macro@DirectUI@@UEAA@XZ=C:/Windows/System32/DUI70.??1Macro@DirectUI@@UEAA@XZ @421
    ??1ModernProgressBar@DirectUI@@UEAA@XZ=C:/Windows/System32/DUI70.??1ModernProgressBar@DirectUI@@UEAA@XZ @422
    ??1ModernProgressRing@DirectUI@@UEAA@XZ=C:/Windows/System32/DUI70.??1ModernProgressRing@DirectUI@@UEAA@XZ @423
    ??1Movie@DirectUI@@UEAA@XZ=C:/Windows/System32/DUI70.??1Movie@DirectUI@@UEAA@XZ @424
    ??1NativeHWNDHost@DirectUI@@UEAA@XZ=C:/Windows/System32/DUI70.??1NativeHWNDHost@DirectUI@@UEAA@XZ @425
    ??1Navigator@DirectUI@@UEAA@XZ=C:/Windows/System32/DUI70.??1Navigator@DirectUI@@UEAA@XZ @426
    ??1NineGridLayout@DirectUI@@UEAA@XZ=C:/Windows/System32/DUI70.??1NineGridLayout@DirectUI@@UEAA@XZ @427
    ??1PText@DirectUI@@UEAA@XZ=C:/Windows/System32/DUI70.??1PText@DirectUI@@UEAA@XZ @428
    ??1Page@DirectUI@@UEAA@XZ=C:/Windows/System32/DUI70.??1Page@DirectUI@@UEAA@XZ @429
    ??1Pages@DirectUI@@UEAA@XZ=C:/Windows/System32/DUI70.??1Pages@DirectUI@@UEAA@XZ @430
    ??1Progress@DirectUI@@UEAA@XZ=C:/Windows/System32/DUI70.??1Progress@DirectUI@@UEAA@XZ @431
    ??1Proxy@DirectUI@@UEAA@XZ=C:/Windows/System32/DUI70.??1Proxy@DirectUI@@UEAA@XZ @432
    ??1PushButton@DirectUI@@UEAA@XZ=C:/Windows/System32/DUI70.??1PushButton@DirectUI@@UEAA@XZ @433
    ??1RadioButtonGlyph@DirectUI@@UEAA@XZ=C:/Windows/System32/DUI70.??1RadioButtonGlyph@DirectUI@@UEAA@XZ @434
    ??1RangeValueProvider@DirectUI@@UEAA@XZ=C:/Windows/System32/DUI70.??1RangeValueProvider@DirectUI@@UEAA@XZ @435
    ??1RefPointElement@DirectUI@@UEAA@XZ=C:/Windows/System32/DUI70.??1RefPointElement@DirectUI@@UEAA@XZ @436
    ??1RefcountBase@DirectUI@@UEAA@XZ=C:/Windows/System32/DUI70.??1RefcountBase@DirectUI@@UEAA@XZ @437
    ??1RepeatButton@DirectUI@@UEAA@XZ=C:/Windows/System32/DUI70.??1RepeatButton@DirectUI@@UEAA@XZ @438
    ??1Repeater@DirectUI@@UEAA@XZ=C:/Windows/System32/DUI70.??1Repeater@DirectUI@@UEAA@XZ @439
    ??1ResourceModuleHandles@DirectUI@@QEAA@XZ=C:/Windows/System32/DUI70.??1ResourceModuleHandles@DirectUI@@QEAA@XZ @440
    ??1RichText@DirectUI@@UEAA@XZ=C:/Windows/System32/DUI70.??1RichText@DirectUI@@UEAA@XZ @441
    ??1RowLayout@DirectUI@@UEAA@XZ=C:/Windows/System32/DUI70.??1RowLayout@DirectUI@@UEAA@XZ @442
    ??1ScrollBar@DirectUI@@UEAA@XZ=C:/Windows/System32/DUI70.??1ScrollBar@DirectUI@@UEAA@XZ @443
    ??1ScrollItemProvider@DirectUI@@UEAA@XZ=C:/Windows/System32/DUI70.??1ScrollItemProvider@DirectUI@@UEAA@XZ @444
    ??1ScrollProvider@DirectUI@@UEAA@XZ=C:/Windows/System32/DUI70.??1ScrollProvider@DirectUI@@UEAA@XZ @445
    ??1ScrollViewer@DirectUI@@UEAA@XZ=C:/Windows/System32/DUI70.??1ScrollViewer@DirectUI@@UEAA@XZ @446
    ??1SelectionItemProvider@DirectUI@@UEAA@XZ=C:/Windows/System32/DUI70.??1SelectionItemProvider@DirectUI@@UEAA@XZ @447
    ??1SelectionProvider@DirectUI@@UEAA@XZ=C:/Windows/System32/DUI70.??1SelectionProvider@DirectUI@@UEAA@XZ @448
    ??1Selector@DirectUI@@UEAA@XZ=C:/Windows/System32/DUI70.??1Selector@DirectUI@@UEAA@XZ @449
    ??1SelectorNoDefault@DirectUI@@UEAA@XZ=C:/Windows/System32/DUI70.??1SelectorNoDefault@DirectUI@@UEAA@XZ @450
    ??1ShellBorderLayout@DirectUI@@UEAA@XZ=C:/Windows/System32/DUI70.??1ShellBorderLayout@DirectUI@@UEAA@XZ @451
    ??1StyledScrollViewer@DirectUI@@UEAA@XZ=C:/Windows/System32/DUI70.??1StyledScrollViewer@DirectUI@@UEAA@XZ @452
    ??1Surface@DirectUI@@UEAA@XZ=C:/Windows/System32/DUI70.??1Surface@DirectUI@@UEAA@XZ @453
    ??1TableItemProvider@DirectUI@@UEAA@XZ=C:/Windows/System32/DUI70.??1TableItemProvider@DirectUI@@UEAA@XZ @454
    ??1TableLayout@DirectUI@@UEAA@XZ=C:/Windows/System32/DUI70.??1TableLayout@DirectUI@@UEAA@XZ @455
    ??1TableProvider@DirectUI@@UEAA@XZ=C:/Windows/System32/DUI70.??1TableProvider@DirectUI@@UEAA@XZ @456
    ??1TaskPage@DirectUI@@UEAA@XZ=C:/Windows/System32/DUI70.??1TaskPage@DirectUI@@UEAA@XZ @457
    ??1TextGraphic@DirectUI@@UEAA@XZ=C:/Windows/System32/DUI70.??1TextGraphic@DirectUI@@UEAA@XZ @458
    ??1Thumb@DirectUI@@UEAA@XZ=C:/Windows/System32/DUI70.??1Thumb@DirectUI@@UEAA@XZ @459
    ??1ToggleProvider@DirectUI@@UEAA@XZ=C:/Windows/System32/DUI70.??1ToggleProvider@DirectUI@@UEAA@XZ @460
    ??1TouchButton@DirectUI@@UEAA@XZ=C:/Windows/System32/DUI70.??1TouchButton@DirectUI@@UEAA@XZ @461
    ??1TouchCheckBox@DirectUI@@UEAA@XZ=C:/Windows/System32/DUI70.??1TouchCheckBox@DirectUI@@UEAA@XZ @462
    ??1TouchCheckBoxGlyph@DirectUI@@UEAA@XZ=C:/Windows/System32/DUI70.??1TouchCheckBoxGlyph@DirectUI@@UEAA@XZ @463
    ??1TouchHWNDElement@DirectUI@@UEAA@XZ=C:/Windows/System32/DUI70.??1TouchHWNDElement@DirectUI@@UEAA@XZ @464
    ??1TouchHyperLink@DirectUI@@UEAA@XZ=C:/Windows/System32/DUI70.??1TouchHyperLink@DirectUI@@UEAA@XZ @465
    ??1TouchScrollBar@DirectUI@@UEAA@XZ=C:/Windows/System32/DUI70.??1TouchScrollBar@DirectUI@@UEAA@XZ @466
    ??1TouchSelect@DirectUI@@UEAA@XZ=C:/Windows/System32/DUI70.??1TouchSelect@DirectUI@@UEAA@XZ @467
    ??1TouchSelectItem@DirectUI@@UEAA@XZ=C:/Windows/System32/DUI70.??1TouchSelectItem@DirectUI@@UEAA@XZ @468
    ??1UnknownElement@DirectUI@@UEAA@XZ=C:/Windows/System32/DUI70.??1UnknownElement@DirectUI@@UEAA@XZ @469
    ??1ValueProvider@DirectUI@@UEAA@XZ=C:/Windows/System32/DUI70.??1ValueProvider@DirectUI@@UEAA@XZ @470
    ??1VerticalFlowLayout@DirectUI@@UEAA@XZ=C:/Windows/System32/DUI70.??1VerticalFlowLayout@DirectUI@@UEAA@XZ @471
    ??1Viewer@DirectUI@@UEAA@XZ=C:/Windows/System32/DUI70.??1Viewer@DirectUI@@UEAA@XZ @472
    ??1XBaby@DirectUI@@UEAA@XZ=C:/Windows/System32/DUI70.??1XBaby@DirectUI@@UEAA@XZ @473
    ??1XElement@DirectUI@@UEAA@XZ=C:/Windows/System32/DUI70.??1XElement@DirectUI@@UEAA@XZ @474
    ??1XHost@DirectUI@@QEAA@XZ=C:/Windows/System32/DUI70.??1XHost@DirectUI@@QEAA@XZ @475
    ??1XProvider@DirectUI@@UEAA@XZ=C:/Windows/System32/DUI70.??1XProvider@DirectUI@@UEAA@XZ @476
    ??4?$FunctionDefinition@H@DUIXmlParser@DirectUI@@QEAAAEAU012@$$QEAU012@@Z=C:/Windows/System32/DUI70.??4?$FunctionDefinition@H@DUIXmlParser@DirectUI@@QEAAAEAU012@$$QEAU012@@Z @477
    ??4?$FunctionDefinition@H@DUIXmlParser@DirectUI@@QEAAAEAU012@AEBU012@@Z=C:/Windows/System32/DUI70.??4?$FunctionDefinition@H@DUIXmlParser@DirectUI@@QEAAAEAU012@AEBU012@@Z @478
    ??4?$FunctionDefinition@K@DUIXmlParser@DirectUI@@QEAAAEAU012@$$QEAU012@@Z=C:/Windows/System32/DUI70.??4?$FunctionDefinition@K@DUIXmlParser@DirectUI@@QEAAAEAU012@$$QEAU012@@Z @479
    ??4?$FunctionDefinition@K@DUIXmlParser@DirectUI@@QEAAAEAU012@AEBU012@@Z=C:/Windows/System32/DUI70.??4?$FunctionDefinition@K@DUIXmlParser@DirectUI@@QEAAAEAU012@AEBU012@@Z @480
    ??4?$FunctionDefinition@PEAVValue@DirectUI@@@DUIXmlParser@DirectUI@@QEAAAEAU012@$$QEAU012@@Z=C:/Windows/System32/DUI70.??4?$FunctionDefinition@PEAVValue@DirectUI@@@DUIXmlParser@DirectUI@@QEAAAEAU012@$$QEAU012@@Z @481
    ??4?$FunctionDefinition@PEAVValue@DirectUI@@@DUIXmlParser@DirectUI@@QEAAAEAU012@AEBU012@@Z=C:/Windows/System32/DUI70.??4?$FunctionDefinition@PEAVValue@DirectUI@@@DUIXmlParser@DirectUI@@QEAAAEAU012@AEBU012@@Z @482
    ??4?$FunctionDefinition@UScaledRECT@DirectUI@@@DUIXmlParser@DirectUI@@QEAAAEAU012@$$QEAU012@@Z=C:/Windows/System32/DUI70.??4?$FunctionDefinition@UScaledRECT@DirectUI@@@DUIXmlParser@DirectUI@@QEAAAEAU012@$$QEAU012@@Z @483
    ??4?$FunctionDefinition@UScaledRECT@DirectUI@@@DUIXmlParser@DirectUI@@QEAAAEAU012@AEBU012@@Z=C:/Windows/System32/DUI70.??4?$FunctionDefinition@UScaledRECT@DirectUI@@@DUIXmlParser@DirectUI@@QEAAAEAU012@AEBU012@@Z @484
    ??4?$FunctionDefinition@UScaledSIZE@DirectUI@@@DUIXmlParser@DirectUI@@QEAAAEAU012@$$QEAU012@@Z=C:/Windows/System32/DUI70.??4?$FunctionDefinition@UScaledSIZE@DirectUI@@@DUIXmlParser@DirectUI@@QEAAAEAU012@$$QEAU012@@Z @485
    ??4?$FunctionDefinition@UScaledSIZE@DirectUI@@@DUIXmlParser@DirectUI@@QEAAAEAU012@AEBU012@@Z=C:/Windows/System32/DUI70.??4?$FunctionDefinition@UScaledSIZE@DirectUI@@@DUIXmlParser@DirectUI@@QEAAAEAU012@AEBU012@@Z @486
    ??4ACCESSIBLEROLE@AccessibleButton@DirectUI@@QEAAAEAU012@$$QEAU012@@Z=C:/Windows/System32/DUI70.??4ACCESSIBLEROLE@AccessibleButton@DirectUI@@QEAAAEAU012@$$QEAU012@@Z @487
    ??4ACCESSIBLEROLE@AccessibleButton@DirectUI@@QEAAAEAU012@AEBU012@@Z=C:/Windows/System32/DUI70.??4ACCESSIBLEROLE@AccessibleButton@DirectUI@@QEAAAEAU012@AEBU012@@Z @488
    ??4AccessibleButton@DirectUI@@QEAAAEAV01@$$QEAV01@@Z=C:/Windows/System32/DUI70.??4AccessibleButton@DirectUI@@QEAAAEAV01@$$QEAV01@@Z @489
    ??4AccessibleButton@DirectUI@@QEAAAEAV01@AEBV01@@Z=C:/Windows/System32/DUI70.??4AccessibleButton@DirectUI@@QEAAAEAV01@AEBV01@@Z @490
    ??4AnimationStrip@DirectUI@@QEAAAEAV01@AEBV01@@Z=C:/Windows/System32/DUI70.??4AnimationStrip@DirectUI@@QEAAAEAV01@AEBV01@@Z @491
    ??4AutoButton@DirectUI@@QEAAAEAV01@$$QEAV01@@Z=C:/Windows/System32/DUI70.??4AutoButton@DirectUI@@QEAAAEAV01@$$QEAV01@@Z @492
    ??4AutoButton@DirectUI@@QEAAAEAV01@AEBV01@@Z=C:/Windows/System32/DUI70.??4AutoButton@DirectUI@@QEAAAEAV01@AEBV01@@Z @493
    ??4AutoLock@DirectUI@@QEAAAEAV01@AEBV01@@Z=C:/Windows/System32/DUI70.??4AutoLock@DirectUI@@QEAAAEAV01@AEBV01@@Z @494
    ??4AutoThread@DirectUI@@QEAAAEAV01@AEBV01@@Z=C:/Windows/System32/DUI70.??4AutoThread@DirectUI@@QEAAAEAV01@AEBV01@@Z @495
    ??4AutoVariant@DirectUI@@QEAAAEAV01@AEBV01@@Z=C:/Windows/System32/DUI70.??4AutoVariant@DirectUI@@QEAAAEAV01@AEBV01@@Z @496
    ??4BaseScrollBar@DirectUI@@QEAAAEAV01@$$QEAV01@@Z=C:/Windows/System32/DUI70.??4BaseScrollBar@DirectUI@@QEAAAEAV01@$$QEAV01@@Z @497
    ??4BaseScrollBar@DirectUI@@QEAAAEAV01@AEBV01@@Z=C:/Windows/System32/DUI70.??4BaseScrollBar@DirectUI@@QEAAAEAV01@AEBV01@@Z @498
    ??4BaseScrollViewer@DirectUI@@QEAAAEAV01@AEBV01@@Z=C:/Windows/System32/DUI70.??4BaseScrollViewer@DirectUI@@QEAAAEAV01@AEBV01@@Z @499
    ??4Bind@DirectUI@@QEAAAEAV01@$$QEAV01@@Z=C:/Windows/System32/DUI70.??4Bind@DirectUI@@QEAAAEAV01@$$QEAV01@@Z @500
    ??4Bind@DirectUI@@QEAAAEAV01@AEBV01@@Z=C:/Windows/System32/DUI70.??4Bind@DirectUI@@QEAAAEAV01@AEBV01@@Z @501
    ??4BorderLayout@DirectUI@@QEAAAEAV01@AEBV01@@Z=C:/Windows/System32/DUI70.??4BorderLayout@DirectUI@@QEAAAEAV01@AEBV01@@Z @502
    ??4Browser@DirectUI@@QEAAAEAV01@$$QEAV01@@Z=C:/Windows/System32/DUI70.??4Browser@DirectUI@@QEAAAEAV01@$$QEAV01@@Z @503
    ??4Browser@DirectUI@@QEAAAEAV01@AEBV01@@Z=C:/Windows/System32/DUI70.??4Browser@DirectUI@@QEAAAEAV01@AEBV01@@Z @504
    ??4BrowserSelectionProxy@DirectUI@@QEAAAEAV01@$$QEAV01@@Z=C:/Windows/System32/DUI70.??4BrowserSelectionProxy@DirectUI@@QEAAAEAV01@$$QEAV01@@Z @505
    ??4BrowserSelectionProxy@DirectUI@@QEAAAEAV01@AEBV01@@Z=C:/Windows/System32/DUI70.??4BrowserSelectionProxy@DirectUI@@QEAAAEAV01@AEBV01@@Z @506
    ??4Button@DirectUI@@QEAAAEAV01@AEBV01@@Z=C:/Windows/System32/DUI70.??4Button@DirectUI@@QEAAAEAV01@AEBV01@@Z @507
    ??4CCAVI@DirectUI@@QEAAAEAV01@$$QEAV01@@Z=C:/Windows/System32/DUI70.??4CCAVI@DirectUI@@QEAAAEAV01@$$QEAV01@@Z @508
    ??4CCAVI@DirectUI@@QEAAAEAV01@AEBV01@@Z=C:/Windows/System32/DUI70.??4CCAVI@DirectUI@@QEAAAEAV01@AEBV01@@Z @509
    ??4CCBase@DirectUI@@QEAAAEAV01@AEBV01@@Z=C:/Windows/System32/DUI70.??4CCBase@DirectUI@@QEAAAEAV01@AEBV01@@Z @510
    ??4CCBaseCheckRadioButton@DirectUI@@QEAAAEAV01@$$QEAV01@@Z=C:/Windows/System32/DUI70.??4CCBaseCheckRadioButton@DirectUI@@QEAAAEAV01@$$QEAV01@@Z @511
    ??4CCBaseCheckRadioButton@DirectUI@@QEAAAEAV01@AEBV01@@Z=C:/Windows/System32/DUI70.??4CCBaseCheckRadioButton@DirectUI@@QEAAAEAV01@AEBV01@@Z @512
    ??4CCBaseScrollBar@DirectUI@@QEAAAEAV01@$$QEAV01@@Z=C:/Windows/System32/DUI70.??4CCBaseScrollBar@DirectUI@@QEAAAEAV01@$$QEAV01@@Z @513
    ??4CCBaseScrollBar@DirectUI@@QEAAAEAV01@AEBV01@@Z=C:/Windows/System32/DUI70.??4CCBaseScrollBar@DirectUI@@QEAAAEAV01@AEBV01@@Z @514
    ??4CCCheckBox@DirectUI@@QEAAAEAV01@$$QEAV01@@Z=C:/Windows/System32/DUI70.??4CCCheckBox@DirectUI@@QEAAAEAV01@$$QEAV01@@Z @515
    ??4CCCheckBox@DirectUI@@QEAAAEAV01@AEBV01@@Z=C:/Windows/System32/DUI70.??4CCCheckBox@DirectUI@@QEAAAEAV01@AEBV01@@Z @516
    ??4CCCommandLink@DirectUI@@QEAAAEAV01@$$QEAV01@@Z=C:/Windows/System32/DUI70.??4CCCommandLink@DirectUI@@QEAAAEAV01@$$QEAV01@@Z @517
    ??4CCCommandLink@DirectUI@@QEAAAEAV01@AEBV01@@Z=C:/Windows/System32/DUI70.??4CCCommandLink@DirectUI@@QEAAAEAV01@AEBV01@@Z @518
    ??4CCHScrollBar@DirectUI@@QEAAAEAV01@$$QEAV01@@Z=C:/Windows/System32/DUI70.??4CCHScrollBar@DirectUI@@QEAAAEAV01@$$QEAV01@@Z @519
    ??4CCHScrollBar@DirectUI@@QEAAAEAV01@AEBV01@@Z=C:/Windows/System32/DUI70.??4CCHScrollBar@DirectUI@@QEAAAEAV01@AEBV01@@Z @520
    ??4CCListBox@DirectUI@@QEAAAEAV01@$$QEAV01@@Z=C:/Windows/System32/DUI70.??4CCListBox@DirectUI@@QEAAAEAV01@$$QEAV01@@Z @521
    ??4CCListBox@DirectUI@@QEAAAEAV01@AEBV01@@Z=C:/Windows/System32/DUI70.??4CCListBox@DirectUI@@QEAAAEAV01@AEBV01@@Z @522
    ??4CCListView@DirectUI@@QEAAAEAV01@$$QEAV01@@Z=C:/Windows/System32/DUI70.??4CCListView@DirectUI@@QEAAAEAV01@$$QEAV01@@Z @523
    ??4CCListView@DirectUI@@QEAAAEAV01@AEBV01@@Z=C:/Windows/System32/DUI70.??4CCListView@DirectUI@@QEAAAEAV01@AEBV01@@Z @524
    ??4CCProgressBar@DirectUI@@QEAAAEAV01@$$QEAV01@@Z=C:/Windows/System32/DUI70.??4CCProgressBar@DirectUI@@QEAAAEAV01@$$QEAV01@@Z @525
    ??4CCProgressBar@DirectUI@@QEAAAEAV01@AEBV01@@Z=C:/Windows/System32/DUI70.??4CCProgressBar@DirectUI@@QEAAAEAV01@AEBV01@@Z @526
    ??4CCPushButton@DirectUI@@QEAAAEAV01@$$QEAV01@@Z=C:/Windows/System32/DUI70.??4CCPushButton@DirectUI@@QEAAAEAV01@$$QEAV01@@Z @527
    ??4CCPushButton@DirectUI@@QEAAAEAV01@AEBV01@@Z=C:/Windows/System32/DUI70.??4CCPushButton@DirectUI@@QEAAAEAV01@AEBV01@@Z @528
    ??4CCRadioButton@DirectUI@@QEAAAEAV01@$$QEAV01@@Z=C:/Windows/System32/DUI70.??4CCRadioButton@DirectUI@@QEAAAEAV01@$$QEAV01@@Z @529
    ??4CCRadioButton@DirectUI@@QEAAAEAV01@AEBV01@@Z=C:/Windows/System32/DUI70.??4CCRadioButton@DirectUI@@QEAAAEAV01@AEBV01@@Z @530
    ??4CCSysLink@DirectUI@@QEAAAEAV01@$$QEAV01@@Z=C:/Windows/System32/DUI70.??4CCSysLink@DirectUI@@QEAAAEAV01@$$QEAV01@@Z @531
    ??4CCSysLink@DirectUI@@QEAAAEAV01@AEBV01@@Z=C:/Windows/System32/DUI70.??4CCSysLink@DirectUI@@QEAAAEAV01@AEBV01@@Z @532
    ??4CCTrackBar@DirectUI@@QEAAAEAV01@$$QEAV01@@Z=C:/Windows/System32/DUI70.??4CCTrackBar@DirectUI@@QEAAAEAV01@$$QEAV01@@Z @533
    ??4CCTrackBar@DirectUI@@QEAAAEAV01@AEBV01@@Z=C:/Windows/System32/DUI70.??4CCTrackBar@DirectUI@@QEAAAEAV01@AEBV01@@Z @534
    ??4CCTreeView@DirectUI@@QEAAAEAV01@$$QEAV01@@Z=C:/Windows/System32/DUI70.??4CCTreeView@DirectUI@@QEAAAEAV01@$$QEAV01@@Z @535
    ??4CCTreeView@DirectUI@@QEAAAEAV01@AEBV01@@Z=C:/Windows/System32/DUI70.??4CCTreeView@DirectUI@@QEAAAEAV01@AEBV01@@Z @536
    ??4CCVScrollBar@DirectUI@@QEAAAEAV01@$$QEAV01@@Z=C:/Windows/System32/DUI70.??4CCVScrollBar@DirectUI@@QEAAAEAV01@$$QEAV01@@Z @537
    ??4CCVScrollBar@DirectUI@@QEAAAEAV01@AEBV01@@Z=C:/Windows/System32/DUI70.??4CCVScrollBar@DirectUI@@QEAAAEAV01@AEBV01@@Z @538
    ??4CallstackTracker@DirectUI@@QEAAAEAV01@AEBV01@@Z=C:/Windows/System32/DUI70.??4CallstackTracker@DirectUI@@QEAAAEAV01@AEBV01@@Z @539
    ??4CheckBoxGlyph@DirectUI@@QEAAAEAV01@AEBV01@@Z=C:/Windows/System32/DUI70.??4CheckBoxGlyph@DirectUI@@QEAAAEAV01@AEBV01@@Z @540
    ??4ClassInfoBase@DirectUI@@QEAAAEAV01@AEBV01@@Z=C:/Windows/System32/DUI70.??4ClassInfoBase@DirectUI@@QEAAAEAV01@AEBV01@@Z @541
    ??4Clipper@DirectUI@@QEAAAEAV01@$$QEAV01@@Z=C:/Windows/System32/DUI70.??4Clipper@DirectUI@@QEAAAEAV01@$$QEAV01@@Z @542
    ??4Clipper@DirectUI@@QEAAAEAV01@AEBV01@@Z=C:/Windows/System32/DUI70.??4Clipper@DirectUI@@QEAAAEAV01@AEBV01@@Z @543
    ??4Combobox@DirectUI@@QEAAAEAV01@AEBV01@@Z=C:/Windows/System32/DUI70.??4Combobox@DirectUI@@QEAAAEAV01@AEBV01@@Z @544
    ??4CritSecLock@DirectUI@@QEAAAEAV01@AEBV01@@Z=C:/Windows/System32/DUI70.??4CritSecLock@DirectUI@@QEAAAEAV01@AEBV01@@Z @545
    ??4DCSurface@DirectUI@@QEAAAEAV01@AEBV01@@Z=C:/Windows/System32/DUI70.??4DCSurface@DirectUI@@QEAAAEAV01@AEBV01@@Z @546
    ??4DUIFactory@DirectUI@@QEAAAEAV01@AEBV01@@Z=C:/Windows/System32/DUI70.??4DUIFactory@DirectUI@@QEAAAEAV01@AEBV01@@Z @547
    ??4DUIXmlParser@DirectUI@@QEAAAEAV01@AEBV01@@Z=C:/Windows/System32/DUI70.??4DUIXmlParser@DirectUI@@QEAAAEAV01@AEBV01@@Z @548
    ??4DialogElement@DirectUI@@QEAAAEAV01@$$QEAV01@@Z=C:/Windows/System32/DUI70.??4DialogElement@DirectUI@@QEAAAEAV01@$$QEAV01@@Z @549
    ??4DialogElement@DirectUI@@QEAAAEAV01@AEBV01@@Z=C:/Windows/System32/DUI70.??4DialogElement@DirectUI@@QEAAAEAV01@AEBV01@@Z @550
    ??4DialogElementCore@DirectUI@@QEAAAEAV01@$$QEAV01@@Z=C:/Windows/System32/DUI70.??4DialogElementCore@DirectUI@@QEAAAEAV01@$$QEAV01@@Z @551
    ??4DialogElementCore@DirectUI@@QEAAAEAV01@AEBV01@@Z=C:/Windows/System32/DUI70.??4DialogElementCore@DirectUI@@QEAAAEAV01@AEBV01@@Z @552
    ??4DuiNavigate@DirectUI@@QEAAAEAV01@$$QEAV01@@Z=C:/Windows/System32/DUI70.??4DuiNavigate@DirectUI@@QEAAAEAV01@$$QEAV01@@Z @553
    ??4DuiNavigate@DirectUI@@QEAAAEAV01@AEBV01@@Z=C:/Windows/System32/DUI70.??4DuiNavigate@DirectUI@@QEAAAEAV01@AEBV01@@Z @554
    ??4Edit@DirectUI@@QEAAAEAV01@AEBV01@@Z=C:/Windows/System32/DUI70.??4Edit@DirectUI@@QEAAAEAV01@AEBV01@@Z @555
    ??4Element@DirectUI@@QEAAAEAV01@AEBV01@@Z=C:/Windows/System32/DUI70.??4Element@DirectUI@@QEAAAEAV01@AEBV01@@Z @556
    ??4ElementProviderManager@DirectUI@@QEAAAEAV01@$$QEAV01@@Z=C:/Windows/System32/DUI70.??4ElementProviderManager@DirectUI@@QEAAAEAV01@$$QEAV01@@Z @557
    ??4ElementProviderManager@DirectUI@@QEAAAEAV01@AEBV01@@Z=C:/Windows/System32/DUI70.??4ElementProviderManager@DirectUI@@QEAAAEAV01@AEBV01@@Z @558
    ??4ElementProxy@DirectUI@@QEAAAEAV01@$$QEAV01@@Z=C:/Windows/System32/DUI70.??4ElementProxy@DirectUI@@QEAAAEAV01@$$QEAV01@@Z @559
    ??4ElementProxy@DirectUI@@QEAAAEAV01@AEBV01@@Z=C:/Windows/System32/DUI70.??4ElementProxy@DirectUI@@QEAAAEAV01@AEBV01@@Z @560
    ??4ElementWithHWND@DirectUI@@QEAAAEAV01@$$QEAV01@@Z=C:/Windows/System32/DUI70.??4ElementWithHWND@DirectUI@@QEAAAEAV01@$$QEAV01@@Z @561
    ??4ElementWithHWND@DirectUI@@QEAAAEAV01@AEBV01@@Z=C:/Windows/System32/DUI70.??4ElementWithHWND@DirectUI@@QEAAAEAV01@AEBV01@@Z @562
    ??4EventManager@DirectUI@@QEAAAEAV01@$$QEAV01@@Z=C:/Windows/System32/DUI70.??4EventManager@DirectUI@@QEAAAEAV01@$$QEAV01@@Z @563
    ??4EventManager@DirectUI@@QEAAAEAV01@AEBV01@@Z=C:/Windows/System32/DUI70.??4EventManager@DirectUI@@QEAAAEAV01@AEBV01@@Z @564
    ??4ExpandCollapseProxy@DirectUI@@QEAAAEAV01@$$QEAV01@@Z=C:/Windows/System32/DUI70.??4ExpandCollapseProxy@DirectUI@@QEAAAEAV01@$$QEAV01@@Z @565
    ??4ExpandCollapseProxy@DirectUI@@QEAAAEAV01@AEBV01@@Z=C:/Windows/System32/DUI70.??4ExpandCollapseProxy@DirectUI@@QEAAAEAV01@AEBV01@@Z @566
    ??4Expandable@DirectUI@@QEAAAEAV01@$$QEAV01@@Z=C:/Windows/System32/DUI70.??4Expandable@DirectUI@@QEAAAEAV01@$$QEAV01@@Z @567
    ??4Expandable@DirectUI@@QEAAAEAV01@AEBV01@@Z=C:/Windows/System32/DUI70.??4Expandable@DirectUI@@QEAAAEAV01@AEBV01@@Z @568
    ??4Expando@DirectUI@@QEAAAEAV01@$$QEAV01@@Z=C:/Windows/System32/DUI70.??4Expando@DirectUI@@QEAAAEAV01@$$QEAV01@@Z @569
    ??4Expando@DirectUI@@QEAAAEAV01@AEBV01@@Z=C:/Windows/System32/DUI70.??4Expando@DirectUI@@QEAAAEAV01@AEBV01@@Z @570
    ??4ExpandoButtonGlyph@DirectUI@@QEAAAEAV01@AEBV01@@Z=C:/Windows/System32/DUI70.??4ExpandoButtonGlyph@DirectUI@@QEAAAEAV01@AEBV01@@Z @571
    ??4Expression@DirectUI@@QEAAAEAV01@$$QEAV01@@Z=C:/Windows/System32/DUI70.??4Expression@DirectUI@@QEAAAEAV01@$$QEAV01@@Z @572
    ??4Expression@DirectUI@@QEAAAEAV01@AEBV01@@Z=C:/Windows/System32/DUI70.??4Expression@DirectUI@@QEAAAEAV01@AEBV01@@Z @573
    ??4FillLayout@DirectUI@@QEAAAEAV01@AEBV01@@Z=C:/Windows/System32/DUI70.??4FillLayout@DirectUI@@QEAAAEAV01@AEBV01@@Z @574
    ??4FlowLayout@DirectUI@@QEAAAEAV01@AEBV01@@Z=C:/Windows/System32/DUI70.??4FlowLayout@DirectUI@@QEAAAEAV01@AEBV01@@Z @575
    ??4FontCache@DirectUI@@QEAAAEAV01@$$QEAV01@@Z=C:/Windows/System32/DUI70.??4FontCache@DirectUI@@QEAAAEAV01@$$QEAV01@@Z @576
    ??4FontCache@DirectUI@@QEAAAEAV01@AEBV01@@Z=C:/Windows/System32/DUI70.??4FontCache@DirectUI@@QEAAAEAV01@AEBV01@@Z @577
    ??4FontCheckOut@DirectUI@@QEAAAEAV01@AEBV01@@Z=C:/Windows/System32/DUI70.??4FontCheckOut@DirectUI@@QEAAAEAV01@AEBV01@@Z @578
    ??4GridItemProxy@DirectUI@@QEAAAEAV01@$$QEAV01@@Z=C:/Windows/System32/DUI70.??4GridItemProxy@DirectUI@@QEAAAEAV01@$$QEAV01@@Z @579
    ??4GridItemProxy@DirectUI@@QEAAAEAV01@AEBV01@@Z=C:/Windows/System32/DUI70.??4GridItemProxy@DirectUI@@QEAAAEAV01@AEBV01@@Z @580
    ??4GridLayout@DirectUI@@QEAAAEAV01@AEBV01@@Z=C:/Windows/System32/DUI70.??4GridLayout@DirectUI@@QEAAAEAV01@AEBV01@@Z @581
    ??4GridProxy@DirectUI@@QEAAAEAV01@$$QEAV01@@Z=C:/Windows/System32/DUI70.??4GridProxy@DirectUI@@QEAAAEAV01@$$QEAV01@@Z @582
    ??4GridProxy@DirectUI@@QEAAAEAV01@AEBV01@@Z=C:/Windows/System32/DUI70.??4GridProxy@DirectUI@@QEAAAEAV01@AEBV01@@Z @583
    ??4HWNDElement@DirectUI@@QEAAAEAV01@AEBV01@@Z=C:/Windows/System32/DUI70.??4HWNDElement@DirectUI@@QEAAAEAV01@AEBV01@@Z @584
    ??4HWNDElementProxy@DirectUI@@QEAAAEAV01@$$QEAV01@@Z=C:/Windows/System32/DUI70.??4HWNDElementProxy@DirectUI@@QEAAAEAV01@$$QEAV01@@Z @585
    ??4HWNDElementProxy@DirectUI@@QEAAAEAV01@AEBV01@@Z=C:/Windows/System32/DUI70.??4HWNDElementProxy@DirectUI@@QEAAAEAV01@AEBV01@@Z @586
    ??4HWNDHost@DirectUI@@QEAAAEAV01@AEBV01@@Z=C:/Windows/System32/DUI70.??4HWNDHost@DirectUI@@QEAAAEAV01@AEBV01@@Z @587
    ??4IDataEngine@DirectUI@@QEAAAEAU01@AEBU01@@Z=C:/Windows/System32/DUI70.??4IDataEngine@DirectUI@@QEAAAEAU01@AEBU01@@Z @588
    ??4IDataEntry@DirectUI@@QEAAAEAU01@AEBU01@@Z=C:/Windows/System32/DUI70.??4IDataEntry@DirectUI@@QEAAAEAU01@AEBU01@@Z @589
    ??4IProvider@DirectUI@@QEAAAEAV01@$$QEAV01@@Z=C:/Windows/System32/DUI70.??4IProvider@DirectUI@@QEAAAEAV01@$$QEAV01@@Z @590
    ??4IProvider@DirectUI@@QEAAAEAV01@AEBV01@@Z=C:/Windows/System32/DUI70.??4IProvider@DirectUI@@QEAAAEAV01@AEBV01@@Z @591
    ??4ISBLeak@DirectUI@@QEAAAEAU01@$$QEAU01@@Z=C:/Windows/System32/DUI70.??4ISBLeak@DirectUI@@QEAAAEAU01@$$QEAU01@@Z @592
    ??4ISBLeak@DirectUI@@QEAAAEAU01@AEBU01@@Z=C:/Windows/System32/DUI70.??4ISBLeak@DirectUI@@QEAAAEAU01@AEBU01@@Z @593
    ??4IXElementCP@DirectUI@@QEAAAEAV01@$$QEAV01@@Z=C:/Windows/System32/DUI70.??4IXElementCP@DirectUI@@QEAAAEAV01@$$QEAV01@@Z @594
    ??4IXElementCP@DirectUI@@QEAAAEAV01@AEBV01@@Z=C:/Windows/System32/DUI70.??4IXElementCP@DirectUI@@QEAAAEAV01@AEBV01@@Z @595
    ??4IXProviderCP@DirectUI@@QEAAAEAV01@$$QEAV01@@Z=C:/Windows/System32/DUI70.??4IXProviderCP@DirectUI@@QEAAAEAV01@$$QEAV01@@Z @596
    ??4IXProviderCP@DirectUI@@QEAAAEAV01@AEBV01@@Z=C:/Windows/System32/DUI70.??4IXProviderCP@DirectUI@@QEAAAEAV01@AEBV01@@Z @597
    ??4InvokeManager@DirectUI@@QEAAAEAV01@$$QEAV01@@Z=C:/Windows/System32/DUI70.??4InvokeManager@DirectUI@@QEAAAEAV01@$$QEAV01@@Z @598
    ??4InvokeManager@DirectUI@@QEAAAEAV01@AEBV01@@Z=C:/Windows/System32/DUI70.??4InvokeManager@DirectUI@@QEAAAEAV01@AEBV01@@Z @599
    ??4InvokeProxy@DirectUI@@QEAAAEAV01@$$QEAV01@@Z=C:/Windows/System32/DUI70.??4InvokeProxy@DirectUI@@QEAAAEAV01@$$QEAV01@@Z @600
    ??4InvokeProxy@DirectUI@@QEAAAEAV01@AEBV01@@Z=C:/Windows/System32/DUI70.??4InvokeProxy@DirectUI@@QEAAAEAV01@AEBV01@@Z @601
    ??4Layout@DirectUI@@QEAAAEAV01@AEBV01@@Z=C:/Windows/System32/DUI70.??4Layout@DirectUI@@QEAAAEAV01@AEBV01@@Z @602
    ??4LinkedList@DirectUI@@QEAAAEAV01@AEBV01@@Z=C:/Windows/System32/DUI70.??4LinkedList@DirectUI@@QEAAAEAV01@AEBV01@@Z @603
    ??4LinkedListNode@DirectUI@@QEAAAEAV01@$$QEAV01@@Z=C:/Windows/System32/DUI70.??4LinkedListNode@DirectUI@@QEAAAEAV01@$$QEAV01@@Z @604
    ??4LinkedListNode@DirectUI@@QEAAAEAV01@AEBV01@@Z=C:/Windows/System32/DUI70.??4LinkedListNode@DirectUI@@QEAAAEAV01@AEBV01@@Z @605
    ??4Macro@DirectUI@@QEAAAEAV01@$$QEAV01@@Z=C:/Windows/System32/DUI70.??4Macro@DirectUI@@QEAAAEAV01@$$QEAV01@@Z @606
    ??4Macro@DirectUI@@QEAAAEAV01@AEBV01@@Z=C:/Windows/System32/DUI70.??4Macro@DirectUI@@QEAAAEAV01@AEBV01@@Z @607
    ??4ModernProgressBarRangeValueProxy@DirectUI@@QEAAAEAV01@$$QEAV01@@Z=C:/Windows/System32/DUI70.??4ModernProgressBarRangeValueProxy@DirectUI@@QEAAAEAV01@$$QEAV01@@Z @608
    ??4ModernProgressBarRangeValueProxy@DirectUI@@QEAAAEAV01@AEBV01@@Z=C:/Windows/System32/DUI70.??4ModernProgressBarRangeValueProxy@DirectUI@@QEAAAEAV01@AEBV01@@Z @609
    ??4Movie@DirectUI@@QEAAAEAV01@AEBV01@@Z=C:/Windows/System32/DUI70.??4Movie@DirectUI@@QEAAAEAV01@AEBV01@@Z @610
    ??4NativeHWNDHost@DirectUI@@QEAAAEAV01@AEBV01@@Z=C:/Windows/System32/DUI70.??4NativeHWNDHost@DirectUI@@QEAAAEAV01@AEBV01@@Z @611
    ??4NavReference@DirectUI@@QEAAAEAU01@$$QEAU01@@Z=C:/Windows/System32/DUI70.??4NavReference@DirectUI@@QEAAAEAU01@$$QEAU01@@Z @612
    ??4NavReference@DirectUI@@QEAAAEAU01@AEBU01@@Z=C:/Windows/System32/DUI70.??4NavReference@DirectUI@@QEAAAEAU01@AEBU01@@Z @613
    ??4NavScoring@DirectUI@@QEAAAEAU01@$$QEAU01@@Z=C:/Windows/System32/DUI70.??4NavScoring@DirectUI@@QEAAAEAU01@$$QEAU01@@Z @614
    ??4NavScoring@DirectUI@@QEAAAEAU01@AEBU01@@Z=C:/Windows/System32/DUI70.??4NavScoring@DirectUI@@QEAAAEAU01@AEBU01@@Z @615
    ??4Navigator@DirectUI@@QEAAAEAV01@$$QEAV01@@Z=C:/Windows/System32/DUI70.??4Navigator@DirectUI@@QEAAAEAV01@$$QEAV01@@Z @616
    ??4Navigator@DirectUI@@QEAAAEAV01@AEBV01@@Z=C:/Windows/System32/DUI70.??4Navigator@DirectUI@@QEAAAEAV01@AEBV01@@Z @617
    ??4NavigatorSelectionItemProxy@DirectUI@@QEAAAEAV01@$$QEAV01@@Z=C:/Windows/System32/DUI70.??4NavigatorSelectionItemProxy@DirectUI@@QEAAAEAV01@$$QEAV01@@Z @618
    ??4NavigatorSelectionItemProxy@DirectUI@@QEAAAEAV01@AEBV01@@Z=C:/Windows/System32/DUI70.??4NavigatorSelectionItemProxy@DirectUI@@QEAAAEAV01@AEBV01@@Z @619
    ??4NineGridLayout@DirectUI@@QEAAAEAV01@AEBV01@@Z=C:/Windows/System32/DUI70.??4NineGridLayout@DirectUI@@QEAAAEAV01@AEBV01@@Z @620
    ??4PText@DirectUI@@QEAAAEAV01@AEBV01@@Z=C:/Windows/System32/DUI70.??4PText@DirectUI@@QEAAAEAV01@AEBV01@@Z @621
    ??4PVLAnimation@DirectUI@@QEAAAEAV01@$$QEAV01@@Z=C:/Windows/System32/DUI70.??4PVLAnimation@DirectUI@@QEAAAEAV01@$$QEAV01@@Z @622
    ??4PVLAnimation@DirectUI@@QEAAAEAV01@AEBV01@@Z=C:/Windows/System32/DUI70.??4PVLAnimation@DirectUI@@QEAAAEAV01@AEBV01@@Z @623
    ??4Page@DirectUI@@QEAAAEAV01@$$QEAV01@@Z=C:/Windows/System32/DUI70.??4Page@DirectUI@@QEAAAEAV01@$$QEAV01@@Z @624
    ??4Page@DirectUI@@QEAAAEAV01@AEBV01@@Z=C:/Windows/System32/DUI70.??4Page@DirectUI@@QEAAAEAV01@AEBV01@@Z @625
    ??4Pages@DirectUI@@QEAAAEAV01@$$QEAV01@@Z=C:/Windows/System32/DUI70.??4Pages@DirectUI@@QEAAAEAV01@$$QEAV01@@Z @626
    ??4Pages@DirectUI@@QEAAAEAV01@AEBV01@@Z=C:/Windows/System32/DUI70.??4Pages@DirectUI@@QEAAAEAV01@AEBV01@@Z @627
    ??4Progress@DirectUI@@QEAAAEAV01@AEBV01@@Z=C:/Windows/System32/DUI70.??4Progress@DirectUI@@QEAAAEAV01@AEBV01@@Z @628
    ??4ProgressRangeValueProxy@DirectUI@@QEAAAEAV01@$$QEAV01@@Z=C:/Windows/System32/DUI70.??4ProgressRangeValueProxy@DirectUI@@QEAAAEAV01@$$QEAV01@@Z @629
    ??4ProgressRangeValueProxy@DirectUI@@QEAAAEAV01@AEBV01@@Z=C:/Windows/System32/DUI70.??4ProgressRangeValueProxy@DirectUI@@QEAAAEAV01@AEBV01@@Z @630
    ??4ProviderProxy@DirectUI@@QEAAAEAV01@$$QEAV01@@Z=C:/Windows/System32/DUI70.??4ProviderProxy@DirectUI@@QEAAAEAV01@$$QEAV01@@Z @631
    ??4ProviderProxy@DirectUI@@QEAAAEAV01@AEBV01@@Z=C:/Windows/System32/DUI70.??4ProviderProxy@DirectUI@@QEAAAEAV01@AEBV01@@Z @632
    ??4Proxy@DirectUI@@QEAAAEAV01@AEBV01@@Z=C:/Windows/System32/DUI70.??4Proxy@DirectUI@@QEAAAEAV01@AEBV01@@Z @633
    ??4PushButton@DirectUI@@QEAAAEAV01@$$QEAV01@@Z=C:/Windows/System32/DUI70.??4PushButton@DirectUI@@QEAAAEAV01@$$QEAV01@@Z @634
    ??4PushButton@DirectUI@@QEAAAEAV01@AEBV01@@Z=C:/Windows/System32/DUI70.??4PushButton@DirectUI@@QEAAAEAV01@AEBV01@@Z @635
    ??4RadioButtonGlyph@DirectUI@@QEAAAEAV01@AEBV01@@Z=C:/Windows/System32/DUI70.??4RadioButtonGlyph@DirectUI@@QEAAAEAV01@AEBV01@@Z @636
    ??4RangeValueProxy@DirectUI@@QEAAAEAV01@$$QEAV01@@Z=C:/Windows/System32/DUI70.??4RangeValueProxy@DirectUI@@QEAAAEAV01@$$QEAV01@@Z @637
    ??4RangeValueProxy@DirectUI@@QEAAAEAV01@AEBV01@@Z=C:/Windows/System32/DUI70.??4RangeValueProxy@DirectUI@@QEAAAEAV01@AEBV01@@Z @638
    ??4RefPointElement@DirectUI@@QEAAAEAV01@AEBV01@@Z=C:/Windows/System32/DUI70.??4RefPointElement@DirectUI@@QEAAAEAV01@AEBV01@@Z @639
    ??4RepeatButton@DirectUI@@QEAAAEAV01@AEBV01@@Z=C:/Windows/System32/DUI70.??4RepeatButton@DirectUI@@QEAAAEAV01@AEBV01@@Z @640
    ??4Repeater@DirectUI@@QEAAAEAV01@$$QEAV01@@Z=C:/Windows/System32/DUI70.??4Repeater@DirectUI@@QEAAAEAV01@$$QEAV01@@Z @641
    ??4Repeater@DirectUI@@QEAAAEAV01@AEBV01@@Z=C:/Windows/System32/DUI70.??4Repeater@DirectUI@@QEAAAEAV01@AEBV01@@Z @642
    ??4ResourceModuleHandles@DirectUI@@QEAAAEAV01@AEBV01@@Z=C:/Windows/System32/DUI70.??4ResourceModuleHandles@DirectUI@@QEAAAEAV01@AEBV01@@Z @643
    ??4RowLayout@DirectUI@@QEAAAEAV01@AEBV01@@Z=C:/Windows/System32/DUI70.??4RowLayout@DirectUI@@QEAAAEAV01@AEBV01@@Z @644
    ??4Schema@DirectUI@@QEAAAEAV01@$$QEAV01@@Z=C:/Windows/System32/DUI70.??4Schema@DirectUI@@QEAAAEAV01@$$QEAV01@@Z @645
    ??4Schema@DirectUI@@QEAAAEAV01@AEBV01@@Z=C:/Windows/System32/DUI70.??4Schema@DirectUI@@QEAAAEAV01@AEBV01@@Z @646
    ??4ScrollBar@DirectUI@@QEAAAEAV01@AEBV01@@Z=C:/Windows/System32/DUI70.??4ScrollBar@DirectUI@@QEAAAEAV01@AEBV01@@Z @647
    ??4ScrollBarRangeValueProxy@DirectUI@@QEAAAEAV01@$$QEAV01@@Z=C:/Windows/System32/DUI70.??4ScrollBarRangeValueProxy@DirectUI@@QEAAAEAV01@$$QEAV01@@Z @648
    ??4ScrollBarRangeValueProxy@DirectUI@@QEAAAEAV01@AEBV01@@Z=C:/Windows/System32/DUI70.??4ScrollBarRangeValueProxy@DirectUI@@QEAAAEAV01@AEBV01@@Z @649
    ??4ScrollItemProxy@DirectUI@@QEAAAEAV01@$$QEAV01@@Z=C:/Windows/System32/DUI70.??4ScrollItemProxy@DirectUI@@QEAAAEAV01@$$QEAV01@@Z @650
    ??4ScrollItemProxy@DirectUI@@QEAAAEAV01@AEBV01@@Z=C:/Windows/System32/DUI70.??4ScrollItemProxy@DirectUI@@QEAAAEAV01@AEBV01@@Z @651
    ??4ScrollProxy@DirectUI@@QEAAAEAV01@$$QEAV01@@Z=C:/Windows/System32/DUI70.??4ScrollProxy@DirectUI@@QEAAAEAV01@$$QEAV01@@Z @652
    ??4ScrollProxy@DirectUI@@QEAAAEAV01@AEBV01@@Z=C:/Windows/System32/DUI70.??4ScrollProxy@DirectUI@@QEAAAEAV01@AEBV01@@Z @653
    ??4ScrollViewer@DirectUI@@QEAAAEAV01@AEBV01@@Z=C:/Windows/System32/DUI70.??4ScrollViewer@DirectUI@@QEAAAEAV01@AEBV01@@Z @654
    ??4SelectionItemProxy@DirectUI@@QEAAAEAV01@$$QEAV01@@Z=C:/Windows/System32/DUI70.??4SelectionItemProxy@DirectUI@@QEAAAEAV01@$$QEAV01@@Z @655
    ??4SelectionItemProxy@DirectUI@@QEAAAEAV01@AEBV01@@Z=C:/Windows/System32/DUI70.??4SelectionItemProxy@DirectUI@@QEAAAEAV01@AEBV01@@Z @656
    ??4SelectionProxy@DirectUI@@QEAAAEAV01@$$QEAV01@@Z=C:/Windows/System32/DUI70.??4SelectionProxy@DirectUI@@QEAAAEAV01@$$QEAV01@@Z @657
    ??4SelectionProxy@DirectUI@@QEAAAEAV01@AEBV01@@Z=C:/Windows/System32/DUI70.??4SelectionProxy@DirectUI@@QEAAAEAV01@AEBV01@@Z @658
    ??4Selector@DirectUI@@QEAAAEAV01@AEBV01@@Z=C:/Windows/System32/DUI70.??4Selector@DirectUI@@QEAAAEAV01@AEBV01@@Z @659
    ??4SelectorNoDefault@DirectUI@@QEAAAEAV01@$$QEAV01@@Z=C:/Windows/System32/DUI70.??4SelectorNoDefault@DirectUI@@QEAAAEAV01@$$QEAV01@@Z @660
    ??4SelectorNoDefault@DirectUI@@QEAAAEAV01@AEBV01@@Z=C:/Windows/System32/DUI70.??4SelectorNoDefault@DirectUI@@QEAAAEAV01@AEBV01@@Z @661
    ??4SelectorSelectionItemProxy@DirectUI@@QEAAAEAV01@$$QEAV01@@Z=C:/Windows/System32/DUI70.??4SelectorSelectionItemProxy@DirectUI@@QEAAAEAV01@$$QEAV01@@Z @662
    ??4SelectorSelectionItemProxy@DirectUI@@QEAAAEAV01@AEBV01@@Z=C:/Windows/System32/DUI70.??4SelectorSelectionItemProxy@DirectUI@@QEAAAEAV01@AEBV01@@Z @663
    ??4SelectorSelectionProxy@DirectUI@@QEAAAEAV01@$$QEAV01@@Z=C:/Windows/System32/DUI70.??4SelectorSelectionProxy@DirectUI@@QEAAAEAV01@$$QEAV01@@Z @664
    ??4SelectorSelectionProxy@DirectUI@@QEAAAEAV01@AEBV01@@Z=C:/Windows/System32/DUI70.??4SelectorSelectionProxy@DirectUI@@QEAAAEAV01@AEBV01@@Z @665
    ??4ShellBorderLayout@DirectUI@@QEAAAEAV01@AEBV01@@Z=C:/Windows/System32/DUI70.??4ShellBorderLayout@DirectUI@@QEAAAEAV01@AEBV01@@Z @666
    ??4StyleSheet@DirectUI@@QEAAAEAV01@$$QEAV01@@Z=C:/Windows/System32/DUI70.??4StyleSheet@DirectUI@@QEAAAEAV01@$$QEAV01@@Z @667
    ??4StyleSheet@DirectUI@@QEAAAEAV01@AEBV01@@Z=C:/Windows/System32/DUI70.??4StyleSheet@DirectUI@@QEAAAEAV01@AEBV01@@Z @668
    ??4StyledScrollViewer@DirectUI@@QEAAAEAV01@AEBV01@@Z=C:/Windows/System32/DUI70.??4StyledScrollViewer@DirectUI@@QEAAAEAV01@AEBV01@@Z @669
    ??4Surface@DirectUI@@QEAAAEAV01@AEBV01@@Z=C:/Windows/System32/DUI70.??4Surface@DirectUI@@QEAAAEAV01@AEBV01@@Z @670
    ??4TableItemProxy@DirectUI@@QEAAAEAV01@$$QEAV01@@Z=C:/Windows/System32/DUI70.??4TableItemProxy@DirectUI@@QEAAAEAV01@$$QEAV01@@Z @671
    ??4TableItemProxy@DirectUI@@QEAAAEAV01@AEBV01@@Z=C:/Windows/System32/DUI70.??4TableItemProxy@DirectUI@@QEAAAEAV01@AEBV01@@Z @672
    ??4TableLayout@DirectUI@@QEAAAEAV01@AEBV01@@Z=C:/Windows/System32/DUI70.??4TableLayout@DirectUI@@QEAAAEAV01@AEBV01@@Z @673
    ??4TableProxy@DirectUI@@QEAAAEAV01@$$QEAV01@@Z=C:/Windows/System32/DUI70.??4TableProxy@DirectUI@@QEAAAEAV01@$$QEAV01@@Z @674
    ??4TableProxy@DirectUI@@QEAAAEAV01@AEBV01@@Z=C:/Windows/System32/DUI70.??4TableProxy@DirectUI@@QEAAAEAV01@AEBV01@@Z @675
    ??4TaskPage@DirectUI@@QEAAAEAV01@AEBV01@@Z=C:/Windows/System32/DUI70.??4TaskPage@DirectUI@@QEAAAEAV01@AEBV01@@Z @676
    ??4TextGraphic@DirectUI@@QEAAAEAV01@$$QEAV01@@Z=C:/Windows/System32/DUI70.??4TextGraphic@DirectUI@@QEAAAEAV01@$$QEAV01@@Z @677
    ??4TextGraphic@DirectUI@@QEAAAEAV01@AEBV01@@Z=C:/Windows/System32/DUI70.??4TextGraphic@DirectUI@@QEAAAEAV01@AEBV01@@Z @678
    ??4Thumb@DirectUI@@QEAAAEAV01@AEBV01@@Z=C:/Windows/System32/DUI70.??4Thumb@DirectUI@@QEAAAEAV01@AEBV01@@Z @679
    ??4ToggleProxy@DirectUI@@QEAAAEAV01@$$QEAV01@@Z=C:/Windows/System32/DUI70.??4ToggleProxy@DirectUI@@QEAAAEAV01@$$QEAV01@@Z @680
    ??4ToggleProxy@DirectUI@@QEAAAEAV01@AEBV01@@Z=C:/Windows/System32/DUI70.??4ToggleProxy@DirectUI@@QEAAAEAV01@AEBV01@@Z @681
    ??4UnknownElement@DirectUI@@QEAAAEAV01@AEBV01@@Z=C:/Windows/System32/DUI70.??4UnknownElement@DirectUI@@QEAAAEAV01@AEBV01@@Z @682
    ??4Value@DirectUI@@QEAAAEAV01@$$QEAV01@@Z=C:/Windows/System32/DUI70.??4Value@DirectUI@@QEAAAEAV01@$$QEAV01@@Z @683
    ??4Value@DirectUI@@QEAAAEAV01@AEBV01@@Z=C:/Windows/System32/DUI70.??4Value@DirectUI@@QEAAAEAV01@AEBV01@@Z @684
    ??4ValueProxy@DirectUI@@QEAAAEAV01@$$QEAV01@@Z=C:/Windows/System32/DUI70.??4ValueProxy@DirectUI@@QEAAAEAV01@$$QEAV01@@Z @685
    ??4ValueProxy@DirectUI@@QEAAAEAV01@AEBV01@@Z=C:/Windows/System32/DUI70.??4ValueProxy@DirectUI@@QEAAAEAV01@AEBV01@@Z @686
    ??4VerticalFlowLayout@DirectUI@@QEAAAEAV01@AEBV01@@Z=C:/Windows/System32/DUI70.??4VerticalFlowLayout@DirectUI@@QEAAAEAV01@AEBV01@@Z @687
    ??4Viewer@DirectUI@@QEAAAEAV01@AEBV01@@Z=C:/Windows/System32/DUI70.??4Viewer@DirectUI@@QEAAAEAV01@AEBV01@@Z @688
    ??4XBaby@DirectUI@@QEAAAEAV01@AEBV01@@Z=C:/Windows/System32/DUI70.??4XBaby@DirectUI@@QEAAAEAV01@AEBV01@@Z @689
    ??4XElement@DirectUI@@QEAAAEAV01@AEBV01@@Z=C:/Windows/System32/DUI70.??4XElement@DirectUI@@QEAAAEAV01@AEBV01@@Z @690
    ??4XHost@DirectUI@@QEAAAEAV01@AEBV01@@Z=C:/Windows/System32/DUI70.??4XHost@DirectUI@@QEAAAEAV01@AEBV01@@Z @691
    ??4XProvider@DirectUI@@QEAAAEAV01@AEBV01@@Z=C:/Windows/System32/DUI70.??4XProvider@DirectUI@@QEAAAEAV01@AEBV01@@Z @692
    ??4XResourceProvider@DirectUI@@QEAAAEAV01@$$QEAV01@@Z=C:/Windows/System32/DUI70.??4XResourceProvider@DirectUI@@QEAAAEAV01@$$QEAV01@@Z @693
    ??4XResourceProvider@DirectUI@@QEAAAEAV01@AEBV01@@Z=C:/Windows/System32/DUI70.??4XResourceProvider@DirectUI@@QEAAAEAV01@AEBV01@@Z @694
    ??B?$SafeArrayAccessor@H@DirectUI@@QEAAPEAHXZ=C:/Windows/System32/DUI70.??B?$SafeArrayAccessor@H@DirectUI@@QEAAPEAHXZ @695
    ??BTaskPage@DirectUI@@QEAAPEAU_PSP@@XZ=C:/Windows/System32/DUI70.??BTaskPage@DirectUI@@QEAAPEAU_PSP@@XZ @696
    ??_7?$PatternProvider@VExpandCollapseProvider@DirectUI@@UIExpandCollapseProvider@@$00@DirectUI@@6BIProvider@1@@=C:/Windows/System32/DUI70.??_7?$PatternProvider@VExpandCollapseProvider@DirectUI@@UIExpandCollapseProvider@@$00@DirectUI@@6BIProvider@1@@ @697
    ??_7?$PatternProvider@VExpandCollapseProvider@DirectUI@@UIExpandCollapseProvider@@$00@DirectUI@@6BRefcountBase@1@@=C:/Windows/System32/DUI70.??_7?$PatternProvider@VExpandCollapseProvider@DirectUI@@UIExpandCollapseProvider@@$00@DirectUI@@6BRefcountBase@1@@ @698
    ??_7?$PatternProvider@VGridItemProvider@DirectUI@@UIGridItemProvider@@$01@DirectUI@@6BIProvider@1@@=C:/Windows/System32/DUI70.??_7?$PatternProvider@VGridItemProvider@DirectUI@@UIGridItemProvider@@$01@DirectUI@@6BIProvider@1@@ @699
    ??_7?$PatternProvider@VGridItemProvider@DirectUI@@UIGridItemProvider@@$01@DirectUI@@6BRefcountBase@1@@=C:/Windows/System32/DUI70.??_7?$PatternProvider@VGridItemProvider@DirectUI@@UIGridItemProvider@@$01@DirectUI@@6BRefcountBase@1@@ @700
    ??_7?$PatternProvider@VGridProvider@DirectUI@@UIGridProvider@@$02@DirectUI@@6BIProvider@1@@=C:/Windows/System32/DUI70.??_7?$PatternProvider@VGridProvider@DirectUI@@UIGridProvider@@$02@DirectUI@@6BIProvider@1@@ @701
    ??_7?$PatternProvider@VGridProvider@DirectUI@@UIGridProvider@@$02@DirectUI@@6BRefcountBase@1@@=C:/Windows/System32/DUI70.??_7?$PatternProvider@VGridProvider@DirectUI@@UIGridProvider@@$02@DirectUI@@6BRefcountBase@1@@ @702
    ??_7?$PatternProvider@VInvokeProvider@DirectUI@@UIInvokeProvider@@$0A@@DirectUI@@6BIProvider@1@@=C:/Windows/System32/DUI70.??_7?$PatternProvider@VInvokeProvider@DirectUI@@UIInvokeProvider@@$0A@@DirectUI@@6BIProvider@1@@ @703
    ??_7?$PatternProvider@VInvokeProvider@DirectUI@@UIInvokeProvider@@$0A@@DirectUI@@6BRefcountBase@1@@=C:/Windows/System32/DUI70.??_7?$PatternProvider@VInvokeProvider@DirectUI@@UIInvokeProvider@@$0A@@DirectUI@@6BRefcountBase@1@@ @704
    ??_7?$PatternProvider@VRangeValueProvider@DirectUI@@UIRangeValueProvider@@$03@DirectUI@@6BIProvider@1@@=C:/Windows/System32/DUI70.??_7?$PatternProvider@VRangeValueProvider@DirectUI@@UIRangeValueProvider@@$03@DirectUI@@6BIProvider@1@@ @705
    ??_7?$PatternProvider@VRangeValueProvider@DirectUI@@UIRangeValueProvider@@$03@DirectUI@@6BRefcountBase@1@@=C:/Windows/System32/DUI70.??_7?$PatternProvider@VRangeValueProvider@DirectUI@@UIRangeValueProvider@@$03@DirectUI@@6BRefcountBase@1@@ @706
    ??_7?$PatternProvider@VScrollItemProvider@DirectUI@@UIScrollItemProvider@@$05@DirectUI@@6BIProvider@1@@=C:/Windows/System32/DUI70.??_7?$PatternProvider@VScrollItemProvider@DirectUI@@UIScrollItemProvider@@$05@DirectUI@@6BIProvider@1@@ @707
    ??_7?$PatternProvider@VScrollItemProvider@DirectUI@@UIScrollItemProvider@@$05@DirectUI@@6BRefcountBase@1@@=C:/Windows/System32/DUI70.??_7?$PatternProvider@VScrollItemProvider@DirectUI@@UIScrollItemProvider@@$05@DirectUI@@6BRefcountBase@1@@ @708
    ??_7?$PatternProvider@VScrollProvider@DirectUI@@UIScrollProvider@@$04@DirectUI@@6BIProvider@1@@=C:/Windows/System32/DUI70.??_7?$PatternProvider@VScrollProvider@DirectUI@@UIScrollProvider@@$04@DirectUI@@6BIProvider@1@@ @709
    ??_7?$PatternProvider@VScrollProvider@DirectUI@@UIScrollProvider@@$04@DirectUI@@6BRefcountBase@1@@=C:/Windows/System32/DUI70.??_7?$PatternProvider@VScrollProvider@DirectUI@@UIScrollProvider@@$04@DirectUI@@6BRefcountBase@1@@ @710
    ??_7?$PatternProvider@VSelectionItemProvider@DirectUI@@UISelectionItemProvider@@$06@DirectUI@@6BIProvider@1@@=C:/Windows/System32/DUI70.??_7?$PatternProvider@VSelectionItemProvider@DirectUI@@UISelectionItemProvider@@$06@DirectUI@@6BIProvider@1@@ @711
    ??_7?$PatternProvider@VSelectionItemProvider@DirectUI@@UISelectionItemProvider@@$06@DirectUI@@6BRefcountBase@1@@=C:/Windows/System32/DUI70.??_7?$PatternProvider@VSelectionItemProvider@DirectUI@@UISelectionItemProvider@@$06@DirectUI@@6BRefcountBase@1@@ @712
    ??_7?$PatternProvider@VSelectionProvider@DirectUI@@UISelectionProvider@@$07@DirectUI@@6BIProvider@1@@=C:/Windows/System32/DUI70.??_7?$PatternProvider@VSelectionProvider@DirectUI@@UISelectionProvider@@$07@DirectUI@@6BIProvider@1@@ @713
    ??_7?$PatternProvider@VSelectionProvider@DirectUI@@UISelectionProvider@@$07@DirectUI@@6BRefcountBase@1@@=C:/Windows/System32/DUI70.??_7?$PatternProvider@VSelectionProvider@DirectUI@@UISelectionProvider@@$07@DirectUI@@6BRefcountBase@1@@ @714
    ??_7?$PatternProvider@VTableItemProvider@DirectUI@@UITableItemProvider@@$09@DirectUI@@6BIProvider@1@@=C:/Windows/System32/DUI70.??_7?$PatternProvider@VTableItemProvider@DirectUI@@UITableItemProvider@@$09@DirectUI@@6BIProvider@1@@ @715
    ??_7?$PatternProvider@VTableItemProvider@DirectUI@@UITableItemProvider@@$09@DirectUI@@6BRefcountBase@1@@=C:/Windows/System32/DUI70.??_7?$PatternProvider@VTableItemProvider@DirectUI@@UITableItemProvider@@$09@DirectUI@@6BRefcountBase@1@@ @716
    ??_7?$PatternProvider@VTableProvider@DirectUI@@UITableProvider@@$08@DirectUI@@6BIProvider@1@@=C:/Windows/System32/DUI70.??_7?$PatternProvider@VTableProvider@DirectUI@@UITableProvider@@$08@DirectUI@@6BIProvider@1@@ @717
    ??_7?$PatternProvider@VTableProvider@DirectUI@@UITableProvider@@$08@DirectUI@@6BRefcountBase@1@@=C:/Windows/System32/DUI70.??_7?$PatternProvider@VTableProvider@DirectUI@@UITableProvider@@$08@DirectUI@@6BRefcountBase@1@@ @718
    ??_7?$PatternProvider@VToggleProvider@DirectUI@@UIToggleProvider@@$0L@@DirectUI@@6BIProvider@1@@=C:/Windows/System32/DUI70.??_7?$PatternProvider@VToggleProvider@DirectUI@@UIToggleProvider@@$0L@@DirectUI@@6BIProvider@1@@ @719
    ??_7?$PatternProvider@VToggleProvider@DirectUI@@UIToggleProvider@@$0L@@DirectUI@@6BRefcountBase@1@@=C:/Windows/System32/DUI70.??_7?$PatternProvider@VToggleProvider@DirectUI@@UIToggleProvider@@$0L@@DirectUI@@6BRefcountBase@1@@ @720
    ??_7?$PatternProvider@VValueProvider@DirectUI@@UIValueProvider@@$0M@@DirectUI@@6BIProvider@1@@=C:/Windows/System32/DUI70.??_7?$PatternProvider@VValueProvider@DirectUI@@UIValueProvider@@$0M@@DirectUI@@6BIProvider@1@@ @721
    ??_7?$PatternProvider@VValueProvider@DirectUI@@UIValueProvider@@$0M@@DirectUI@@6BRefcountBase@1@@=C:/Windows/System32/DUI70.??_7?$PatternProvider@VValueProvider@DirectUI@@UIValueProvider@@$0M@@DirectUI@@6BRefcountBase@1@@ @722
    ??_7AccessibleButton@DirectUI@@6B@=C:/Windows/System32/DUI70.??_7AccessibleButton@DirectUI@@6B@ @723
    ??_7AnimationStrip@DirectUI@@6B@=C:/Windows/System32/DUI70.??_7AnimationStrip@DirectUI@@6B@ @724
    ??_7AutoButton@DirectUI@@6B@=C:/Windows/System32/DUI70.??_7AutoButton@DirectUI@@6B@ @725
    ??_7BaseScrollBar@DirectUI@@6B@=C:/Windows/System32/DUI70.??_7BaseScrollBar@DirectUI@@6B@ @726
    ??_7BaseScrollViewer@DirectUI@@6BElement@1@@=C:/Windows/System32/DUI70.??_7BaseScrollViewer@DirectUI@@6BElement@1@@ @727
    ??_7BaseScrollViewer@DirectUI@@6BIElementListener@1@@=C:/Windows/System32/DUI70.??_7BaseScrollViewer@DirectUI@@6BIElementListener@1@@ @728
    ??_7Bind@DirectUI@@6B@=C:/Windows/System32/DUI70.??_7Bind@DirectUI@@6B@ @729
    ??_7BorderLayout@DirectUI@@6B@=C:/Windows/System32/DUI70.??_7BorderLayout@DirectUI@@6B@ @730
    ??_7Browser@DirectUI@@6B@=C:/Windows/System32/DUI70.??_7Browser@DirectUI@@6B@ @731
    ??_7BrowserSelectionProxy@DirectUI@@6B@=C:/Windows/System32/DUI70.??_7BrowserSelectionProxy@DirectUI@@6B@ @732
    ??_7Button@DirectUI@@6B@=C:/Windows/System32/DUI70.??_7Button@DirectUI@@6B@ @733
    ??_7CCAVI@DirectUI@@6B@=C:/Windows/System32/DUI70.??_7CCAVI@DirectUI@@6B@ @734
    ??_7CCBase@DirectUI@@6B@=C:/Windows/System32/DUI70.??_7CCBase@DirectUI@@6B@ @735
    ??_7CCBaseCheckRadioButton@DirectUI@@6B@=C:/Windows/System32/DUI70.??_7CCBaseCheckRadioButton@DirectUI@@6B@ @736
    ??_7CCBaseScrollBar@DirectUI@@6BBaseScrollBar@1@@=C:/Windows/System32/DUI70.??_7CCBaseScrollBar@DirectUI@@6BBaseScrollBar@1@@ @737
    ??_7CCBaseScrollBar@DirectUI@@6BCCBase@1@@=C:/Windows/System32/DUI70.??_7CCBaseScrollBar@DirectUI@@6BCCBase@1@@ @738
    ??_7CCCheckBox@DirectUI@@6B@=C:/Windows/System32/DUI70.??_7CCCheckBox@DirectUI@@6B@ @739
    ??_7CCCommandLink@DirectUI@@6B@=C:/Windows/System32/DUI70.??_7CCCommandLink@DirectUI@@6B@ @740
    ??_7CCHScrollBar@DirectUI@@6BBaseScrollBar@1@@=C:/Windows/System32/DUI70.??_7CCHScrollBar@DirectUI@@6BBaseScrollBar@1@@ @741
    ??_7CCHScrollBar@DirectUI@@6BCCBase@1@@=C:/Windows/System32/DUI70.??_7CCHScrollBar@DirectUI@@6BCCBase@1@@ @742
    ??_7CCListBox@DirectUI@@6B@=C:/Windows/System32/DUI70.??_7CCListBox@DirectUI@@6B@ @743
    ??_7CCListView@DirectUI@@6B@=C:/Windows/System32/DUI70.??_7CCListView@DirectUI@@6B@ @744
    ??_7CCProgressBar@DirectUI@@6B@=C:/Windows/System32/DUI70.??_7CCProgressBar@DirectUI@@6B@ @745
    ??_7CCPushButton@DirectUI@@6B@=C:/Windows/System32/DUI70.??_7CCPushButton@DirectUI@@6B@ @746
    ??_7CCRadioButton@DirectUI@@6B@=C:/Windows/System32/DUI70.??_7CCRadioButton@DirectUI@@6B@ @747
    ??_7CCSysLink@DirectUI@@6B@=C:/Windows/System32/DUI70.??_7CCSysLink@DirectUI@@6B@ @748
    ??_7CCTrackBar@DirectUI@@6B@=C:/Windows/System32/DUI70.??_7CCTrackBar@DirectUI@@6B@ @749
    ??_7CCTreeView@DirectUI@@6B@=C:/Windows/System32/DUI70.??_7CCTreeView@DirectUI@@6B@ @750
    ??_7CCVScrollBar@DirectUI@@6BBaseScrollBar@1@@=C:/Windows/System32/DUI70.??_7CCVScrollBar@DirectUI@@6BBaseScrollBar@1@@ @751
    ??_7CCVScrollBar@DirectUI@@6BCCBase@1@@=C:/Windows/System32/DUI70.??_7CCVScrollBar@DirectUI@@6BCCBase@1@@ @752
    ??_7CheckBoxGlyph@DirectUI@@6B@=C:/Windows/System32/DUI70.??_7CheckBoxGlyph@DirectUI@@6B@ @753
    ??_7ClassInfoBase@DirectUI@@6B@=C:/Windows/System32/DUI70.??_7ClassInfoBase@DirectUI@@6B@ @754
    ??_7Clipper@DirectUI@@6B@=C:/Windows/System32/DUI70.??_7Clipper@DirectUI@@6B@ @755
    ??_7Combobox@DirectUI@@6B@=C:/Windows/System32/DUI70.??_7Combobox@DirectUI@@6B@ @756
    ??_7DCSurface@DirectUI@@6B@=C:/Windows/System32/DUI70.??_7DCSurface@DirectUI@@6B@ @757
    ??_7DUIXmlParser@DirectUI@@6B@=C:/Windows/System32/DUI70.??_7DUIXmlParser@DirectUI@@6B@ @758
    ??_7DialogElement@DirectUI@@6BHWNDElement@1@@=C:/Windows/System32/DUI70.??_7DialogElement@DirectUI@@6BHWNDElement@1@@ @759
    ??_7DialogElement@DirectUI@@6BIDialogElement@1@@=C:/Windows/System32/DUI70.??_7DialogElement@DirectUI@@6BIDialogElement@1@@ @760
    ??_7DialogElement@DirectUI@@6BIElementListener@1@@=C:/Windows/System32/DUI70.??_7DialogElement@DirectUI@@6BIElementListener@1@@ @761
    ??_7DuiAccessible@DirectUI@@6BIAccIdentity@@@=C:/Windows/System32/DUI70.??_7DuiAccessible@DirectUI@@6BIAccIdentity@@@ @762
    ??_7DuiAccessible@DirectUI@@6BIAccessible@@@=C:/Windows/System32/DUI70.??_7DuiAccessible@DirectUI@@6BIAccessible@@@ @763
    ??_7DuiAccessible@DirectUI@@6BIEnumVARIANT@@@=C:/Windows/System32/DUI70.??_7DuiAccessible@DirectUI@@6BIEnumVARIANT@@@ @764
    ??_7DuiAccessible@DirectUI@@6BIOleWindow@@@=C:/Windows/System32/DUI70.??_7DuiAccessible@DirectUI@@6BIOleWindow@@@ @765
    ??_7DuiAccessible@DirectUI@@6BIServiceProvider@@@=C:/Windows/System32/DUI70.??_7DuiAccessible@DirectUI@@6BIServiceProvider@@@ @766
    ??_7Edit@DirectUI@@6B@=C:/Windows/System32/DUI70.??_7Edit@DirectUI@@6B@ @767
    ??_7Element@DirectUI@@6B@=C:/Windows/System32/DUI70.??_7Element@DirectUI@@6B@ @768
    ??_7ElementProvider@DirectUI@@6BIRawElementProviderAdviseEvents@@@=C:/Windows/System32/DUI70.??_7ElementProvider@DirectUI@@6BIRawElementProviderAdviseEvents@@@ @769
    ??_7ElementProvider@DirectUI@@6BIRawElementProviderFragment@@@=C:/Windows/System32/DUI70.??_7ElementProvider@DirectUI@@6BIRawElementProviderFragment@@@ @770
    ??_7ElementProvider@DirectUI@@6BIRawElementProviderSimple2@@@=C:/Windows/System32/DUI70.??_7ElementProvider@DirectUI@@6BIRawElementProviderSimple2@@@ @771
    ??_7ElementProvider@DirectUI@@6BRefcountBase@1@@=C:/Windows/System32/DUI70.??_7ElementProvider@DirectUI@@6BRefcountBase@1@@ @772
    ??_7ElementWithHWND@DirectUI@@6B@=C:/Windows/System32/DUI70.??_7ElementWithHWND@DirectUI@@6B@ @773
    ??_7ExpandCollapseProvider@DirectUI@@6B@=C:/Windows/System32/DUI70.??_7ExpandCollapseProvider@DirectUI@@6B@ @774
    ??_7ExpandCollapseProvider@DirectUI@@6BIProvider@1@@=C:/Windows/System32/DUI70.??_7ExpandCollapseProvider@DirectUI@@6BIProvider@1@@ @775
    ??_7ExpandCollapseProvider@DirectUI@@6BRefcountBase@1@@=C:/Windows/System32/DUI70.??_7ExpandCollapseProvider@DirectUI@@6BRefcountBase@1@@ @776
    ??_7ExpandCollapseProxy@DirectUI@@6B@=C:/Windows/System32/DUI70.??_7ExpandCollapseProxy@DirectUI@@6B@ @777
    ??_7Expandable@DirectUI@@6B@=C:/Windows/System32/DUI70.??_7Expandable@DirectUI@@6B@ @778
    ??_7Expando@DirectUI@@6B@=C:/Windows/System32/DUI70.??_7Expando@DirectUI@@6B@ @779
    ??_7ExpandoButtonGlyph@DirectUI@@6B@=C:/Windows/System32/DUI70.??_7ExpandoButtonGlyph@DirectUI@@6B@ @780
    ??_7FillLayout@DirectUI@@6B@=C:/Windows/System32/DUI70.??_7FillLayout@DirectUI@@6B@ @781
    ??_7FlowLayout@DirectUI@@6B@=C:/Windows/System32/DUI70.??_7FlowLayout@DirectUI@@6B@ @782
    ??_7FontCache@DirectUI@@6B@=C:/Windows/System32/DUI70.??_7FontCache@DirectUI@@6B@ @783
    ??_7GridItemProvider@DirectUI@@6B@=C:/Windows/System32/DUI70.??_7GridItemProvider@DirectUI@@6B@ @784
    ??_7GridItemProvider@DirectUI@@6BIProvider@1@@=C:/Windows/System32/DUI70.??_7GridItemProvider@DirectUI@@6BIProvider@1@@ @785
    ??_7GridItemProvider@DirectUI@@6BRefcountBase@1@@=C:/Windows/System32/DUI70.??_7GridItemProvider@DirectUI@@6BRefcountBase@1@@ @786
    ??_7GridItemProxy@DirectUI@@6B@=C:/Windows/System32/DUI70.??_7GridItemProxy@DirectUI@@6B@ @787
    ??_7GridLayout@DirectUI@@6B@=C:/Windows/System32/DUI70.??_7GridLayout@DirectUI@@6B@ @788
    ??_7GridProvider@DirectUI@@6B@=C:/Windows/System32/DUI70.??_7GridProvider@DirectUI@@6B@ @789
    ??_7GridProvider@DirectUI@@6BIProvider@1@@=C:/Windows/System32/DUI70.??_7GridProvider@DirectUI@@6BIProvider@1@@ @790
    ??_7GridProvider@DirectUI@@6BRefcountBase@1@@=C:/Windows/System32/DUI70.??_7GridProvider@DirectUI@@6BRefcountBase@1@@ @791
    ??_7GridProxy@DirectUI@@6B@=C:/Windows/System32/DUI70.??_7GridProxy@DirectUI@@6B@ @792
    ??_7HWNDElement@DirectUI@@6B@=C:/Windows/System32/DUI70.??_7HWNDElement@DirectUI@@6B@ @793
    ??_7HWNDElementAccessible@DirectUI@@6BIAccIdentity@@@=C:/Windows/System32/DUI70.??_7HWNDElementAccessible@DirectUI@@6BIAccIdentity@@@ @794
    ??_7HWNDElementAccessible@DirectUI@@6BIAccessible@@@=C:/Windows/System32/DUI70.??_7HWNDElementAccessible@DirectUI@@6BIAccessible@@@ @795
    ??_7HWNDElementAccessible@DirectUI@@6BIEnumVARIANT@@@=C:/Windows/System32/DUI70.??_7HWNDElementAccessible@DirectUI@@6BIEnumVARIANT@@@ @796
    ??_7HWNDElementAccessible@DirectUI@@6BIOleWindow@@@=C:/Windows/System32/DUI70.??_7HWNDElementAccessible@DirectUI@@6BIOleWindow@@@ @797
    ??_7HWNDElementAccessible@DirectUI@@6BIServiceProvider@@@=C:/Windows/System32/DUI70.??_7HWNDElementAccessible@DirectUI@@6BIServiceProvider@@@ @798
    ??_7HWNDElementProvider@DirectUI@@6B@=C:/Windows/System32/DUI70.??_7HWNDElementProvider@DirectUI@@6B@ @799
    ??_7HWNDElementProvider@DirectUI@@6BIRawElementProviderAdviseEvents@@@=C:/Windows/System32/DUI70.??_7HWNDElementProvider@DirectUI@@6BIRawElementProviderAdviseEvents@@@ @800
    ??_7HWNDElementProvider@DirectUI@@6BIRawElementProviderFragment@@@=C:/Windows/System32/DUI70.??_7HWNDElementProvider@DirectUI@@6BIRawElementProviderFragment@@@ @801
    ??_7HWNDElementProvider@DirectUI@@6BIRawElementProviderSimple2@@@=C:/Windows/System32/DUI70.??_7HWNDElementProvider@DirectUI@@6BIRawElementProviderSimple2@@@ @802
    ??_7HWNDElementProvider@DirectUI@@6BRefcountBase@1@@=C:/Windows/System32/DUI70.??_7HWNDElementProvider@DirectUI@@6BRefcountBase@1@@ @803
    ??_7HWNDHost@DirectUI@@6B@=C:/Windows/System32/DUI70.??_7HWNDHost@DirectUI@@6B@ @804
    ??_7HWNDHostAccessible@DirectUI@@6BIAccIdentity@@@=C:/Windows/System32/DUI70.??_7HWNDHostAccessible@DirectUI@@6BIAccIdentity@@@ @805
    ??_7HWNDHostAccessible@DirectUI@@6BIAccessible@@@=C:/Windows/System32/DUI70.??_7HWNDHostAccessible@DirectUI@@6BIAccessible@@@ @806
    ??_7HWNDHostAccessible@DirectUI@@6BIEnumVARIANT@@@=C:/Windows/System32/DUI70.??_7HWNDHostAccessible@DirectUI@@6BIEnumVARIANT@@@ @807
    ??_7HWNDHostAccessible@DirectUI@@6BIOleWindow@@@=C:/Windows/System32/DUI70.??_7HWNDHostAccessible@DirectUI@@6BIOleWindow@@@ @808
    ??_7HWNDHostAccessible@DirectUI@@6BIServiceProvider@@@=C:/Windows/System32/DUI70.??_7HWNDHostAccessible@DirectUI@@6BIServiceProvider@@@ @809
    ??_7HWNDHostClientAccessible@DirectUI@@6BIAccIdentity@@@=C:/Windows/System32/DUI70.??_7HWNDHostClientAccessible@DirectUI@@6BIAccIdentity@@@ @810
    ??_7HWNDHostClientAccessible@DirectUI@@6BIAccessible@@@=C:/Windows/System32/DUI70.??_7HWNDHostClientAccessible@DirectUI@@6BIAccessible@@@ @811
    ??_7HWNDHostClientAccessible@DirectUI@@6BIEnumVARIANT@@@=C:/Windows/System32/DUI70.??_7HWNDHostClientAccessible@DirectUI@@6BIEnumVARIANT@@@ @812
    ??_7HWNDHostClientAccessible@DirectUI@@6BIOleWindow@@@=C:/Windows/System32/DUI70.??_7HWNDHostClientAccessible@DirectUI@@6BIOleWindow@@@ @813
    ??_7HWNDHostClientAccessible@DirectUI@@6BIServiceProvider@@@=C:/Windows/System32/DUI70.??_7HWNDHostClientAccessible@DirectUI@@6BIServiceProvider@@@ @814
    ??_7IDataEngine@DirectUI@@6B@=C:/Windows/System32/DUI70.??_7IDataEngine@DirectUI@@6B@ @815
    ??_7IDataEntry@DirectUI@@6B@=C:/Windows/System32/DUI70.??_7IDataEntry@DirectUI@@6B@ @816
    ??_7ISBLeak@DirectUI@@6B@=C:/Windows/System32/DUI70.??_7ISBLeak@DirectUI@@6B@ @817
    ??_7IXElementCP@DirectUI@@6B@=C:/Windows/System32/DUI70.??_7IXElementCP@DirectUI@@6B@ @818
    ??_7IXProviderCP@DirectUI@@6B@=C:/Windows/System32/DUI70.??_7IXProviderCP@DirectUI@@6B@ @819
    ??_7InvokeHelper@DirectUI@@6B@=C:/Windows/System32/DUI70.??_7InvokeHelper@DirectUI@@6B@ @820
    ??_7InvokeProvider@DirectUI@@6B@=C:/Windows/System32/DUI70.??_7InvokeProvider@DirectUI@@6B@ @821
    ??_7InvokeProvider@DirectUI@@6BIProvider@1@@=C:/Windows/System32/DUI70.??_7InvokeProvider@DirectUI@@6BIProvider@1@@ @822
    ??_7InvokeProvider@DirectUI@@6BRefcountBase@1@@=C:/Windows/System32/DUI70.??_7InvokeProvider@DirectUI@@6BRefcountBase@1@@ @823
    ??_7InvokeProxy@DirectUI@@6B@=C:/Windows/System32/DUI70.??_7InvokeProxy@DirectUI@@6B@ @824
    ??_7Layout@DirectUI@@6B@=C:/Windows/System32/DUI70.??_7Layout@DirectUI@@6B@ @825
    ??_7Macro@DirectUI@@6B@=C:/Windows/System32/DUI70.??_7Macro@DirectUI@@6B@ @826
    ??_7ModernProgressBarRangeValueProxy@DirectUI@@6B@=C:/Windows/System32/DUI70.??_7ModernProgressBarRangeValueProxy@DirectUI@@6B@ @827
    ??_7Movie@DirectUI@@6B@=C:/Windows/System32/DUI70.??_7Movie@DirectUI@@6B@ @828
    ??_7NativeHWNDHost@DirectUI@@6B@=C:/Windows/System32/DUI70.??_7NativeHWNDHost@DirectUI@@6B@ @829
    ??_7Navigator@DirectUI@@6B@=C:/Windows/System32/DUI70.??_7Navigator@DirectUI@@6B@ @830
    ??_7NavigatorSelectionItemProxy@DirectUI@@6B@=C:/Windows/System32/DUI70.??_7NavigatorSelectionItemProxy@DirectUI@@6B@ @831
    ??_7NineGridLayout@DirectUI@@6B@=C:/Windows/System32/DUI70.??_7NineGridLayout@DirectUI@@6B@ @832
    ??_7PText@DirectUI@@6B@=C:/Windows/System32/DUI70.??_7PText@DirectUI@@6B@ @833
    ??_7Page@DirectUI@@6B@=C:/Windows/System32/DUI70.??_7Page@DirectUI@@6B@ @834
    ??_7Pages@DirectUI@@6B@=C:/Windows/System32/DUI70.??_7Pages@DirectUI@@6B@ @835
    ??_7Progress@DirectUI@@6B@=C:/Windows/System32/DUI70.??_7Progress@DirectUI@@6B@ @836
    ??_7ProgressRangeValueProxy@DirectUI@@6B@=C:/Windows/System32/DUI70.??_7ProgressRangeValueProxy@DirectUI@@6B@ @837
    ??_7Proxy@DirectUI@@6B@=C:/Windows/System32/DUI70.??_7Proxy@DirectUI@@6B@ @838
    ??_7PushButton@DirectUI@@6B@=C:/Windows/System32/DUI70.??_7PushButton@DirectUI@@6B@ @839
    ??_7RadioButtonGlyph@DirectUI@@6B@=C:/Windows/System32/DUI70.??_7RadioButtonGlyph@DirectUI@@6B@ @840
    ??_7RangeValueProvider@DirectUI@@6B@=C:/Windows/System32/DUI70.??_7RangeValueProvider@DirectUI@@6B@ @841
    ??_7RangeValueProvider@DirectUI@@6BIProvider@1@@=C:/Windows/System32/DUI70.??_7RangeValueProvider@DirectUI@@6BIProvider@1@@ @842
    ??_7RangeValueProvider@DirectUI@@6BRefcountBase@1@@=C:/Windows/System32/DUI70.??_7RangeValueProvider@DirectUI@@6BRefcountBase@1@@ @843
    ??_7RangeValueProxy@DirectUI@@6B@=C:/Windows/System32/DUI70.??_7RangeValueProxy@DirectUI@@6B@ @844
    ??_7RefPointElement@DirectUI@@6B@=C:/Windows/System32/DUI70.??_7RefPointElement@DirectUI@@6B@ @845
    ??_7RefcountBase@DirectUI@@6B@=C:/Windows/System32/DUI70.??_7RefcountBase@DirectUI@@6B@ @846
    ??_7RepeatButton@DirectUI@@6B@=C:/Windows/System32/DUI70.??_7RepeatButton@DirectUI@@6B@ @847
    ??_7Repeater@DirectUI@@6B@=C:/Windows/System32/DUI70.??_7Repeater@DirectUI@@6B@ @848
    ??_7RowLayout@DirectUI@@6B@=C:/Windows/System32/DUI70.??_7RowLayout@DirectUI@@6B@ @849
    ??_7ScrollBar@DirectUI@@6BBaseScrollBar@1@@=C:/Windows/System32/DUI70.??_7ScrollBar@DirectUI@@6BBaseScrollBar@1@@ @850
    ??_7ScrollBar@DirectUI@@6BElement@1@@=C:/Windows/System32/DUI70.??_7ScrollBar@DirectUI@@6BElement@1@@ @851
    ??_7ScrollBarRangeValueProxy@DirectUI@@6B@=C:/Windows/System32/DUI70.??_7ScrollBarRangeValueProxy@DirectUI@@6B@ @852
    ??_7ScrollItemProvider@DirectUI@@6B@=C:/Windows/System32/DUI70.??_7ScrollItemProvider@DirectUI@@6B@ @853
    ??_7ScrollItemProvider@DirectUI@@6BIProvider@1@@=C:/Windows/System32/DUI70.??_7ScrollItemProvider@DirectUI@@6BIProvider@1@@ @854
    ??_7ScrollItemProvider@DirectUI@@6BRefcountBase@1@@=C:/Windows/System32/DUI70.??_7ScrollItemProvider@DirectUI@@6BRefcountBase@1@@ @855
    ??_7ScrollItemProxy@DirectUI@@6B@=C:/Windows/System32/DUI70.??_7ScrollItemProxy@DirectUI@@6B@ @856
    ??_7ScrollProvider@DirectUI@@6B@=C:/Windows/System32/DUI70.??_7ScrollProvider@DirectUI@@6B@ @857
    ??_7ScrollProvider@DirectUI@@6BIProvider@1@@=C:/Windows/System32/DUI70.??_7ScrollProvider@DirectUI@@6BIProvider@1@@ @858
    ??_7ScrollProvider@DirectUI@@6BRefcountBase@1@@=C:/Windows/System32/DUI70.??_7ScrollProvider@DirectUI@@6BRefcountBase@1@@ @859
    ??_7ScrollProxy@DirectUI@@6B@=C:/Windows/System32/DUI70.??_7ScrollProxy@DirectUI@@6B@ @860
    ??_7ScrollViewer@DirectUI@@6BElement@1@@=C:/Windows/System32/DUI70.??_7ScrollViewer@DirectUI@@6BElement@1@@ @861
    ??_7ScrollViewer@DirectUI@@6BIElementListener@1@@=C:/Windows/System32/DUI70.??_7ScrollViewer@DirectUI@@6BIElementListener@1@@ @862
    ??_7SelectionItemProvider@DirectUI@@6B@=C:/Windows/System32/DUI70.??_7SelectionItemProvider@DirectUI@@6B@ @863
    ??_7SelectionItemProvider@DirectUI@@6BIProvider@1@@=C:/Windows/System32/DUI70.??_7SelectionItemProvider@DirectUI@@6BIProvider@1@@ @864
    ??_7SelectionItemProvider@DirectUI@@6BRefcountBase@1@@=C:/Windows/System32/DUI70.??_7SelectionItemProvider@DirectUI@@6BRefcountBase@1@@ @865
    ??_7SelectionItemProxy@DirectUI@@6B@=C:/Windows/System32/DUI70.??_7SelectionItemProxy@DirectUI@@6B@ @866
    ??_7SelectionProvider@DirectUI@@6B@=C:/Windows/System32/DUI70.??_7SelectionProvider@DirectUI@@6B@ @867
    ??_7SelectionProvider@DirectUI@@6BIProvider@1@@=C:/Windows/System32/DUI70.??_7SelectionProvider@DirectUI@@6BIProvider@1@@ @868
    ??_7SelectionProvider@DirectUI@@6BRefcountBase@1@@=C:/Windows/System32/DUI70.??_7SelectionProvider@DirectUI@@6BRefcountBase@1@@ @869
    ??_7SelectionProxy@DirectUI@@6B@=C:/Windows/System32/DUI70.??_7SelectionProxy@DirectUI@@6B@ @870
    ??_7Selector@DirectUI@@6B@=C:/Windows/System32/DUI70.??_7Selector@DirectUI@@6B@ @871
    ??_7SelectorNoDefault@DirectUI@@6B@=C:/Windows/System32/DUI70.??_7SelectorNoDefault@DirectUI@@6B@ @872
    ??_7SelectorSelectionItemProxy@DirectUI@@6B@=C:/Windows/System32/DUI70.??_7SelectorSelectionItemProxy@DirectUI@@6B@ @873
    ??_7SelectorSelectionProxy@DirectUI@@6B@=C:/Windows/System32/DUI70.??_7SelectorSelectionProxy@DirectUI@@6B@ @874
    ??_7ShellBorderLayout@DirectUI@@6B@=C:/Windows/System32/DUI70.??_7ShellBorderLayout@DirectUI@@6B@ @875
    ??_7StyleSheet@DirectUI@@6B@=C:/Windows/System32/DUI70.??_7StyleSheet@DirectUI@@6B@ @876
    ??_7StyledScrollViewer@DirectUI@@6BElement@1@@=C:/Windows/System32/DUI70.??_7StyledScrollViewer@DirectUI@@6BElement@1@@ @877
    ??_7StyledScrollViewer@DirectUI@@6BIElementListener@1@@=C:/Windows/System32/DUI70.??_7StyledScrollViewer@DirectUI@@6BIElementListener@1@@ @878
    ??_7Surface@DirectUI@@6B@=C:/Windows/System32/DUI70.??_7Surface@DirectUI@@6B@ @879
    ??_7TableItemProvider@DirectUI@@6B@=C:/Windows/System32/DUI70.??_7TableItemProvider@DirectUI@@6B@ @880
    ??_7TableItemProvider@DirectUI@@6BIProvider@1@@=C:/Windows/System32/DUI70.??_7TableItemProvider@DirectUI@@6BIProvider@1@@ @881
    ??_7TableItemProvider@DirectUI@@6BRefcountBase@1@@=C:/Windows/System32/DUI70.??_7TableItemProvider@DirectUI@@6BRefcountBase@1@@ @882
    ??_7TableItemProxy@DirectUI@@6B@=C:/Windows/System32/DUI70.??_7TableItemProxy@DirectUI@@6B@ @883
    ??_7TableLayout@DirectUI@@6B@=C:/Windows/System32/DUI70.??_7TableLayout@DirectUI@@6B@ @884
    ??_7TableProvider@DirectUI@@6B@=C:/Windows/System32/DUI70.??_7TableProvider@DirectUI@@6B@ @885
    ??_7TableProvider@DirectUI@@6BIProvider@1@@=C:/Windows/System32/DUI70.??_7TableProvider@DirectUI@@6BIProvider@1@@ @886
    ??_7TableProvider@DirectUI@@6BRefcountBase@1@@=C:/Windows/System32/DUI70.??_7TableProvider@DirectUI@@6BRefcountBase@1@@ @887
    ??_7TableProxy@DirectUI@@6B@=C:/Windows/System32/DUI70.??_7TableProxy@DirectUI@@6B@ @888
    ??_7TaskPage@DirectUI@@6BIElementListener@1@@=C:/Windows/System32/DUI70.??_7TaskPage@DirectUI@@6BIElementListener@1@@ @889
    ??_7TaskPage@DirectUI@@6BIXProviderCP@1@@=C:/Windows/System32/DUI70.??_7TaskPage@DirectUI@@6BIXProviderCP@1@@ @890
    ??_7TextGraphic@DirectUI@@6B@=C:/Windows/System32/DUI70.??_7TextGraphic@DirectUI@@6B@ @891
    ??_7Thumb@DirectUI@@6B@=C:/Windows/System32/DUI70.??_7Thumb@DirectUI@@6B@ @892
    ??_7ToggleProvider@DirectUI@@6B@=C:/Windows/System32/DUI70.??_7ToggleProvider@DirectUI@@6B@ @893
    ??_7ToggleProvider@DirectUI@@6BIProvider@1@@=C:/Windows/System32/DUI70.??_7ToggleProvider@DirectUI@@6BIProvider@1@@ @894
    ??_7ToggleProvider@DirectUI@@6BRefcountBase@1@@=C:/Windows/System32/DUI70.??_7ToggleProvider@DirectUI@@6BRefcountBase@1@@ @895
    ??_7ToggleProxy@DirectUI@@6B@=C:/Windows/System32/DUI70.??_7ToggleProxy@DirectUI@@6B@ @896
    ??_7UnknownElement@DirectUI@@6B@=C:/Windows/System32/DUI70.??_7UnknownElement@DirectUI@@6B@ @897
    ??_7ValueProvider@DirectUI@@6B@=C:/Windows/System32/DUI70.??_7ValueProvider@DirectUI@@6B@ @898
    ??_7ValueProvider@DirectUI@@6BIProvider@1@@=C:/Windows/System32/DUI70.??_7ValueProvider@DirectUI@@6BIProvider@1@@ @899
    ??_7ValueProvider@DirectUI@@6BRefcountBase@1@@=C:/Windows/System32/DUI70.??_7ValueProvider@DirectUI@@6BRefcountBase@1@@ @900
    ??_7ValueProxy@DirectUI@@6B@=C:/Windows/System32/DUI70.??_7ValueProxy@DirectUI@@6B@ @901
    ??_7VerticalFlowLayout@DirectUI@@6B@=C:/Windows/System32/DUI70.??_7VerticalFlowLayout@DirectUI@@6B@ @902
    ??_7Viewer@DirectUI@@6B@=C:/Windows/System32/DUI70.??_7Viewer@DirectUI@@6B@ @903
    ??_7XBaby@DirectUI@@6B@=C:/Windows/System32/DUI70.??_7XBaby@DirectUI@@6B@ @904
    ??_7XBaby@DirectUI@@6BHWNDElement@1@@=C:/Windows/System32/DUI70.??_7XBaby@DirectUI@@6BHWNDElement@1@@ @905
    ??_7XBaby@DirectUI@@6BIDialogElement@1@@=C:/Windows/System32/DUI70.??_7XBaby@DirectUI@@6BIDialogElement@1@@ @906
    ??_7XBaby@DirectUI@@6BIElementListener@1@@=C:/Windows/System32/DUI70.??_7XBaby@DirectUI@@6BIElementListener@1@@ @907
    ??_7XElement@DirectUI@@6BHWNDHost@1@@=C:/Windows/System32/DUI70.??_7XElement@DirectUI@@6BHWNDHost@1@@ @908
    ??_7XElement@DirectUI@@6BIXElementCP@1@@=C:/Windows/System32/DUI70.??_7XElement@DirectUI@@6BIXElementCP@1@@ @909
    ??_7XProvider@DirectUI@@6B@=C:/Windows/System32/DUI70.??_7XProvider@DirectUI@@6B@ @910
    ??_7XResourceProvider@DirectUI@@6B@=C:/Windows/System32/DUI70.??_7XResourceProvider@DirectUI@@6B@ @911
    ??_FCCBase@DirectUI@@QEAAXXZ=C:/Windows/System32/DUI70.??_FCCBase@DirectUI@@QEAAXXZ @912
    ??_FCCBaseScrollBar@DirectUI@@QEAAXXZ=C:/Windows/System32/DUI70.??_FCCBaseScrollBar@DirectUI@@QEAAXXZ @913
    ??_FCCCheckBox@DirectUI@@QEAAXXZ=C:/Windows/System32/DUI70.??_FCCCheckBox@DirectUI@@QEAAXXZ @914
    ??_FCCCommandLink@DirectUI@@QEAAXXZ=C:/Windows/System32/DUI70.??_FCCCommandLink@DirectUI@@QEAAXXZ @915
    ??_FCCPushButton@DirectUI@@QEAAXXZ=C:/Windows/System32/DUI70.??_FCCPushButton@DirectUI@@QEAAXXZ @916
    ??_FCCTreeView@DirectUI@@QEAAXXZ=C:/Windows/System32/DUI70.??_FCCTreeView@DirectUI@@QEAAXXZ @917
    ?AbsorbsShortcutProp@Element@DirectUI@@SAPEBUPropertyInfo@2@XZ=C:/Windows/System32/DUI70.?AbsorbsShortcutProp@Element@DirectUI@@SAPEBUPropertyInfo@2@XZ @918
    ?AccDefActionProp@Element@DirectUI@@SAPEBUPropertyInfo@2@XZ=C:/Windows/System32/DUI70.?AccDefActionProp@Element@DirectUI@@SAPEBUPropertyInfo@2@XZ @919
    ?AccDescProp@Element@DirectUI@@SAPEBUPropertyInfo@2@XZ=C:/Windows/System32/DUI70.?AccDescProp@Element@DirectUI@@SAPEBUPropertyInfo@2@XZ @920
    ?AccHelpProp@Element@DirectUI@@SAPEBUPropertyInfo@2@XZ=C:/Windows/System32/DUI70.?AccHelpProp@Element@DirectUI@@SAPEBUPropertyInfo@2@XZ @921
    ?AccItemStatusProp@Element@DirectUI@@SAPEBUPropertyInfo@2@XZ=C:/Windows/System32/DUI70.?AccItemStatusProp@Element@DirectUI@@SAPEBUPropertyInfo@2@XZ @922
    ?AccItemTypeProp@Element@DirectUI@@SAPEBUPropertyInfo@2@XZ=C:/Windows/System32/DUI70.?AccItemTypeProp@Element@DirectUI@@SAPEBUPropertyInfo@2@XZ @923
    ?AccNameProp@Element@DirectUI@@SAPEBUPropertyInfo@2@XZ=C:/Windows/System32/DUI70.?AccNameProp@Element@DirectUI@@SAPEBUPropertyInfo@2@XZ @924
    ?AccNavigate@DuiAccessible@DirectUI@@SAJPEAVElement@2@JPEAPEAV32@@Z=C:/Windows/System32/DUI70.?AccNavigate@DuiAccessible@DirectUI@@SAJPEAVElement@2@JPEAPEAV32@@Z @925
    ?AccRoleProp@Element@DirectUI@@SAPEBUPropertyInfo@2@XZ=C:/Windows/System32/DUI70.?AccRoleProp@Element@DirectUI@@SAPEBUPropertyInfo@2@XZ @926
    ?AccStateProp@Element@DirectUI@@SAPEBUPropertyInfo@2@XZ=C:/Windows/System32/DUI70.?AccStateProp@Element@DirectUI@@SAPEBUPropertyInfo@2@XZ @927
    ?AccValueProp@Element@DirectUI@@SAPEBUPropertyInfo@2@XZ=C:/Windows/System32/DUI70.?AccValueProp@Element@DirectUI@@SAPEBUPropertyInfo@2@XZ @928
    ?AcceleratorKeyProperty@Schema@DirectUI@@2HA=C:/Windows/System32/DUI70.?AcceleratorKeyProperty@Schema@DirectUI@@2HA @929
    ?Access@?$SafeArrayAccessor@H@DirectUI@@QEAAJPEAUtagSAFEARRAY@@G@Z=C:/Windows/System32/DUI70.?Access@?$SafeArrayAccessor@H@DirectUI@@QEAAJPEAUtagSAFEARRAY@@G@Z @930
    ?AccessKeyProperty@Schema@DirectUI@@2HA=C:/Windows/System32/DUI70.?AccessKeyProperty@Schema@DirectUI@@2HA @931
    ?AccessibleProp@Element@DirectUI@@SAPEBUPropertyInfo@2@XZ=C:/Windows/System32/DUI70.?AccessibleProp@Element@DirectUI@@SAPEBUPropertyInfo@2@XZ @932
    ?ActionInitiated@Navigator@DirectUI@@SA?AVUID@@XZ=C:/Windows/System32/DUI70.?ActionInitiated@Navigator@DirectUI@@SA?AVUID@@XZ @933
    ?ActivateTooltip@Element@DirectUI@@MEAAXPEAV12@K@Z=C:/Windows/System32/DUI70.?ActivateTooltip@Element@DirectUI@@MEAAXPEAV12@K@Z @934
    ?ActivateTooltip@HWNDElement@DirectUI@@UEAAXPEAVElement@2@K@Z=C:/Windows/System32/DUI70.?ActivateTooltip@HWNDElement@DirectUI@@UEAAXPEAVElement@2@K@Z @935
    ?ActivateTooltip@TouchHWNDElement@DirectUI@@UEAAXPEAVElement@2@K@Z=C:/Windows/System32/DUI70.?ActivateTooltip@TouchHWNDElement@DirectUI@@UEAAXPEAVElement@2@K@Z @936
    ?ActiveProp@Element@DirectUI@@SAPEBUPropertyInfo@2@XZ=C:/Windows/System32/DUI70.?ActiveProp@Element@DirectUI@@SAPEBUPropertyInfo@2@XZ @937
    ?ActiveStateChanged@TouchScrollBar@DirectUI@@SA?AVUID@@XZ=C:/Windows/System32/DUI70.?ActiveStateChanged@TouchScrollBar@DirectUI@@SA?AVUID@@XZ @938
    ?ActualReferencePointProp@RefPointElement@DirectUI@@SAPEBUPropertyInfo@2@XZ=C:/Windows/System32/DUI70.?ActualReferencePointProp@RefPointElement@DirectUI@@SAPEBUPropertyInfo@2@XZ @939
    ?Add@BaseScrollViewer@DirectUI@@UEAAJPEAPEAVElement@2@I@Z=C:/Windows/System32/DUI70.?Add@BaseScrollViewer@DirectUI@@UEAAJPEAPEAVElement@2@I@Z @940
    ?Add@Element@DirectUI@@QEAAJPEAV12@@Z=C:/Windows/System32/DUI70.?Add@Element@DirectUI@@QEAAJPEAV12@@Z @941
    ?Add@Element@DirectUI@@QEAAJPEAV12@P6AHPEBX1@Z@Z=C:/Windows/System32/DUI70.?Add@Element@DirectUI@@QEAAJPEAV12@P6AHPEBX1@Z@Z @942
    ?Add@Element@DirectUI@@UEAAJPEAPEAV12@I@Z=C:/Windows/System32/DUI70.?Add@Element@DirectUI@@UEAAJPEAPEAV12@I@Z @943
    ?Add@ElementProviderManager@DirectUI@@SAJPEAVElementProvider@2@@Z=C:/Windows/System32/DUI70.?Add@ElementProviderManager@DirectUI@@SAJPEAVElementProvider@2@@Z @944
    ?Add@Expando@DirectUI@@UEAAJPEAPEAVElement@2@I@Z=C:/Windows/System32/DUI70.?Add@Expando@DirectUI@@UEAAJPEAPEAVElement@2@I@Z @945
    ?Add@LinkedList@DirectUI@@QEAAXPEAVLinkedListNode@2@@Z=C:/Windows/System32/DUI70.?Add@LinkedList@DirectUI@@QEAAXPEAVLinkedListNode@2@@Z @946
    ?Add@Macro@DirectUI@@UEAAJPEAPEAVElement@2@I@Z=C:/Windows/System32/DUI70.?Add@Macro@DirectUI@@UEAAJPEAPEAVElement@2@I@Z @947
    ?Add@Pages@DirectUI@@UEAAJPEAPEAVElement@2@I@Z=C:/Windows/System32/DUI70.?Add@Pages@DirectUI@@UEAAJPEAPEAVElement@2@I@Z @948
    ?Add@TouchEdit2@DirectUI@@UEAAJPEAPEAVElement@2@I@Z=C:/Windows/System32/DUI70.?Add@TouchEdit2@DirectUI@@UEAAJPEAPEAVElement@2@I@Z @949
    ?Add@TouchSelect@DirectUI@@UEAAJPEAPEAVElement@2@I@Z=C:/Windows/System32/DUI70.?Add@TouchSelect@DirectUI@@UEAAJPEAPEAVElement@2@I@Z @950
    ?AddBehavior@Element@DirectUI@@UEAAJPEAUIDuiBehavior@@@Z=C:/Windows/System32/DUI70.?AddBehavior@Element@DirectUI@@UEAAJPEAUIDuiBehavior@@@Z @951
    ?AddChild@ClassInfoBase@DirectUI@@UEAAXXZ=C:/Windows/System32/DUI70.?AddChild@ClassInfoBase@DirectUI@@UEAAXXZ @952
    ?AddChildren@ScrollViewer@DirectUI@@MEAAJXZ=C:/Windows/System32/DUI70.?AddChildren@ScrollViewer@DirectUI@@MEAAJXZ @953
    ?AddChildren@StyledScrollViewer@DirectUI@@MEAAJXZ=C:/Windows/System32/DUI70.?AddChildren@StyledScrollViewer@DirectUI@@MEAAJXZ @954
    ?AddElement@TouchSelect@DirectUI@@QEAAJPEAVElement@2@PEBG@Z=C:/Windows/System32/DUI70.?AddElement@TouchSelect@DirectUI@@QEAAJPEAVElement@2@PEBG@Z @955
    ?AddListener@Element@DirectUI@@QEAAJPEAUIElementListener@2@@Z=C:/Windows/System32/DUI70.?AddListener@Element@DirectUI@@QEAAJPEAUIElementListener@2@@Z @956
    ?AddRectangleChange@EventManager@DirectUI@@CAJPEAVElement@2@_N1@Z=C:/Windows/System32/DUI70.?AddRectangleChange@EventManager@DirectUI@@CAJPEAVElement@2@_N1@Z @957
    ?AddRef@ClassInfoBase@DirectUI@@UEAAXXZ=C:/Windows/System32/DUI70.?AddRef@ClassInfoBase@DirectUI@@UEAAXXZ @958
    ?AddRef@DuiAccessible@DirectUI@@UEAAKXZ=C:/Windows/System32/DUI70.?AddRef@DuiAccessible@DirectUI@@UEAAKXZ @959
    ?AddRef@Element@DirectUI@@QEAAKXZ=C:/Windows/System32/DUI70.?AddRef@Element@DirectUI@@QEAAKXZ @960
    ?AddRef@ElementProvider@DirectUI@@UEAAKXZ=C:/Windows/System32/DUI70.?AddRef@ElementProvider@DirectUI@@UEAAKXZ @961
    ?AddRef@ExpandCollapseProvider@DirectUI@@UEAAKXZ=C:/Windows/System32/DUI70.?AddRef@ExpandCollapseProvider@DirectUI@@UEAAKXZ @962
    ?AddRef@GridItemProvider@DirectUI@@UEAAKXZ=C:/Windows/System32/DUI70.?AddRef@GridItemProvider@DirectUI@@UEAAKXZ @963
    ?AddRef@GridProvider@DirectUI@@UEAAKXZ=C:/Windows/System32/DUI70.?AddRef@GridProvider@DirectUI@@UEAAKXZ @964
    ?AddRef@HWNDElementProvider@DirectUI@@UEAAKXZ=C:/Windows/System32/DUI70.?AddRef@HWNDElementProvider@DirectUI@@UEAAKXZ @965
    ?AddRef@InvokeProvider@DirectUI@@UEAAKXZ=C:/Windows/System32/DUI70.?AddRef@InvokeProvider@DirectUI@@UEAAKXZ @966
    ?AddRef@RangeValueProvider@DirectUI@@UEAAKXZ=C:/Windows/System32/DUI70.?AddRef@RangeValueProvider@DirectUI@@UEAAKXZ @967
    ?AddRef@RefcountBase@DirectUI@@QEAAJXZ=C:/Windows/System32/DUI70.?AddRef@RefcountBase@DirectUI@@QEAAJXZ @968
    ?AddRef@ScrollItemProvider@DirectUI@@UEAAKXZ=C:/Windows/System32/DUI70.?AddRef@ScrollItemProvider@DirectUI@@UEAAKXZ @969
    ?AddRef@ScrollProvider@DirectUI@@UEAAKXZ=C:/Windows/System32/DUI70.?AddRef@ScrollProvider@DirectUI@@UEAAKXZ @970
    ?AddRef@SelectionItemProvider@DirectUI@@UEAAKXZ=C:/Windows/System32/DUI70.?AddRef@SelectionItemProvider@DirectUI@@UEAAKXZ @971
    ?AddRef@SelectionProvider@DirectUI@@UEAAKXZ=C:/Windows/System32/DUI70.?AddRef@SelectionProvider@DirectUI@@UEAAKXZ @972
    ?AddRef@TableItemProvider@DirectUI@@UEAAKXZ=C:/Windows/System32/DUI70.?AddRef@TableItemProvider@DirectUI@@UEAAKXZ @973
    ?AddRef@TableProvider@DirectUI@@UEAAKXZ=C:/Windows/System32/DUI70.?AddRef@TableProvider@DirectUI@@UEAAKXZ @974
    ?AddRef@ToggleProvider@DirectUI@@UEAAKXZ=C:/Windows/System32/DUI70.?AddRef@ToggleProvider@DirectUI@@UEAAKXZ @975
    ?AddRef@Value@DirectUI@@QEAAXXZ=C:/Windows/System32/DUI70.?AddRef@Value@DirectUI@@QEAAXXZ @976
    ?AddRef@ValueProvider@DirectUI@@UEAAKXZ=C:/Windows/System32/DUI70.?AddRef@ValueProvider@DirectUI@@UEAAKXZ @977
    ?AddRef@XProvider@DirectUI@@UEAAKXZ=C:/Windows/System32/DUI70.?AddRef@XProvider@DirectUI@@UEAAKXZ @978
    ?AddRulesToStyleSheet@DUIXmlParser@DirectUI@@IEAAJPEAUIXmlReader@@PEAVStyleSheet@2@PEBGPEAV?$DynamicArray@UXMLParserCond@DirectUI@@$0A@@2@PEAV?$DynamicArray@PEAG$0A@@2@@Z=C:/Windows/System32/DUI70.?AddRulesToStyleSheet@DUIXmlParser@DirectUI@@IEAAJPEAUIXmlReader@@PEAVStyleSheet@2@PEBGPEAV?$DynamicArray@UXMLParserCond@DirectUI@@$0A@@2@PEAV?$DynamicArray@PEAG$0A@@2@@Z @979
    ?AddString@CCListBox@DirectUI@@QEAAHPEBG@Z=C:/Windows/System32/DUI70.?AddString@CCListBox@DirectUI@@QEAAHPEBG@Z @980
    ?AddString@Combobox@DirectUI@@QEAAHPEBG@Z=C:/Windows/System32/DUI70.?AddString@Combobox@DirectUI@@QEAAHPEBG@Z @981
    ?AddString@TouchSelect@DirectUI@@QEAAJPEBG@Z=C:/Windows/System32/DUI70.?AddString@TouchSelect@DirectUI@@QEAAJPEBG@Z @982
    ?AddString@TouchSelect@DirectUI@@QEAAJPEBGPEAPEAVElement@2@@Z=C:/Windows/System32/DUI70.?AddString@TouchSelect@DirectUI@@QEAAJPEBGPEAPEAVElement@2@@Z @983
    ?AddStringWithLabelOverride@TouchSelect@DirectUI@@QEAAJPEBG0PEAPEAVElement@2@@Z=C:/Windows/System32/DUI70.?AddStringWithLabelOverride@TouchSelect@DirectUI@@QEAAJPEBG0PEAPEAVElement@2@@Z @984
    ?AddToSelection@NavigatorSelectionItemProxy@DirectUI@@AEAAJPEAVBrowser@2@@Z=C:/Windows/System32/DUI70.?AddToSelection@NavigatorSelectionItemProxy@DirectUI@@AEAAJPEAVBrowser@2@@Z @985
    ?AddToSelection@SelectionItemProvider@DirectUI@@UEAAJXZ=C:/Windows/System32/DUI70.?AddToSelection@SelectionItemProvider@DirectUI@@UEAAJXZ @986
    ?AddToSelection@SelectorSelectionItemProxy@DirectUI@@AEAAJXZ=C:/Windows/System32/DUI70.?AddToSelection@SelectorSelectionItemProxy@DirectUI@@AEAAJXZ @987
    ?AdvanceFrame@AnimationStrip@DirectUI@@IEAAXXZ=C:/Windows/System32/DUI70.?AdvanceFrame@AnimationStrip@DirectUI@@IEAAXXZ @988
    ?AdvanceFrame@Movie@DirectUI@@SA?AVUID@@XZ=C:/Windows/System32/DUI70.?AdvanceFrame@Movie@DirectUI@@SA?AVUID@@XZ @989
    ?AdviseEventAdded@ElementProvider@DirectUI@@UEAAJHPEAUtagSAFEARRAY@@@Z=C:/Windows/System32/DUI70.?AdviseEventAdded@ElementProvider@DirectUI@@UEAAJHPEAUtagSAFEARRAY@@@Z @990
    ?AdviseEventAdded@EventManager@DirectUI@@SAJHPEAUtagSAFEARRAY@@@Z=C:/Windows/System32/DUI70.?AdviseEventAdded@EventManager@DirectUI@@SAJHPEAUtagSAFEARRAY@@@Z @991
    ?AdviseEventRemoved@ElementProvider@DirectUI@@UEAAJHPEAUtagSAFEARRAY@@@Z=C:/Windows/System32/DUI70.?AdviseEventRemoved@ElementProvider@DirectUI@@UEAAJHPEAUtagSAFEARRAY@@@Z @992
    ?AdviseEventRemoved@EventManager@DirectUI@@SAJHPEAUtagSAFEARRAY@@@Z=C:/Windows/System32/DUI70.?AdviseEventRemoved@EventManager@DirectUI@@SAJHPEAUtagSAFEARRAY@@@Z @993
    ?AliasedRenderingProp@RichText@DirectUI@@SAPEBUPropertyInfo@2@XZ=C:/Windows/System32/DUI70.?AliasedRenderingProp@RichText@DirectUI@@SAPEBUPropertyInfo@2@XZ @994
    ?AlphaProp@Element@DirectUI@@SAPEBUPropertyInfo@2@XZ=C:/Windows/System32/DUI70.?AlphaProp@Element@DirectUI@@SAPEBUPropertyInfo@2@XZ @995
    ?AnimatePopupOnDismissProp@TouchSelect@DirectUI@@SAPEBUPropertyInfo@2@XZ=C:/Windows/System32/DUI70.?AnimatePopupOnDismissProp@TouchSelect@DirectUI@@SAPEBUPropertyInfo@2@XZ @996
    ?AnimateScroll@TouchScrollBar@DirectUI@@SA?AVUID@@XZ=C:/Windows/System32/DUI70.?AnimateScroll@TouchScrollBar@DirectUI@@SA?AVUID@@XZ @997
    ?AnimationChange@Element@DirectUI@@SA?AVUID@@XZ=C:/Windows/System32/DUI70.?AnimationChange@Element@DirectUI@@SA?AVUID@@XZ @998
    ?AnimationProp@Element@DirectUI@@SAPEBUPropertyInfo@2@XZ=C:/Windows/System32/DUI70.?AnimationProp@Element@DirectUI@@SAPEBUPropertyInfo@2@XZ @999
    ?AnimationStatusChange@PVLAnimation@DirectUI@@SA?AVUID@@XZ=C:/Windows/System32/DUI70.?AnimationStatusChange@PVLAnimation@DirectUI@@SA?AVUID@@XZ @1000
    ?ApplySinkRegion@HWNDHost@DirectUI@@AEAAXPEBUtagRECT@@_N@Z=C:/Windows/System32/DUI70.?ApplySinkRegion@HWNDHost@DirectUI@@AEAAXPEBUtagRECT@@_N@Z @1001
    ?Arrow@Expando@DirectUI@@KAGXZ=C:/Windows/System32/DUI70.?Arrow@Expando@DirectUI@@KAGXZ @1002
    ?AssertPIZeroRef@ClassInfoBase@DirectUI@@UEBAXXZ=C:/Windows/System32/DUI70.?AssertPIZeroRef@ClassInfoBase@DirectUI@@UEBAXXZ @1003
    ?AsyncContentLoadedEvent@Schema@DirectUI@@2HA=C:/Windows/System32/DUI70.?AsyncContentLoadedEvent@Schema@DirectUI@@2HA @1004
    ?Attach@Layout@DirectUI@@UEAAXPEAVElement@2@@Z=C:/Windows/System32/DUI70.?Attach@Layout@DirectUI@@UEAAXPEAVElement@2@@Z @1005
    ?AttachCtrlSubclassProc@HWNDHost@DirectUI@@KAXPEAUHWND__@@@Z=C:/Windows/System32/DUI70.?AttachCtrlSubclassProc@HWNDHost@DirectUI@@KAXPEAUHWND__@@@Z @1006
    ?AutoGroupingProp@CCRadioButton@DirectUI@@SAPEBUPropertyInfo@2@XZ=C:/Windows/System32/DUI70.?AutoGroupingProp@CCRadioButton@DirectUI@@SAPEBUPropertyInfo@2@XZ @1007
    ?AutoStartProp@Movie@DirectUI@@SAPEBUPropertyInfo@2@XZ=C:/Windows/System32/DUI70.?AutoStartProp@Movie@DirectUI@@SAPEBUPropertyInfo@2@XZ @1008
    ?AutoStopProp@Movie@DirectUI@@SAPEBUPropertyInfo@2@XZ=C:/Windows/System32/DUI70.?AutoStopProp@Movie@DirectUI@@SAPEBUPropertyInfo@2@XZ @1009
    ?AutomationFocusChangedEvent@Schema@DirectUI@@2HA=C:/Windows/System32/DUI70.?AutomationFocusChangedEvent@Schema@DirectUI@@2HA @1010
    ?AutomationIdProperty@Schema@DirectUI@@2HA=C:/Windows/System32/DUI70.?AutomationIdProperty@Schema@DirectUI@@2HA @1011
    ?AutomationPropertyChangedEvent@Schema@DirectUI@@2HA=C:/Windows/System32/DUI70.?AutomationPropertyChangedEvent@Schema@DirectUI@@2HA @1012
    ?BackgroundOwnerIDProp@HWNDHost@DirectUI@@SAPEBUPropertyInfo@2@XZ=C:/Windows/System32/DUI70.?BackgroundOwnerIDProp@HWNDHost@DirectUI@@SAPEBUPropertyInfo@2@XZ @1013
    ?BackgroundProp@Element@DirectUI@@SAPEBUPropertyInfo@2@XZ=C:/Windows/System32/DUI70.?BackgroundProp@Element@DirectUI@@SAPEBUPropertyInfo@2@XZ @1014
    ?BaselineProp@RichText@DirectUI@@SAPEBUPropertyInfo@2@XZ=C:/Windows/System32/DUI70.?BaselineProp@RichText@DirectUI@@SAPEBUPropertyInfo@2@XZ @1015
    ?BorderColorProp@Element@DirectUI@@SAPEBUPropertyInfo@2@XZ=C:/Windows/System32/DUI70.?BorderColorProp@Element@DirectUI@@SAPEBUPropertyInfo@2@XZ @1016
    ?BorderStyleProp@Element@DirectUI@@SAPEBUPropertyInfo@2@XZ=C:/Windows/System32/DUI70.?BorderStyleProp@Element@DirectUI@@SAPEBUPropertyInfo@2@XZ @1017
    ?BorderThicknessProp@Element@DirectUI@@SAPEBUPropertyInfo@2@XZ=C:/Windows/System32/DUI70.?BorderThicknessProp@Element@DirectUI@@SAPEBUPropertyInfo@2@XZ @1018
    ?BoundingRectangleProperty@Schema@DirectUI@@2HA=C:/Windows/System32/DUI70.?BoundingRectangleProperty@Schema@DirectUI@@2HA @1019
    ?BroadcastEvent@Element@DirectUI@@QEAAXPEAUEvent@2@@Z=C:/Windows/System32/DUI70.?BroadcastEvent@Element@DirectUI@@QEAAXPEAUEvent@2@@Z @1020
    ?BufferingProp@TouchSlider@DirectUI@@SAPEBUPropertyInfo@2@XZ=C:/Windows/System32/DUI70.?BufferingProp@TouchSlider@DirectUI@@SAPEBUPropertyInfo@2@XZ @1021
    ?BuildCacheInfo@FlowLayout@DirectUI@@IEAA?AUtagSIZE@@PEAVElement@2@HHPEAVSurface@2@_N@Z=C:/Windows/System32/DUI70.?BuildCacheInfo@FlowLayout@DirectUI@@IEAA?AUtagSIZE@@PEAVElement@2@HHPEAVSurface@2@_N@Z @1022
    ?BuildCacheInfo@VerticalFlowLayout@DirectUI@@IEAA?AUtagSIZE@@PEAVElement@2@HHPEAVSurface@2@_N@Z=C:/Windows/System32/DUI70.?BuildCacheInfo@VerticalFlowLayout@DirectUI@@IEAA?AUtagSIZE@@PEAVElement@2@HHPEAVSurface@2@_N@Z @1023
    ?BuildElement@Macro@DirectUI@@MEAAJXZ=C:/Windows/System32/DUI70.?BuildElement@Macro@DirectUI@@MEAAJXZ @1024
    ?BuildElement@Repeater@DirectUI@@MEAAJXZ=C:/Windows/System32/DUI70.?BuildElement@Repeater@DirectUI@@MEAAJXZ @1025
    ?ButtonClassAcceptsEnterKeyProp@DialogElement@DirectUI@@SAPEBUPropertyInfo@2@XZ=C:/Windows/System32/DUI70.?ButtonClassAcceptsEnterKeyProp@DialogElement@DirectUI@@SAPEBUPropertyInfo@2@XZ @1026
    ?ButtonControlType@Schema@DirectUI@@2HA=C:/Windows/System32/DUI70.?ButtonControlType@Schema@DirectUI@@2HA @1027
    ?CacheParser@XBaby@DirectUI@@UEAAXPEAVDUIXmlParser@2@@Z=C:/Windows/System32/DUI70.?CacheParser@XBaby@DirectUI@@UEAAXPEAVDUIXmlParser@2@@Z @1028
    ?CalendarControlType@Schema@DirectUI@@2HA=C:/Windows/System32/DUI70.?CalendarControlType@Schema@DirectUI@@2HA @1029
    ?CanPerformManualVisualSwap@TouchScrollViewer@DirectUI@@QEAA_NXZ=C:/Windows/System32/DUI70.?CanPerformManualVisualSwap@TouchScrollViewer@DirectUI@@QEAA_NXZ @1030
    ?CanSetFocus@HWNDElement@DirectUI@@UEAA_NXZ=C:/Windows/System32/DUI70.?CanSetFocus@HWNDElement@DirectUI@@UEAA_NXZ @1031
    ?CanSetFocus@XBaby@DirectUI@@UEAA_NXZ=C:/Windows/System32/DUI70.?CanSetFocus@XBaby@DirectUI@@UEAA_NXZ @1032
    ?CanSetFocus@XProvider@DirectUI@@UEAAJPEA_N@Z=C:/Windows/System32/DUI70.?CanSetFocus@XProvider@DirectUI@@UEAAJPEA_N@Z @1033
    ?CancelClick@TouchButton@DirectUI@@QEAA_NW4ClickDevice@12@@Z=C:/Windows/System32/DUI70.?CancelClick@TouchButton@DirectUI@@QEAA_NW4ClickDevice@12@@Z @1034
    ?CancelCurrentDrag@TouchSlider@DirectUI@@QEAAXXZ=C:/Windows/System32/DUI70.?CancelCurrentDrag@TouchSlider@DirectUI@@QEAAXXZ @1035
    ?CaptureCallstackFrames@CallstackTracker@DirectUI@@QEAAHXZ=C:/Windows/System32/DUI70.?CaptureCallstackFrames@CallstackTracker@DirectUI@@QEAAHXZ @1036
    ?CapturedProp@Button@DirectUI@@SAPEBUPropertyInfo@2@XZ=C:/Windows/System32/DUI70.?CapturedProp@Button@DirectUI@@SAPEBUPropertyInfo@2@XZ @1037
    ?CapturedProp@TouchButton@DirectUI@@SAPEBUPropertyInfo@2@XZ=C:/Windows/System32/DUI70.?CapturedProp@TouchButton@DirectUI@@SAPEBUPropertyInfo@2@XZ @1038
    ?CaretMoved@TouchEditBase@DirectUI@@SA?AVUID@@XZ=C:/Windows/System32/DUI70.?CaretMoved@TouchEditBase@DirectUI@@SA?AVUID@@XZ @1039
    ?CheckBoxControlType@Schema@DirectUI@@2HA=C:/Windows/System32/DUI70.?CheckBoxControlType@Schema@DirectUI@@2HA @1040
    ?CheckScroll@BaseScrollViewer@DirectUI@@AEAAXPEAVBaseScrollBar@2@HHH@Z=C:/Windows/System32/DUI70.?CheckScroll@BaseScrollViewer@DirectUI@@AEAAXPEAVBaseScrollBar@2@HHH@Z @1041
    ?CheckedStateProp@TouchCheckBox@DirectUI@@SAPEBUPropertyInfo@2@XZ=C:/Windows/System32/DUI70.?CheckedStateProp@TouchCheckBox@DirectUI@@SAPEBUPropertyInfo@2@XZ @1042
    ?ChildrenProp@Element@DirectUI@@SAPEBUPropertyInfo@2@XZ=C:/Windows/System32/DUI70.?ChildrenProp@Element@DirectUI@@SAPEBUPropertyInfo@2@XZ @1043
    ?ClassExist@ClassInfoBase@DirectUI@@SA_NPEAPEAUIClassInfo@2@PEBQEBUPropertyInfo@2@IPEAU32@PEAUHINSTANCE__@@PEBG_N@Z=C:/Windows/System32/DUI70.?ClassExist@ClassInfoBase@DirectUI@@SA_NPEAPEAUIClassInfo@2@PEBQEBUPropertyInfo@2@IPEAU32@PEAUHINSTANCE__@@PEBG_N@Z @1044
    ?ClassNameProperty@Schema@DirectUI@@2HA=C:/Windows/System32/DUI70.?ClassNameProperty@Schema@DirectUI@@2HA @1045
    ?ClassProp@Element@DirectUI@@SAPEBUPropertyInfo@2@XZ=C:/Windows/System32/DUI70.?ClassProp@Element@DirectUI@@SAPEBUPropertyInfo@2@XZ @1046
    ?ClearButtonClicked@TouchEdit2@DirectUI@@SA?AVUID@@XZ=C:/Windows/System32/DUI70.?ClearButtonClicked@TouchEdit2@DirectUI@@SA?AVUID@@XZ @1047
    ?ClearCacheDirty@Layout@DirectUI@@IEAAXXZ=C:/Windows/System32/DUI70.?ClearCacheDirty@Layout@DirectUI@@IEAAXXZ @1048
    ?ClearParser@DUIFactory@DirectUI@@AEAAXXZ=C:/Windows/System32/DUI70.?ClearParser@DUIFactory@DirectUI@@AEAAXXZ @1049
    ?Click@Button@DirectUI@@SA?AVUID@@XZ=C:/Windows/System32/DUI70.?Click@Button@DirectUI@@SA?AVUID@@XZ @1050
    ?Click@TouchButton@DirectUI@@SA?AVUID@@XZ=C:/Windows/System32/DUI70.?Click@TouchButton@DirectUI@@SA?AVUID@@XZ @1051
    ?ClickDefaultButton@DialogElement@DirectUI@@UEAA_NXZ=C:/Windows/System32/DUI70.?ClickDefaultButton@DialogElement@DirectUI@@UEAA_NXZ @1052
    ?ClickDefaultButton@DialogElementCore@DirectUI@@QEAA_NXZ=C:/Windows/System32/DUI70.?ClickDefaultButton@DialogElementCore@DirectUI@@QEAA_NXZ @1053
    ?ClickDefaultButton@XBaby@DirectUI@@UEAA_NXZ=C:/Windows/System32/DUI70.?ClickDefaultButton@XBaby@DirectUI@@UEAA_NXZ @1054
    ?ClickDefaultButton@XProvider@DirectUI@@UEAAHXZ=C:/Windows/System32/DUI70.?ClickDefaultButton@XProvider@DirectUI@@UEAAHXZ @1055
    ?ClickablePointProperty@Schema@DirectUI@@2HA=C:/Windows/System32/DUI70.?ClickablePointProperty@Schema@DirectUI@@2HA @1056
    ?Clipper@Expando@DirectUI@@KAGXZ=C:/Windows/System32/DUI70.?Clipper@Expando@DirectUI@@KAGXZ @1057
    ?Clone@DuiAccessible@DirectUI@@UEAAJPEAPEAUIEnumVARIANT@@@Z=C:/Windows/System32/DUI70.?Clone@DuiAccessible@DirectUI@@UEAAJPEAPEAUIEnumVARIANT@@@Z @1058
    ?Clone@HWNDHostAccessible@DirectUI@@UEAAJPEAPEAUIEnumVARIANT@@@Z=C:/Windows/System32/DUI70.?Clone@HWNDHostAccessible@DirectUI@@UEAAJPEAPEAUIEnumVARIANT@@@Z @1059
    ?Close@ElementProviderManager@DirectUI@@SAXXZ=C:/Windows/System32/DUI70.?Close@ElementProviderManager@DirectUI@@SAXXZ @1060
    ?Close@EventManager@DirectUI@@SAXXZ=C:/Windows/System32/DUI70.?Close@EventManager@DirectUI@@SAXXZ @1061
    ?Close@InvokeManager@DirectUI@@SAXXZ=C:/Windows/System32/DUI70.?Close@InvokeManager@DirectUI@@SAXXZ @1062
    ?ClosePopup@TouchSelect@DirectUI@@QEAAXXZ=C:/Windows/System32/DUI70.?ClosePopup@TouchSelect@DirectUI@@QEAAXXZ @1063
    ?CloseThread@InvokeManager@DirectUI@@SAXXZ=C:/Windows/System32/DUI70.?CloseThread@InvokeManager@DirectUI@@SAXXZ @1064
    ?Collapse@ExpandCollapseProvider@DirectUI@@UEAAJXZ=C:/Windows/System32/DUI70.?Collapse@ExpandCollapseProvider@DirectUI@@UEAAJXZ @1065
    ?ColorFontPaletteIndexProp@RichText@DirectUI@@SAPEBUPropertyInfo@2@XZ=C:/Windows/System32/DUI70.?ColorFontPaletteIndexProp@RichText@DirectUI@@SAPEBUPropertyInfo@2@XZ @1066
    ?ComboBoxControlType@Schema@DirectUI@@2HA=C:/Windows/System32/DUI70.?ComboBoxControlType@Schema@DirectUI@@2HA @1067
    ?CompositedTextProp@Element@DirectUI@@SAPEBUPropertyInfo@2@XZ=C:/Windows/System32/DUI70.?CompositedTextProp@Element@DirectUI@@SAPEBUPropertyInfo@2@XZ @1068
    ?CompositingQualityProp@Movie@DirectUI@@SAPEBUPropertyInfo@2@XZ=C:/Windows/System32/DUI70.?CompositingQualityProp@Movie@DirectUI@@SAPEBUPropertyInfo@2@XZ @1069
    ?CompositionChange@HWNDElement@DirectUI@@SA?AVUID@@XZ=C:/Windows/System32/DUI70.?CompositionChange@HWNDElement@DirectUI@@SA?AVUID@@XZ @1070
    ?ConnectProp@Bind@DirectUI@@SAPEBUPropertyInfo@2@XZ=C:/Windows/System32/DUI70.?ConnectProp@Bind@DirectUI@@SAPEBUPropertyInfo@2@XZ @1071
    ?ConstrainLayoutProp@RichText@DirectUI@@SAPEBUPropertyInfo@2@XZ=C:/Windows/System32/DUI70.?ConstrainLayoutProp@RichText@DirectUI@@SAPEBUPropertyInfo@2@XZ @1072
    ?ContentAlignProp@Element@DirectUI@@SAPEBUPropertyInfo@2@XZ=C:/Windows/System32/DUI70.?ContentAlignProp@Element@DirectUI@@SAPEBUPropertyInfo@2@XZ @1073
    ?ContentProp@Element@DirectUI@@SAPEBUPropertyInfo@2@XZ=C:/Windows/System32/DUI70.?ContentProp@Element@DirectUI@@SAPEBUPropertyInfo@2@XZ @1074
    ?Context@Button@DirectUI@@SA?AVUID@@XZ=C:/Windows/System32/DUI70.?Context@Button@DirectUI@@SA?AVUID@@XZ @1075
    ?ContextMenuHintShowing@ContextMenuBehavior@DirectUI@@SA?AVUID@@XZ=C:/Windows/System32/DUI70.?ContextMenuHintShowing@ContextMenuBehavior@DirectUI@@SA?AVUID@@XZ @1076
    ?ContextMenuRequested@ContextMenuBehavior@DirectUI@@SA?AVUID@@XZ=C:/Windows/System32/DUI70.?ContextMenuRequested@ContextMenuBehavior@DirectUI@@SA?AVUID@@XZ @1077
    ?ContextMenuRequested@TouchEdit2@DirectUI@@SA?AVUID@@XZ=C:/Windows/System32/DUI70.?ContextMenuRequested@TouchEdit2@DirectUI@@SA?AVUID@@XZ @1078
    ?ContextSensitiveHelp@DuiAccessible@DirectUI@@UEAAJH@Z=C:/Windows/System32/DUI70.?ContextSensitiveHelp@DuiAccessible@DirectUI@@UEAAJH@Z @1079
    ?ContextSensitiveHelp@HWNDHostAccessible@DirectUI@@UEAAJH@Z=C:/Windows/System32/DUI70.?ContextSensitiveHelp@HWNDHostAccessible@DirectUI@@UEAAJH@Z @1080
    ?ControlTypeProperty@Schema@DirectUI@@2HA=C:/Windows/System32/DUI70.?ControlTypeProperty@Schema@DirectUI@@2HA @1081
    ?CopySheets@DUIXmlParser@DirectUI@@QEAAJPEAPEAV?$DynamicArray@PEAVValue@DirectUI@@$0A@@2@@Z=C:/Windows/System32/DUI70.?CopySheets@DUIXmlParser@DirectUI@@QEAAJPEAPEAV?$DynamicArray@PEAVValue@DirectUI@@$0A@@2@@Z @1082
    ?Count@?$SafeArrayAccessor@H@DirectUI@@QEAAHXZ=C:/Windows/System32/DUI70.?Count@?$SafeArrayAccessor@H@DirectUI@@QEAAHXZ @1083
    ?Create@?$PatternProvider@VExpandCollapseProvider@DirectUI@@UIExpandCollapseProvider@@$00@DirectUI@@SAJPEAVElementProvider@2@PEAPEAUIUnknown@@@Z=C:/Windows/System32/DUI70.?Create@?$PatternProvider@VExpandCollapseProvider@DirectUI@@UIExpandCollapseProvider@@$00@DirectUI@@SAJPEAVElementProvider@2@PEAPEAUIUnknown@@@Z @1084
    ?Create@?$PatternProvider@VGridItemProvider@DirectUI@@UIGridItemProvider@@$01@DirectUI@@SAJPEAVElementProvider@2@PEAPEAUIUnknown@@@Z=C:/Windows/System32/DUI70.?Create@?$PatternProvider@VGridItemProvider@DirectUI@@UIGridItemProvider@@$01@DirectUI@@SAJPEAVElementProvider@2@PEAPEAUIUnknown@@@Z @1085
    ?Create@?$PatternProvider@VGridProvider@DirectUI@@UIGridProvider@@$02@DirectUI@@SAJPEAVElementProvider@2@PEAPEAUIUnknown@@@Z=C:/Windows/System32/DUI70.?Create@?$PatternProvider@VGridProvider@DirectUI@@UIGridProvider@@$02@DirectUI@@SAJPEAVElementProvider@2@PEAPEAUIUnknown@@@Z @1086
    ?Create@?$PatternProvider@VInvokeProvider@DirectUI@@UIInvokeProvider@@$0A@@DirectUI@@SAJPEAVElementProvider@2@PEAPEAUIUnknown@@@Z=C:/Windows/System32/DUI70.?Create@?$PatternProvider@VInvokeProvider@DirectUI@@UIInvokeProvider@@$0A@@DirectUI@@SAJPEAVElementProvider@2@PEAPEAUIUnknown@@@Z @1087
    ?Create@?$PatternProvider@VRangeValueProvider@DirectUI@@UIRangeValueProvider@@$03@DirectUI@@SAJPEAVElementProvider@2@PEAPEAUIUnknown@@@Z=C:/Windows/System32/DUI70.?Create@?$PatternProvider@VRangeValueProvider@DirectUI@@UIRangeValueProvider@@$03@DirectUI@@SAJPEAVElementProvider@2@PEAPEAUIUnknown@@@Z @1088
    ?Create@?$PatternProvider@VScrollItemProvider@DirectUI@@UIScrollItemProvider@@$05@DirectUI@@SAJPEAVElementProvider@2@PEAPEAUIUnknown@@@Z=C:/Windows/System32/DUI70.?Create@?$PatternProvider@VScrollItemProvider@DirectUI@@UIScrollItemProvider@@$05@DirectUI@@SAJPEAVElementProvider@2@PEAPEAUIUnknown@@@Z @1089
    ?Create@?$PatternProvider@VScrollProvider@DirectUI@@UIScrollProvider@@$04@DirectUI@@SAJPEAVElementProvider@2@PEAPEAUIUnknown@@@Z=C:/Windows/System32/DUI70.?Create@?$PatternProvider@VScrollProvider@DirectUI@@UIScrollProvider@@$04@DirectUI@@SAJPEAVElementProvider@2@PEAPEAUIUnknown@@@Z @1090
    ?Create@?$PatternProvider@VSelectionItemProvider@DirectUI@@UISelectionItemProvider@@$06@DirectUI@@SAJPEAVElementProvider@2@PEAPEAUIUnknown@@@Z=C:/Windows/System32/DUI70.?Create@?$PatternProvider@VSelectionItemProvider@DirectUI@@UISelectionItemProvider@@$06@DirectUI@@SAJPEAVElementProvider@2@PEAPEAUIUnknown@@@Z @1091
    ?Create@?$PatternProvider@VSelectionProvider@DirectUI@@UISelectionProvider@@$07@DirectUI@@SAJPEAVElementProvider@2@PEAPEAUIUnknown@@@Z=C:/Windows/System32/DUI70.?Create@?$PatternProvider@VSelectionProvider@DirectUI@@UISelectionProvider@@$07@DirectUI@@SAJPEAVElementProvider@2@PEAPEAUIUnknown@@@Z @1092
    ?Create@?$PatternProvider@VTableItemProvider@DirectUI@@UITableItemProvider@@$09@DirectUI@@SAJPEAVElementProvider@2@PEAPEAUIUnknown@@@Z=C:/Windows/System32/DUI70.?Create@?$PatternProvider@VTableItemProvider@DirectUI@@UITableItemProvider@@$09@DirectUI@@SAJPEAVElementProvider@2@PEAPEAUIUnknown@@@Z @1093
    ?Create@?$PatternProvider@VTableProvider@DirectUI@@UITableProvider@@$08@DirectUI@@SAJPEAVElementProvider@2@PEAPEAUIUnknown@@@Z=C:/Windows/System32/DUI70.?Create@?$PatternProvider@VTableProvider@DirectUI@@UITableProvider@@$08@DirectUI@@SAJPEAVElementProvider@2@PEAPEAUIUnknown@@@Z @1094
    ?Create@?$PatternProvider@VToggleProvider@DirectUI@@UIToggleProvider@@$0L@@DirectUI@@SAJPEAVElementProvider@2@PEAPEAUIUnknown@@@Z=C:/Windows/System32/DUI70.?Create@?$PatternProvider@VToggleProvider@DirectUI@@UIToggleProvider@@$0L@@DirectUI@@SAJPEAVElementProvider@2@PEAPEAUIUnknown@@@Z @1095
    ?Create@?$PatternProvider@VValueProvider@DirectUI@@UIValueProvider@@$0M@@DirectUI@@SAJPEAVElementProvider@2@PEAPEAUIUnknown@@@Z=C:/Windows/System32/DUI70.?Create@?$PatternProvider@VValueProvider@DirectUI@@UIValueProvider@@$0M@@DirectUI@@SAJPEAVElementProvider@2@PEAPEAUIUnknown@@@Z @1096
    ?Create@AcceleratorBehavior@@SAJPEAPEAUIDuiBehavior@@@Z=C:/Windows/System32/DUI70.?Create@AcceleratorBehavior@@SAJPEAPEAUIDuiBehavior@@@Z @1097
    ?Create@AccessibleButton@DirectUI@@SAJPEAVElement@2@PEAKPEAPEAV32@@Z=C:/Windows/System32/DUI70.?Create@AccessibleButton@DirectUI@@SAJPEAVElement@2@PEAKPEAPEAV32@@Z @1098
    ?Create@AnimationStrip@DirectUI@@SAJPEAVElement@2@PEAKPEAPEAV32@@Z=C:/Windows/System32/DUI70.?Create@AnimationStrip@DirectUI@@SAJPEAVElement@2@PEAKPEAPEAV32@@Z @1099
    ?Create@AutoButton@DirectUI@@SAJPEAVElement@2@PEAKPEAPEAV32@@Z=C:/Windows/System32/DUI70.?Create@AutoButton@DirectUI@@SAJPEAVElement@2@PEAKPEAPEAV32@@Z @1100
    ?Create@Bind@DirectUI@@SAJPEAVElement@2@PEAKPEAPEAV32@@Z=C:/Windows/System32/DUI70.?Create@Bind@DirectUI@@SAJPEAVElement@2@PEAKPEAPEAV32@@Z @1101
    ?Create@BorderLayout@DirectUI@@SAJHPEAHPEAPEAVValue@2@@Z=C:/Windows/System32/DUI70.?Create@BorderLayout@DirectUI@@SAJHPEAHPEAPEAVValue@2@@Z @1102
    ?Create@BorderLayout@DirectUI@@SAJPEAPEAVLayout@2@@Z=C:/Windows/System32/DUI70.?Create@BorderLayout@DirectUI@@SAJPEAPEAVLayout@2@@Z @1103
    ?Create@Browser@DirectUI@@SAJPEAVElement@2@PEAKPEAPEAV32@@Z=C:/Windows/System32/DUI70.?Create@Browser@DirectUI@@SAJPEAVElement@2@PEAKPEAPEAV32@@Z @1104
    ?Create@Button@DirectUI@@SAJIPEAVElement@2@PEAKPEAPEAV32@@Z=C:/Windows/System32/DUI70.?Create@Button@DirectUI@@SAJIPEAVElement@2@PEAKPEAPEAV32@@Z @1105
    ?Create@Button@DirectUI@@SAJPEAVElement@2@PEAKPEAPEAV32@@Z=C:/Windows/System32/DUI70.?Create@Button@DirectUI@@SAJPEAVElement@2@PEAKPEAPEAV32@@Z @1106
    ?Create@CCAVI@DirectUI@@SAJIPEAVElement@2@PEAKPEAPEAV32@@Z=C:/Windows/System32/DUI70.?Create@CCAVI@DirectUI@@SAJIPEAVElement@2@PEAKPEAPEAV32@@Z @1107
    ?Create@CCAVI@DirectUI@@SAJPEAVElement@2@PEAKPEAPEAV32@@Z=C:/Windows/System32/DUI70.?Create@CCAVI@DirectUI@@SAJPEAVElement@2@PEAKPEAPEAV32@@Z @1108
    ?Create@CCBase@DirectUI@@SAJIPEAVElement@2@PEAKPEAPEAV32@@Z=C:/Windows/System32/DUI70.?Create@CCBase@DirectUI@@SAJIPEAVElement@2@PEAKPEAPEAV32@@Z @1109
    ?Create@CCBase@DirectUI@@SAJPEAVElement@2@PEAKPEAPEAV32@@Z=C:/Windows/System32/DUI70.?Create@CCBase@DirectUI@@SAJPEAVElement@2@PEAKPEAPEAV32@@Z @1110
    ?Create@CCCheckBox@DirectUI@@SAJIPEAVElement@2@PEAKPEAPEAV32@@Z=C:/Windows/System32/DUI70.?Create@CCCheckBox@DirectUI@@SAJIPEAVElement@2@PEAKPEAPEAV32@@Z @1111
    ?Create@CCCheckBox@DirectUI@@SAJPEAVElement@2@PEAKPEAPEAV32@@Z=C:/Windows/System32/DUI70.?Create@CCCheckBox@DirectUI@@SAJPEAVElement@2@PEAKPEAPEAV32@@Z @1112
    ?Create@CCCommandLink@DirectUI@@SAJIPEAVElement@2@PEAKPEAPEAV32@@Z=C:/Windows/System32/DUI70.?Create@CCCommandLink@DirectUI@@SAJIPEAVElement@2@PEAKPEAPEAV32@@Z @1113
    ?Create@CCCommandLink@DirectUI@@SAJPEAVElement@2@PEAKPEAPEAV32@@Z=C:/Windows/System32/DUI70.?Create@CCCommandLink@DirectUI@@SAJPEAVElement@2@PEAKPEAPEAV32@@Z @1114
    ?Create@CCHScrollBar@DirectUI@@SAJIPEAVElement@2@PEAKPEAPEAV32@@Z=C:/Windows/System32/DUI70.?Create@CCHScrollBar@DirectUI@@SAJIPEAVElement@2@PEAKPEAPEAV32@@Z @1115
    ?Create@CCHScrollBar@DirectUI@@SAJPEAVElement@2@PEAKPEAPEAV32@@Z=C:/Windows/System32/DUI70.?Create@CCHScrollBar@DirectUI@@SAJPEAVElement@2@PEAKPEAPEAV32@@Z @1116
    ?Create@CCListBox@DirectUI@@SAJIPEAVElement@2@PEAKPEAPEAV32@@Z=C:/Windows/System32/DUI70.?Create@CCListBox@DirectUI@@SAJIPEAVElement@2@PEAKPEAPEAV32@@Z @1117
    ?Create@CCListBox@DirectUI@@SAJPEAVElement@2@PEAKPEAPEAV32@@Z=C:/Windows/System32/DUI70.?Create@CCListBox@DirectUI@@SAJPEAVElement@2@PEAKPEAPEAV32@@Z @1118
    ?Create@CCListView@DirectUI@@SAJIPEAVElement@2@PEAKPEAPEAV32@@Z=C:/Windows/System32/DUI70.?Create@CCListView@DirectUI@@SAJIPEAVElement@2@PEAKPEAPEAV32@@Z @1119
    ?Create@CCListView@DirectUI@@SAJPEAVElement@2@PEAKPEAPEAV32@@Z=C:/Windows/System32/DUI70.?Create@CCListView@DirectUI@@SAJPEAVElement@2@PEAKPEAPEAV32@@Z @1120
    ?Create@CCProgressBar@DirectUI@@SAJIPEAVElement@2@PEAKPEAPEAV32@@Z=C:/Windows/System32/DUI70.?Create@CCProgressBar@DirectUI@@SAJIPEAVElement@2@PEAKPEAPEAV32@@Z @1121
    ?Create@CCProgressBar@DirectUI@@SAJPEAVElement@2@PEAKPEAPEAV32@@Z=C:/Windows/System32/DUI70.?Create@CCProgressBar@DirectUI@@SAJPEAVElement@2@PEAKPEAPEAV32@@Z @1122
    ?Create@CCPushButton@DirectUI@@SAJIPEAVElement@2@PEAKPEAPEAV32@@Z=C:/Windows/System32/DUI70.?Create@CCPushButton@DirectUI@@SAJIPEAVElement@2@PEAKPEAPEAV32@@Z @1123
    ?Create@CCPushButton@DirectUI@@SAJPEAVElement@2@PEAKPEAPEAV32@@Z=C:/Windows/System32/DUI70.?Create@CCPushButton@DirectUI@@SAJPEAVElement@2@PEAKPEAPEAV32@@Z @1124
    ?Create@CCRadioButton@DirectUI@@SAJIPEAVElement@2@PEAKPEAPEAV32@@Z=C:/Windows/System32/DUI70.?Create@CCRadioButton@DirectUI@@SAJIPEAVElement@2@PEAKPEAPEAV32@@Z @1125
    ?Create@CCRadioButton@DirectUI@@SAJPEAVElement@2@PEAKPEAPEAV32@@Z=C:/Windows/System32/DUI70.?Create@CCRadioButton@DirectUI@@SAJPEAVElement@2@PEAKPEAPEAV32@@Z @1126
    ?Create@CCSysLink@DirectUI@@SAJIPEAVElement@2@PEAKPEAPEAV32@@Z=C:/Windows/System32/DUI70.?Create@CCSysLink@DirectUI@@SAJIPEAVElement@2@PEAKPEAPEAV32@@Z @1127
    ?Create@CCSysLink@DirectUI@@SAJPEAVElement@2@PEAKPEAPEAV32@@Z=C:/Windows/System32/DUI70.?Create@CCSysLink@DirectUI@@SAJPEAVElement@2@PEAKPEAPEAV32@@Z @1128
    ?Create@CCTrackBar@DirectUI@@SAJIPEAVElement@2@PEAKPEAPEAV32@@Z=C:/Windows/System32/DUI70.?Create@CCTrackBar@DirectUI@@SAJIPEAVElement@2@PEAKPEAPEAV32@@Z @1129
    ?Create@CCTrackBar@DirectUI@@SAJPEAVElement@2@PEAKPEAPEAV32@@Z=C:/Windows/System32/DUI70.?Create@CCTrackBar@DirectUI@@SAJPEAVElement@2@PEAKPEAPEAV32@@Z @1130
    ?Create@CCTreeView@DirectUI@@SAJIPEAVElement@2@PEAKPEAPEAV32@@Z=C:/Windows/System32/DUI70.?Create@CCTreeView@DirectUI@@SAJIPEAVElement@2@PEAKPEAPEAV32@@Z @1131
    ?Create@CCTreeView@DirectUI@@SAJPEAVElement@2@PEAKPEAPEAV32@@Z=C:/Windows/System32/DUI70.?Create@CCTreeView@DirectUI@@SAJPEAVElement@2@PEAKPEAPEAV32@@Z @1132
    ?Create@CCVScrollBar@DirectUI@@SAJIPEAVElement@2@PEAKPEAPEAV32@@Z=C:/Windows/System32/DUI70.?Create@CCVScrollBar@DirectUI@@SAJIPEAVElement@2@PEAKPEAPEAV32@@Z @1133
    ?Create@CCVScrollBar@DirectUI@@SAJPEAVElement@2@PEAKPEAPEAV32@@Z=C:/Windows/System32/DUI70.?Create@CCVScrollBar@DirectUI@@SAJPEAVElement@2@PEAKPEAPEAV32@@Z @1134
    ?Create@CheckBoxGlyph@DirectUI@@SAJIPEAVElement@2@PEAKPEAPEAV32@@Z=C:/Windows/System32/DUI70.?Create@CheckBoxGlyph@DirectUI@@SAJIPEAVElement@2@PEAKPEAPEAV32@@Z @1135
    ?Create@CheckBoxGlyph@DirectUI@@SAJPEAVElement@2@PEAKPEAPEAV32@@Z=C:/Windows/System32/DUI70.?Create@CheckBoxGlyph@DirectUI@@SAJPEAVElement@2@PEAKPEAPEAV32@@Z @1136
    ?Create@Clipper@DirectUI@@SAJPEAVElement@2@PEAKPEAPEAV32@@Z=C:/Windows/System32/DUI70.?Create@Clipper@DirectUI@@SAJPEAVElement@2@PEAKPEAPEAV32@@Z @1137
    ?Create@Combobox@DirectUI@@SAJIPEAVElement@2@PEAKPEAPEAV32@@Z=C:/Windows/System32/DUI70.?Create@Combobox@DirectUI@@SAJIPEAVElement@2@PEAKPEAPEAV32@@Z @1138
    ?Create@Combobox@DirectUI@@SAJPEAVElement@2@PEAKPEAPEAV32@@Z=C:/Windows/System32/DUI70.?Create@Combobox@DirectUI@@SAJPEAVElement@2@PEAKPEAPEAV32@@Z @1139
    ?Create@ContextMenuBehavior@DirectUI@@SAJPEAPEAUIDuiBehavior@@@Z=C:/Windows/System32/DUI70.?Create@ContextMenuBehavior@DirectUI@@SAJPEAPEAUIDuiBehavior@@@Z @1140
    ?Create@DUIXmlParser@DirectUI@@SAJPEAPEAV12@P6APEAVValue@2@PEBGPEAX@Z2P6AX11H2@Z2@Z=C:/Windows/System32/DUI70.?Create@DUIXmlParser@DirectUI@@SAJPEAPEAV12@P6APEAVValue@2@PEBGPEAX@Z2P6AX11H2@Z2@Z @1141
    ?Create@DialogElement@DirectUI@@SAJPEAUHWND__@@_NIPEAVElement@2@PEAKPEAPEAV42@@Z=C:/Windows/System32/DUI70.?Create@DialogElement@DirectUI@@SAJPEAUHWND__@@_NIPEAVElement@2@PEAKPEAPEAV42@@Z @1142
    ?Create@DuiAccessible@DirectUI@@SAJPEAVElement@2@PEAPEAV12@@Z=C:/Windows/System32/DUI70.?Create@DuiAccessible@DirectUI@@SAJPEAVElement@2@PEAPEAV12@@Z @1143
    ?Create@Edit@DirectUI@@SAJIPEAVElement@2@PEAKPEAPEAV32@@Z=C:/Windows/System32/DUI70.?Create@Edit@DirectUI@@SAJIPEAVElement@2@PEAKPEAPEAV32@@Z @1144
    ?Create@Edit@DirectUI@@SAJPEAVElement@2@PEAKPEAPEAV32@@Z=C:/Windows/System32/DUI70.?Create@Edit@DirectUI@@SAJPEAVElement@2@PEAKPEAPEAV32@@Z @1145
    ?Create@Element@DirectUI@@SAJIPEAV12@PEAKPEAPEAV12@@Z=C:/Windows/System32/DUI70.?Create@Element@DirectUI@@SAJIPEAV12@PEAKPEAPEAV12@@Z @1146
    ?Create@ElementProvider@DirectUI@@SAJPEAVElement@2@PEAVInvokeHelper@2@PEAPEAV12@@Z=C:/Windows/System32/DUI70.?Create@ElementProvider@DirectUI@@SAJPEAVElement@2@PEAVInvokeHelper@2@PEAPEAV12@@Z @1147
    ?Create@ElementProxy@DirectUI@@SAPEAV12@PEAVElement@2@@Z=C:/Windows/System32/DUI70.?Create@ElementProxy@DirectUI@@SAPEAV12@PEAVElement@2@@Z @1148
    ?Create@ElementWithHWND@DirectUI@@SAJPEAVElement@2@PEAKPEAPEAV32@@Z=C:/Windows/System32/DUI70.?Create@ElementWithHWND@DirectUI@@SAJPEAVElement@2@PEAKPEAPEAV32@@Z @1149
    ?Create@ExpandCollapseProxy@DirectUI@@SAPEAV12@PEAVElement@2@@Z=C:/Windows/System32/DUI70.?Create@ExpandCollapseProxy@DirectUI@@SAPEAV12@PEAVElement@2@@Z @1150
    ?Create@Expandable@DirectUI@@SAJPEAVElement@2@PEAKPEAPEAV32@@Z=C:/Windows/System32/DUI70.?Create@Expandable@DirectUI@@SAJPEAVElement@2@PEAKPEAPEAV32@@Z @1151
    ?Create@Expando@DirectUI@@SAJPEAVElement@2@PEAKPEAPEAV32@@Z=C:/Windows/System32/DUI70.?Create@Expando@DirectUI@@SAJPEAVElement@2@PEAKPEAPEAV32@@Z @1152
    ?Create@ExpandoButtonGlyph@DirectUI@@SAJIPEAVElement@2@PEAKPEAPEAV32@@Z=C:/Windows/System32/DUI70.?Create@ExpandoButtonGlyph@DirectUI@@SAJIPEAVElement@2@PEAKPEAPEAV32@@Z @1153
    ?Create@ExpandoButtonGlyph@DirectUI@@SAJPEAVElement@2@PEAKPEAPEAV32@@Z=C:/Windows/System32/DUI70.?Create@ExpandoButtonGlyph@DirectUI@@SAJPEAVElement@2@PEAKPEAPEAV32@@Z @1154
    ?Create@FillLayout@DirectUI@@SAJHPEAHPEAPEAVValue@2@@Z=C:/Windows/System32/DUI70.?Create@FillLayout@DirectUI@@SAJHPEAHPEAPEAVValue@2@@Z @1155
    ?Create@FillLayout@DirectUI@@SAJPEAPEAVLayout@2@@Z=C:/Windows/System32/DUI70.?Create@FillLayout@DirectUI@@SAJPEAPEAVLayout@2@@Z @1156
    ?Create@FlowLayout@DirectUI@@SAJHPEAHPEAPEAVValue@2@@Z=C:/Windows/System32/DUI70.?Create@FlowLayout@DirectUI@@SAJHPEAHPEAPEAVValue@2@@Z @1157
    ?Create@FlowLayout@DirectUI@@SAJ_NIIIPEAPEAVLayout@2@@Z=C:/Windows/System32/DUI70.?Create@FlowLayout@DirectUI@@SAJ_NIIIPEAPEAVLayout@2@@Z @1158
    ?Create@GridItemProxy@DirectUI@@SAPEAV12@PEAVElement@2@@Z=C:/Windows/System32/DUI70.?Create@GridItemProxy@DirectUI@@SAPEAV12@PEAVElement@2@@Z @1159
    ?Create@GridLayout@DirectUI@@SAJHHPEAPEAVLayout@2@@Z=C:/Windows/System32/DUI70.?Create@GridLayout@DirectUI@@SAJHHPEAPEAVLayout@2@@Z @1160
    ?Create@GridLayout@DirectUI@@SAJHPEAHPEAPEAVValue@2@@Z=C:/Windows/System32/DUI70.?Create@GridLayout@DirectUI@@SAJHPEAHPEAPEAVValue@2@@Z @1161
    ?Create@GridProxy@DirectUI@@SAPEAV12@PEAVElement@2@@Z=C:/Windows/System32/DUI70.?Create@GridProxy@DirectUI@@SAPEAV12@PEAVElement@2@@Z @1162
    ?Create@HWNDElement@DirectUI@@SAJPEAUHWND__@@_NIPEAVElement@2@PEAKPEAPEAV42@@Z=C:/Windows/System32/DUI70.?Create@HWNDElement@DirectUI@@SAJPEAUHWND__@@_NIPEAVElement@2@PEAKPEAPEAV42@@Z @1163
    ?Create@HWNDElementAccessible@DirectUI@@SAJPEAVHWNDElement@2@PEAPEAVDuiAccessible@2@@Z=C:/Windows/System32/DUI70.?Create@HWNDElementAccessible@DirectUI@@SAJPEAVHWNDElement@2@PEAPEAVDuiAccessible@2@@Z @1164
    ?Create@HWNDElementProvider@DirectUI@@SAJPEAVHWNDElement@2@PEAVInvokeHelper@2@PEAPEAV12@@Z=C:/Windows/System32/DUI70.?Create@HWNDElementProvider@DirectUI@@SAJPEAVHWNDElement@2@PEAVInvokeHelper@2@PEAPEAV12@@Z @1165
    ?Create@HWNDElementProxy@DirectUI@@SAPEAV12@PEAVHWNDElement@2@@Z=C:/Windows/System32/DUI70.?Create@HWNDElementProxy@DirectUI@@SAPEAV12@PEAVHWNDElement@2@@Z @1166
    ?Create@HWNDHost@DirectUI@@SAJIIPEAVElement@2@PEAKPEAPEAV32@@Z=C:/Windows/System32/DUI70.?Create@HWNDHost@DirectUI@@SAJIIPEAVElement@2@PEAKPEAPEAV32@@Z @1167
    ?Create@HWNDHost@DirectUI@@SAJPEAVElement@2@PEAKPEAPEAV32@@Z=C:/Windows/System32/DUI70.?Create@HWNDHost@DirectUI@@SAJPEAVElement@2@PEAKPEAPEAV32@@Z @1168
    ?Create@HWNDHostAccessible@DirectUI@@SAJPEAVElement@2@PEAUIAccessible@@PEAPEAVDuiAccessible@2@@Z=C:/Windows/System32/DUI70.?Create@HWNDHostAccessible@DirectUI@@SAJPEAVElement@2@PEAUIAccessible@@PEAPEAVDuiAccessible@2@@Z @1169
    ?Create@HWNDHostClientAccessible@DirectUI@@SAJPEAVElement@2@PEAUIAccessible@@PEAPEAVDuiAccessible@2@@Z=C:/Windows/System32/DUI70.?Create@HWNDHostClientAccessible@DirectUI@@SAJPEAVElement@2@PEAUIAccessible@@PEAPEAVDuiAccessible@2@@Z @1170
    ?Create@InvokeProxy@DirectUI@@SAPEAV12@PEAVElement@2@@Z=C:/Windows/System32/DUI70.?Create@InvokeProxy@DirectUI@@SAPEAV12@PEAVElement@2@@Z @1171
    ?Create@ItemList@DirectUI@@SAJPEAVElement@2@PEAKPEAPEAV32@@Z=C:/Windows/System32/DUI70.?Create@ItemList@DirectUI@@SAJPEAVElement@2@PEAKPEAPEAV32@@Z @1172
    ?Create@Layout@DirectUI@@SAJPEAPEAV12@@Z=C:/Windows/System32/DUI70.?Create@Layout@DirectUI@@SAJPEAPEAV12@@Z @1173
    ?Create@Macro@DirectUI@@SAJPEAVElement@2@PEAKPEAPEAV32@@Z=C:/Windows/System32/DUI70.?Create@Macro@DirectUI@@SAJPEAVElement@2@PEAKPEAPEAV32@@Z @1174
    ?Create@ModernProgressBar@DirectUI@@SAJPEAVElement@2@PEAKPEAPEAV32@@Z=C:/Windows/System32/DUI70.?Create@ModernProgressBar@DirectUI@@SAJPEAVElement@2@PEAKPEAPEAV32@@Z @1175
    ?Create@ModernProgressRing@DirectUI@@SAJPEAVElement@2@PEAKPEAPEAV32@@Z=C:/Windows/System32/DUI70.?Create@ModernProgressRing@DirectUI@@SAJPEAVElement@2@PEAKPEAPEAV32@@Z @1176
    ?Create@Movie@DirectUI@@SAJIPEAVElement@2@PEAKPEAPEAV32@@Z=C:/Windows/System32/DUI70.?Create@Movie@DirectUI@@SAJIPEAVElement@2@PEAKPEAPEAV32@@Z @1177
    ?Create@Movie@DirectUI@@SAJPEAVElement@2@PEAKPEAPEAV32@@Z=C:/Windows/System32/DUI70.?Create@Movie@DirectUI@@SAJPEAVElement@2@PEAKPEAPEAV32@@Z @1178
    ?Create@NativeHWNDHost@DirectUI@@SAJPEBG0PEAUHWND__@@PEAUHICON__@@HHHHHHPEAUHINSTANCE__@@IPEAPEAV12@@Z=C:/Windows/System32/DUI70.?Create@NativeHWNDHost@DirectUI@@SAJPEBG0PEAUHWND__@@PEAUHICON__@@HHHHHHPEAUHINSTANCE__@@IPEAPEAV12@@Z @1179
    ?Create@NativeHWNDHost@DirectUI@@SAJPEBGPEAUHWND__@@PEAUHICON__@@HHHHHHIPEAPEAV12@@Z=C:/Windows/System32/DUI70.?Create@NativeHWNDHost@DirectUI@@SAJPEBGPEAUHWND__@@PEAUHICON__@@HHHHHHIPEAPEAV12@@Z @1180
    ?Create@Navigator@DirectUI@@SAJPEAVElement@2@PEAKPEAPEAV32@@Z=C:/Windows/System32/DUI70.?Create@Navigator@DirectUI@@SAJPEAVElement@2@PEAKPEAPEAV32@@Z @1181
    ?Create@NineGridLayout@DirectUI@@SAJHPEAHPEAPEAVValue@2@@Z=C:/Windows/System32/DUI70.?Create@NineGridLayout@DirectUI@@SAJHPEAHPEAPEAVValue@2@@Z @1182
    ?Create@NineGridLayout@DirectUI@@SAJPEAPEAVLayout@2@@Z=C:/Windows/System32/DUI70.?Create@NineGridLayout@DirectUI@@SAJPEAPEAVLayout@2@@Z @1183
    ?Create@PText@DirectUI@@SAJPEAVElement@2@PEAKPEAPEAV32@@Z=C:/Windows/System32/DUI70.?Create@PText@DirectUI@@SAJPEAVElement@2@PEAKPEAPEAV32@@Z @1184
    ?Create@Page@DirectUI@@SAJPEAVElement@2@PEAKPEAPEAV32@@Z=C:/Windows/System32/DUI70.?Create@Page@DirectUI@@SAJPEAVElement@2@PEAKPEAPEAV32@@Z @1185
    ?Create@Pages@DirectUI@@SAJPEAVElement@2@PEAKPEAPEAV32@@Z=C:/Windows/System32/DUI70.?Create@Pages@DirectUI@@SAJPEAVElement@2@PEAKPEAPEAV32@@Z @1186
    ?Create@Progress@DirectUI@@SAJPEAVElement@2@PEAKPEAPEAV32@@Z=C:/Windows/System32/DUI70.?Create@Progress@DirectUI@@SAJPEAVElement@2@PEAKPEAPEAV32@@Z @1187
    ?Create@PushButton@DirectUI@@SAJPEAVElement@2@PEAKPEAPEAV32@@Z=C:/Windows/System32/DUI70.?Create@PushButton@DirectUI@@SAJPEAVElement@2@PEAKPEAPEAV32@@Z @1188
    ?Create@RadioButtonGlyph@DirectUI@@SAJIPEAVElement@2@PEAKPEAPEAV32@@Z=C:/Windows/System32/DUI70.?Create@RadioButtonGlyph@DirectUI@@SAJIPEAVElement@2@PEAKPEAPEAV32@@Z @1189
    ?Create@RadioButtonGlyph@DirectUI@@SAJPEAVElement@2@PEAKPEAPEAV32@@Z=C:/Windows/System32/DUI70.?Create@RadioButtonGlyph@DirectUI@@SAJPEAVElement@2@PEAKPEAPEAV32@@Z @1190
    ?Create@RangeValueProxy@DirectUI@@SAPEAV12@PEAVElement@2@@Z=C:/Windows/System32/DUI70.?Create@RangeValueProxy@DirectUI@@SAPEAV12@PEAVElement@2@@Z @1191
    ?Create@RefPointElement@DirectUI@@SAJIPEAVElement@2@PEAKPEAPEAV32@@Z=C:/Windows/System32/DUI70.?Create@RefPointElement@DirectUI@@SAJIPEAVElement@2@PEAKPEAPEAV32@@Z @1192
    ?Create@RefPointElement@DirectUI@@SAJPEAVElement@2@PEAKPEAPEAV32@@Z=C:/Windows/System32/DUI70.?Create@RefPointElement@DirectUI@@SAJPEAVElement@2@PEAKPEAPEAV32@@Z @1193
    ?Create@RepeatButton@DirectUI@@SAJIPEAVElement@2@PEAKPEAPEAV32@@Z=C:/Windows/System32/DUI70.?Create@RepeatButton@DirectUI@@SAJIPEAVElement@2@PEAKPEAPEAV32@@Z @1194
    ?Create@RepeatButton@DirectUI@@SAJPEAVElement@2@PEAKPEAPEAV32@@Z=C:/Windows/System32/DUI70.?Create@RepeatButton@DirectUI@@SAJPEAVElement@2@PEAKPEAPEAV32@@Z @1195
    ?Create@Repeater@DirectUI@@SAJPEAVElement@2@PEAKPEAPEAV32@@Z=C:/Windows/System32/DUI70.?Create@Repeater@DirectUI@@SAJPEAVElement@2@PEAKPEAPEAV32@@Z @1196
    ?Create@RichText@DirectUI@@SAJPEAVElement@2@PEAKPEAPEAV32@@Z=C:/Windows/System32/DUI70.?Create@RichText@DirectUI@@SAJPEAVElement@2@PEAKPEAPEAV32@@Z @1197
    ?Create@RowLayout@DirectUI@@SAJHIIPEAPEAVLayout@2@@Z=C:/Windows/System32/DUI70.?Create@RowLayout@DirectUI@@SAJHIIPEAPEAVLayout@2@@Z @1198
    ?Create@RowLayout@DirectUI@@SAJHPEAHPEAPEAVValue@2@@Z=C:/Windows/System32/DUI70.?Create@RowLayout@DirectUI@@SAJHPEAHPEAPEAVValue@2@@Z @1199
    ?Create@RowLayout@DirectUI@@SAJIIPEAPEAVLayout@2@@Z=C:/Windows/System32/DUI70.?Create@RowLayout@DirectUI@@SAJIIPEAPEAVLayout@2@@Z @1200
    ?Create@ScrollBar@DirectUI@@SAJPEAVElement@2@PEAKPEAPEAV32@@Z=C:/Windows/System32/DUI70.?Create@ScrollBar@DirectUI@@SAJPEAVElement@2@PEAKPEAPEAV32@@Z @1201
    ?Create@ScrollBar@DirectUI@@SAJ_NPEAVElement@2@PEAKPEAPEAV32@@Z=C:/Windows/System32/DUI70.?Create@ScrollBar@DirectUI@@SAJ_NPEAVElement@2@PEAKPEAPEAV32@@Z @1202
    ?Create@ScrollItemProxy@DirectUI@@SAPEAV12@PEAVElement@2@@Z=C:/Windows/System32/DUI70.?Create@ScrollItemProxy@DirectUI@@SAPEAV12@PEAVElement@2@@Z @1203
    ?Create@ScrollProxy@DirectUI@@SAPEAV12@PEAVElement@2@@Z=C:/Windows/System32/DUI70.?Create@ScrollProxy@DirectUI@@SAPEAV12@PEAVElement@2@@Z @1204
    ?Create@ScrollViewer@DirectUI@@SAJPEAVElement@2@PEAKPEAPEAV32@@Z=C:/Windows/System32/DUI70.?Create@ScrollViewer@DirectUI@@SAJPEAVElement@2@PEAKPEAPEAV32@@Z @1205
    ?Create@ScrubBehavior@@SAJPEAPEAUIDuiBehavior@@@Z=C:/Windows/System32/DUI70.?Create@ScrubBehavior@@SAJPEAPEAUIDuiBehavior@@@Z @1206
    ?Create@SelectionItemProxy@DirectUI@@SAPEAV12@PEAVElement@2@@Z=C:/Windows/System32/DUI70.?Create@SelectionItemProxy@DirectUI@@SAPEAV12@PEAVElement@2@@Z @1207
    ?Create@SelectionProxy@DirectUI@@SAPEAV12@PEAVElement@2@@Z=C:/Windows/System32/DUI70.?Create@SelectionProxy@DirectUI@@SAPEAV12@PEAVElement@2@@Z @1208
    ?Create@Selector@DirectUI@@SAJPEAVElement@2@PEAKPEAPEAV32@@Z=C:/Windows/System32/DUI70.?Create@Selector@DirectUI@@SAJPEAVElement@2@PEAKPEAPEAV32@@Z @1209
    ?Create@SelectorNoDefault@DirectUI@@SAJPEAVElement@2@PEAKPEAPEAV32@@Z=C:/Windows/System32/DUI70.?Create@SelectorNoDefault@DirectUI@@SAJPEAVElement@2@PEAKPEAPEAV32@@Z @1210
    ?Create@SemanticZoomToggle@DirectUI@@SAJPEAVElement@2@PEAKPEAPEAV32@@Z=C:/Windows/System32/DUI70.?Create@SemanticZoomToggle@DirectUI@@SAJPEAVElement@2@PEAKPEAPEAV32@@Z @1211
    ?Create@ShellBorderLayout@DirectUI@@SAJHPEAHPEAPEAVValue@2@@Z=C:/Windows/System32/DUI70.?Create@ShellBorderLayout@DirectUI@@SAJHPEAHPEAPEAVValue@2@@Z @1212
    ?Create@ShellBorderLayout@DirectUI@@SAJPEAPEAVLayout@2@@Z=C:/Windows/System32/DUI70.?Create@ShellBorderLayout@DirectUI@@SAJPEAPEAVLayout@2@@Z @1213
    ?Create@StyleSheet@DirectUI@@SAJPEAPEAV12@@Z=C:/Windows/System32/DUI70.?Create@StyleSheet@DirectUI@@SAJPEAPEAV12@@Z @1214
    ?Create@StyledScrollViewer@DirectUI@@SAJPEAVElement@2@PEAKPEAPEAV32@@Z=C:/Windows/System32/DUI70.?Create@StyledScrollViewer@DirectUI@@SAJPEAVElement@2@PEAKPEAPEAV32@@Z @1215
    ?Create@TableItemProxy@DirectUI@@SAPEAV12@PEAVElement@2@@Z=C:/Windows/System32/DUI70.?Create@TableItemProxy@DirectUI@@SAPEAV12@PEAVElement@2@@Z @1216
    ?Create@TableLayout@DirectUI@@SAJHPEAHPEAPEAVValue@2@@Z=C:/Windows/System32/DUI70.?Create@TableLayout@DirectUI@@SAJHPEAHPEAPEAVValue@2@@Z @1217
    ?Create@TableProxy@DirectUI@@SAPEAV12@PEAVElement@2@@Z=C:/Windows/System32/DUI70.?Create@TableProxy@DirectUI@@SAPEAV12@PEAVElement@2@@Z @1218
    ?Create@TextGraphic@DirectUI@@SAJPEAVElement@2@PEAKPEAPEAV32@@Z=C:/Windows/System32/DUI70.?Create@TextGraphic@DirectUI@@SAJPEAVElement@2@PEAKPEAPEAV32@@Z @1219
    ?Create@Thumb@DirectUI@@SAJIPEAVElement@2@PEAKPEAPEAV32@@Z=C:/Windows/System32/DUI70.?Create@Thumb@DirectUI@@SAJIPEAVElement@2@PEAKPEAPEAV32@@Z @1220
    ?Create@Thumb@DirectUI@@SAJPEAVElement@2@PEAKPEAPEAV32@@Z=C:/Windows/System32/DUI70.?Create@Thumb@DirectUI@@SAJPEAVElement@2@PEAKPEAPEAV32@@Z @1221
    ?Create@ToggleProxy@DirectUI@@SAPEAV12@PEAVElement@2@@Z=C:/Windows/System32/DUI70.?Create@ToggleProxy@DirectUI@@SAPEAV12@PEAVElement@2@@Z @1222
    ?Create@TouchButton@DirectUI@@SAJIPEAVElement@2@PEAKPEAPEAV32@@Z=C:/Windows/System32/DUI70.?Create@TouchButton@DirectUI@@SAJIPEAVElement@2@PEAKPEAPEAV32@@Z @1223
    ?Create@TouchButton@DirectUI@@SAJPEAVElement@2@PEAKPEAPEAV32@@Z=C:/Windows/System32/DUI70.?Create@TouchButton@DirectUI@@SAJPEAVElement@2@PEAKPEAPEAV32@@Z @1224
    ?Create@TouchCheckBox@DirectUI@@SAJIPEAVElement@2@PEAKPEAPEAV32@@Z=C:/Windows/System32/DUI70.?Create@TouchCheckBox@DirectUI@@SAJIPEAVElement@2@PEAKPEAPEAV32@@Z @1225
    ?Create@TouchCheckBox@DirectUI@@SAJPEAVElement@2@PEAKPEAPEAV32@@Z=C:/Windows/System32/DUI70.?Create@TouchCheckBox@DirectUI@@SAJPEAVElement@2@PEAKPEAPEAV32@@Z @1226
    ?Create@TouchCheckBoxGlyph@DirectUI@@SAJPEAVElement@2@PEAKPEAPEAV32@@Z=C:/Windows/System32/DUI70.?Create@TouchCheckBoxGlyph@DirectUI@@SAJPEAVElement@2@PEAKPEAPEAV32@@Z @1227
    ?Create@TouchCommandButton@DirectUI@@SAJIPEAVElement@2@PEAKPEAPEAV32@@Z=C:/Windows/System32/DUI70.?Create@TouchCommandButton@DirectUI@@SAJIPEAVElement@2@PEAKPEAPEAV32@@Z @1228
    ?Create@TouchCommandButton@DirectUI@@SAJPEAVElement@2@PEAKPEAPEAV32@@Z=C:/Windows/System32/DUI70.?Create@TouchCommandButton@DirectUI@@SAJPEAVElement@2@PEAKPEAPEAV32@@Z @1229
    ?Create@TouchEdit2@DirectUI@@SAJPEAVElement@2@PEAKPEAPEAV32@@Z=C:/Windows/System32/DUI70.?Create@TouchEdit2@DirectUI@@SAJPEAVElement@2@PEAKPEAPEAV32@@Z @1230
    ?Create@TouchEditBase@DirectUI@@SAJPEAVElement@2@PEAKPEAPEAV32@@Z=C:/Windows/System32/DUI70.?Create@TouchEditBase@DirectUI@@SAJPEAVElement@2@PEAKPEAPEAV32@@Z @1231
    ?Create@TouchHWNDElement@DirectUI@@SAJPEAUHWND__@@_NIPEAVElement@2@PEAKPEAPEAV42@@Z=C:/Windows/System32/DUI70.?Create@TouchHWNDElement@DirectUI@@SAJPEAUHWND__@@_NIPEAVElement@2@PEAKPEAPEAV42@@Z @1232
    ?Create@TouchHyperLink@DirectUI@@SAJIPEAVElement@2@PEAKPEAPEAV32@@Z=C:/Windows/System32/DUI70.?Create@TouchHyperLink@DirectUI@@SAJIPEAVElement@2@PEAKPEAPEAV32@@Z @1233
    ?Create@TouchHyperLink@DirectUI@@SAJPEAVElement@2@PEAKPEAPEAV32@@Z=C:/Windows/System32/DUI70.?Create@TouchHyperLink@DirectUI@@SAJPEAVElement@2@PEAKPEAPEAV32@@Z @1234
    ?Create@TouchRepeatButton@DirectUI@@SAJIPEAVElement@2@PEAKPEAPEAV32@@Z=C:/Windows/System32/DUI70.?Create@TouchRepeatButton@DirectUI@@SAJIPEAVElement@2@PEAKPEAPEAV32@@Z @1235
    ?Create@TouchRepeatButton@DirectUI@@SAJPEAVElement@2@PEAKPEAPEAV32@@Z=C:/Windows/System32/DUI70.?Create@TouchRepeatButton@DirectUI@@SAJPEAVElement@2@PEAKPEAPEAV32@@Z @1236
    ?Create@TouchScrollBar@DirectUI@@SAJPEAVElement@2@PEAKPEAPEAV32@@Z=C:/Windows/System32/DUI70.?Create@TouchScrollBar@DirectUI@@SAJPEAVElement@2@PEAKPEAPEAV32@@Z @1237
    ?Create@TouchScrollViewer@DirectUI@@SAJPEAVElement@2@PEAKPEAPEAV32@@Z=C:/Windows/System32/DUI70.?Create@TouchScrollViewer@DirectUI@@SAJPEAVElement@2@PEAKPEAPEAV32@@Z @1238
    ?Create@TouchSelect@DirectUI@@SAJPEAVElement@2@PEAKPEAPEAV32@@Z=C:/Windows/System32/DUI70.?Create@TouchSelect@DirectUI@@SAJPEAVElement@2@PEAKPEAPEAV32@@Z @1239
    ?Create@TouchSelectItem@DirectUI@@SAJPEAVElement@2@PEAKPEAPEAV32@@Z=C:/Windows/System32/DUI70.?Create@TouchSelectItem@DirectUI@@SAJPEAVElement@2@PEAKPEAPEAV32@@Z @1240
    ?Create@TouchSlider@DirectUI@@SAJPEAVElement@2@PEAKPEAPEAV32@@Z=C:/Windows/System32/DUI70.?Create@TouchSlider@DirectUI@@SAJPEAVElement@2@PEAKPEAPEAV32@@Z @1241
    ?Create@TouchSwitch@DirectUI@@SAJPEAVElement@2@PEAKPEAPEAV32@@Z=C:/Windows/System32/DUI70.?Create@TouchSwitch@DirectUI@@SAJPEAVElement@2@PEAKPEAPEAV32@@Z @1242
    ?Create@UnknownElement@DirectUI@@SAJIPEAVElement@2@PEAKPEAPEAV32@@Z=C:/Windows/System32/DUI70.?Create@UnknownElement@DirectUI@@SAJIPEAVElement@2@PEAKPEAPEAV32@@Z @1243
    ?Create@UnknownElement@DirectUI@@SAJPEAVElement@2@PEAKPEAPEAV32@@Z=C:/Windows/System32/DUI70.?Create@UnknownElement@DirectUI@@SAJPEAVElement@2@PEAKPEAPEAV32@@Z @1244
    ?Create@ValueProxy@DirectUI@@SAPEAV12@PEAVElement@2@@Z=C:/Windows/System32/DUI70.?Create@ValueProxy@DirectUI@@SAPEAV12@PEAVElement@2@@Z @1245
    ?Create@VerticalFlowLayout@DirectUI@@SAJHPEAHPEAPEAVValue@2@@Z=C:/Windows/System32/DUI70.?Create@VerticalFlowLayout@DirectUI@@SAJHPEAHPEAPEAVValue@2@@Z @1246
    ?Create@VerticalFlowLayout@DirectUI@@SAJ_NIIIPEAPEAVLayout@2@@Z=C:/Windows/System32/DUI70.?Create@VerticalFlowLayout@DirectUI@@SAJ_NIIIPEAPEAVLayout@2@@Z @1247
    ?Create@Viewer@DirectUI@@SAJPEAVElement@2@PEAKPEAPEAV32@@Z=C:/Windows/System32/DUI70.?Create@Viewer@DirectUI@@SAJPEAVElement@2@PEAKPEAPEAV32@@Z @1248
    ?Create@XBaby@DirectUI@@SAJPEAVElement@2@PEAKPEAPEAV32@@Z=C:/Windows/System32/DUI70.?Create@XBaby@DirectUI@@SAJPEAVElement@2@PEAKPEAPEAV32@@Z @1249
    ?Create@XBaby@DirectUI@@SAJPEAVIXElementCP@2@PEAVXProvider@2@PEAUHWND__@@PEAVElement@2@PEAKPEAPEAV62@@Z=C:/Windows/System32/DUI70.?Create@XBaby@DirectUI@@SAJPEAVIXElementCP@2@PEAVXProvider@2@PEAUHWND__@@PEAVElement@2@PEAKPEAPEAV62@@Z @1250
    ?Create@XElement@DirectUI@@SAJIPEAVElement@2@PEAKPEAPEAV32@@Z=C:/Windows/System32/DUI70.?Create@XElement@DirectUI@@SAJIPEAVElement@2@PEAKPEAPEAV32@@Z @1251
    ?Create@XElement@DirectUI@@SAJPEAVElement@2@PEAKPEAPEAV32@@Z=C:/Windows/System32/DUI70.?Create@XElement@DirectUI@@SAJPEAVElement@2@PEAKPEAPEAV32@@Z @1252
    ?Create@XHost@DirectUI@@SAJPEAVIXElementCP@2@PEAPEAV12@@Z=C:/Windows/System32/DUI70.?Create@XHost@DirectUI@@SAJPEAVIXElementCP@2@PEAPEAV12@@Z @1253
    ?Create@XProvider@DirectUI@@SAJPEAVElement@2@PEAVIXProviderCP@2@PEAPEAV12@@Z=C:/Windows/System32/DUI70.?Create@XProvider@DirectUI@@SAJPEAVElement@2@PEAVIXProviderCP@2@PEAPEAV12@@Z @1254
    ?Create@XResourceProvider@DirectUI@@SAJPEAPEAV12@@Z=C:/Windows/System32/DUI70.?Create@XResourceProvider@DirectUI@@SAJPEAPEAV12@@Z @1255
    ?Create@XResourceProvider@DirectUI@@SAJPEAUHINSTANCE__@@PEBG11PEAPEAV12@@Z=C:/Windows/System32/DUI70.?Create@XResourceProvider@DirectUI@@SAJPEAUHINSTANCE__@@PEBG11PEAPEAV12@@Z @1256
    ?CreateAccNameLabel@HWNDHost@DirectUI@@IEAAPEAUHWND__@@PEAU3@@Z=C:/Windows/System32/DUI70.?CreateAccNameLabel@HWNDHost@DirectUI@@IEAAPEAUHWND__@@PEAU3@@Z @1257
    ?CreateAtom@Value@DirectUI@@SAPEAV12@G@Z=C:/Windows/System32/DUI70.?CreateAtom@Value@DirectUI@@SAPEAV12@G@Z @1258
    ?CreateAtom@Value@DirectUI@@SAPEAV12@PEBG@Z=C:/Windows/System32/DUI70.?CreateAtom@Value@DirectUI@@SAPEAV12@PEBG@Z @1259
    ?CreateBool@Value@DirectUI@@SAPEAV12@_N@Z=C:/Windows/System32/DUI70.?CreateBool@Value@DirectUI@@SAPEAV12@_N@Z @1260
    ?CreateButtons@ScrollBar@DirectUI@@MEAAJXZ=C:/Windows/System32/DUI70.?CreateButtons@ScrollBar@DirectUI@@MEAAJXZ @1261
    ?CreateButtons@TouchScrollBar@DirectUI@@UEAAJXZ=C:/Windows/System32/DUI70.?CreateButtons@TouchScrollBar@DirectUI@@UEAAJXZ @1262
    ?CreateCache@RichText@DirectUI@@SAJIPEAPEAUIDUIRichTextCache@@@Z=C:/Windows/System32/DUI70.?CreateCache@RichText@DirectUI@@SAJIPEAPEAUIDUIRichTextCache@@@Z @1263
    ?CreateColor@Value@DirectUI@@SAPEAV12@K@Z=C:/Windows/System32/DUI70.?CreateColor@Value@DirectUI@@SAPEAV12@K@Z @1264
    ?CreateColor@Value@DirectUI@@SAPEAV12@KKE@Z=C:/Windows/System32/DUI70.?CreateColor@Value@DirectUI@@SAPEAV12@KKE@Z @1265
    ?CreateColor@Value@DirectUI@@SAPEAV12@KKKE@Z=C:/Windows/System32/DUI70.?CreateColor@Value@DirectUI@@SAPEAV12@KKKE@Z @1266
    ?CreateCursor@Value@DirectUI@@SAPEAV12@PEAUHICON__@@@Z=C:/Windows/System32/DUI70.?CreateCursor@Value@DirectUI@@SAPEAV12@PEAUHICON__@@@Z @1267
    ?CreateCursor@Value@DirectUI@@SAPEAV12@PEBG@Z=C:/Windows/System32/DUI70.?CreateCursor@Value@DirectUI@@SAPEAV12@PEBG@Z @1268
    ?CreateDFCFill@Value@DirectUI@@SAPEAV12@II@Z=C:/Windows/System32/DUI70.?CreateDFCFill@Value@DirectUI@@SAPEAV12@II@Z @1269
    ?CreateDTBFill@Value@DirectUI@@SAPEAV12@PEBGHH@Z=C:/Windows/System32/DUI70.?CreateDTBFill@Value@DirectUI@@SAPEAV12@PEBGHH@Z @1270
    ?CreateDUI@XProvider@DirectUI@@UEAAJPEAVIXElementCP@2@PEAPEAUHWND__@@@Z=C:/Windows/System32/DUI70.?CreateDUI@XProvider@DirectUI@@UEAAJPEAVIXElementCP@2@PEAPEAUHWND__@@@Z @1271
    ?CreateDUICP@TaskPage@DirectUI@@EEAAJPEAVHWNDElement@2@PEAUHWND__@@1PEAPEAVElement@2@PEAPEAVDUIXmlParser@2@@Z=C:/Windows/System32/DUI70.?CreateDUICP@TaskPage@DirectUI@@EEAAJPEAVHWNDElement@2@PEAUHWND__@@1PEAPEAVElement@2@PEAPEAVDUIXmlParser@2@@Z @1272
    ?CreateDUICP@XResourceProvider@DirectUI@@UEAAJPEAVHWNDElement@2@PEAUHWND__@@1PEAPEAVElement@2@PEAPEAVDUIXmlParser@2@@Z=C:/Windows/System32/DUI70.?CreateDUICP@XResourceProvider@DirectUI@@UEAAJPEAVHWNDElement@2@PEAUHWND__@@1PEAPEAVElement@2@PEAPEAVDUIXmlParser@2@@Z @1273
    ?CreateDoubleList@Value@DirectUI@@SAPEAV12@PEAV?$DynamicArray@N$0A@@2@@Z=C:/Windows/System32/DUI70.?CreateDoubleList@Value@DirectUI@@SAPEAV12@PEAV?$DynamicArray@N$0A@@2@@Z @1275
    ?CreateDoubleList@Value@DirectUI@@SAPEAV12@PEBNH@Z=C:/Windows/System32/DUI70.?CreateDoubleList@Value@DirectUI@@SAPEAV12@PEBNH@Z @1276
    ?CreateElement@DUIXmlParser@DirectUI@@QEAAJPEBGPEAVElement@2@1PEAKPEAPEAV32@@Z=C:/Windows/System32/DUI70.?CreateElement@DUIXmlParser@DirectUI@@QEAAJPEBGPEAVElement@2@1PEAKPEAPEAV32@@Z @1277
    ?CreateElementList@Value@DirectUI@@SAPEAV12@PEAV?$DynamicArray@PEAVElement@DirectUI@@$0A@@2@@Z=C:/Windows/System32/DUI70.?CreateElementList@Value@DirectUI@@SAPEAV12@PEAV?$DynamicArray@PEAVElement@DirectUI@@$0A@@2@@Z @1278
    ?CreateElementRef@Value@DirectUI@@SAPEAV12@PEAVElement@2@@Z=C:/Windows/System32/DUI70.?CreateElementRef@Value@DirectUI@@SAPEAV12@PEAVElement@2@@Z @1279
    ?CreateElementScaledValue@Value@DirectUI@@SAPEAV12@PEAVElement@2@PEAV12@@Z=C:/Windows/System32/DUI70.?CreateElementScaledValue@Value@DirectUI@@SAPEAV12@PEAVElement@2@PEAV12@@Z @1280
    ?CreateEncodedString@Value@DirectUI@@SAPEAV12@PEBG@Z=C:/Windows/System32/DUI70.?CreateEncodedString@Value@DirectUI@@SAPEAV12@PEBG@Z @1281
    ?CreateExpression@Value@DirectUI@@SAPEAV12@PEAVExpression@2@@Z=C:/Windows/System32/DUI70.?CreateExpression@Value@DirectUI@@SAPEAV12@PEAVExpression@2@@Z @1282
    ?CreateFill@Value@DirectUI@@SAPEAV12@AEBUFill@2@@Z=C:/Windows/System32/DUI70.?CreateFill@Value@DirectUI@@SAPEAV12@AEBUFill@2@@Z @1283
    ?CreateFloat@Value@DirectUI@@SAPEAV12@MW4DynamicScaleValue@@@Z=C:/Windows/System32/DUI70.?CreateFloat@Value@DirectUI@@SAPEAV12@MW4DynamicScaleValue@@@Z @1284
    ?CreateGraphic@Value@DirectUI@@SAPEAV12@PEAUHBITMAP__@@EI_N11@Z=C:/Windows/System32/DUI70.?CreateGraphic@Value@DirectUI@@SAPEAV12@PEAUHBITMAP__@@EI_N11@Z @1285
    ?CreateGraphic@Value@DirectUI@@SAPEAV12@PEAUHENHMETAFILE__@@0@Z=C:/Windows/System32/DUI70.?CreateGraphic@Value@DirectUI@@SAPEAV12@PEAUHENHMETAFILE__@@0@Z @1286
    ?CreateGraphic@Value@DirectUI@@SAPEAV12@PEAUHICON__@@_N11@Z=C:/Windows/System32/DUI70.?CreateGraphic@Value@DirectUI@@SAPEAV12@PEAUHICON__@@_N11@Z @1287
    ?CreateGraphic@Value@DirectUI@@SAPEAV12@PEAUISharedBitmap@@EI@Z=C:/Windows/System32/DUI70.?CreateGraphic@Value@DirectUI@@SAPEAV12@PEAUISharedBitmap@@EI@Z @1288
    ?CreateGraphic@Value@DirectUI@@SAPEAV12@PEBGEIGGPEAUHINSTANCE__@@_N2@Z=C:/Windows/System32/DUI70.?CreateGraphic@Value@DirectUI@@SAPEAV12@PEBGEIGGPEAUHINSTANCE__@@_N2@Z @1289
    ?CreateGraphic@Value@DirectUI@@SAPEAV12@PEBGGGPEAUHINSTANCE__@@_N2@Z=C:/Windows/System32/DUI70.?CreateGraphic@Value@DirectUI@@SAPEAV12@PEBGGGPEAUHINSTANCE__@@_N2@Z @1290
    ?CreateGraphic@Value@DirectUI@@SAPEAV12@PEBGUScaledSIZE@2@PEAUHINSTANCE__@@_N3@Z=C:/Windows/System32/DUI70.?CreateGraphic@Value@DirectUI@@SAPEAV12@PEBGUScaledSIZE@2@PEAUHINSTANCE__@@_N3@Z @1291
    ?CreateHWND@CCBase@DirectUI@@UEAAPEAUHWND__@@PEAU3@@Z=C:/Windows/System32/DUI70.?CreateHWND@CCBase@DirectUI@@UEAAPEAUHWND__@@PEAU3@@Z @1292
    ?CreateHWND@CCBaseScrollBar@DirectUI@@UEAAPEAUHWND__@@PEAU3@@Z=C:/Windows/System32/DUI70.?CreateHWND@CCBaseScrollBar@DirectUI@@UEAAPEAUHWND__@@PEAU3@@Z @1293
    ?CreateHWND@Combobox@DirectUI@@UEAAPEAUHWND__@@PEAU3@@Z=C:/Windows/System32/DUI70.?CreateHWND@Combobox@DirectUI@@UEAAPEAUHWND__@@PEAU3@@Z @1294
    ?CreateHWND@Edit@DirectUI@@MEAAPEAUHWND__@@PEAU3@@Z=C:/Windows/System32/DUI70.?CreateHWND@Edit@DirectUI@@MEAAPEAUHWND__@@PEAU3@@Z @1295
    ?CreateHWND@Edit@DirectUI@@MEAAPEAUHWND__@@PEAU3@_N@Z=C:/Windows/System32/DUI70.?CreateHWND@Edit@DirectUI@@MEAAPEAUHWND__@@PEAU3@_N@Z @1296
    ?CreateHWND@HWNDHost@DirectUI@@MEAAPEAUHWND__@@PEAU3@@Z=C:/Windows/System32/DUI70.?CreateHWND@HWNDHost@DirectUI@@MEAAPEAUHWND__@@PEAU3@@Z @1297
    ?CreateHWND@XElement@DirectUI@@UEAAPEAUHWND__@@PEAU3@@Z=C:/Windows/System32/DUI70.?CreateHWND@XElement@DirectUI@@UEAAPEAUHWND__@@PEAU3@@Z @1298
    ?CreateHostWindow@NativeHWNDHost@DirectUI@@UEAAPEAUHWND__@@KPEBG0KHHHHPEAU3@PEAUHMENU__@@PEAUHINSTANCE__@@PEAX@Z=C:/Windows/System32/DUI70.?CreateHostWindow@NativeHWNDHost@DirectUI@@UEAAPEAUHWND__@@KPEBG0KHHHHPEAU3@PEAUHMENU__@@PEAUHINSTANCE__@@PEAX@Z @1299
    ?CreateIconGraphicHelper@Value@DirectUI@@CAPEAV12@PEAUHICON__@@_N11@Z=C:/Windows/System32/DUI70.?CreateIconGraphicHelper@Value@DirectUI@@CAPEAV12@PEAUHICON__@@_N11@Z @1300
    ?CreateInstance@CSafeElementProxy@@SAJPEAVElement@DirectUI@@PEAPEAV1@@Z=C:/Windows/System32/DUI70.?CreateInstance@CSafeElementProxy@@SAJPEAVElement@DirectUI@@PEAPEAV1@@Z @1301
    ?CreateInt@Value@DirectUI@@SAPEAV12@HW4DynamicScaleValue@@@Z=C:/Windows/System32/DUI70.?CreateInt@Value@DirectUI@@SAPEAV12@HW4DynamicScaleValue@@@Z @1302
    ?CreateLayout@DUIXmlParser@DirectUI@@IEAAJPEBUExprNode@ParserTools@2@P6AJHPEAHPEAPEAVValue@2@@Z@Z=C:/Windows/System32/DUI70.?CreateLayout@DUIXmlParser@DirectUI@@IEAAJPEBUExprNode@ParserTools@2@P6AJHPEAHPEAPEAVValue@2@@Z@Z @1303
    ?CreateLayout@Value@DirectUI@@SAPEAV12@PEAVLayout@2@@Z=C:/Windows/System32/DUI70.?CreateLayout@Value@DirectUI@@SAPEAV12@PEAVLayout@2@@Z @1304
    ?CreateParser@DUIFactory@DirectUI@@QEAAJXZ=C:/Windows/System32/DUI70.?CreateParser@DUIFactory@DirectUI@@QEAAJXZ @1305
    ?CreateParser@XProvider@DirectUI@@QEAAJPEAPEAVDUIXmlParser@2@@Z=C:/Windows/System32/DUI70.?CreateParser@XProvider@DirectUI@@QEAAJPEAPEAVDUIXmlParser@2@@Z @1306
    ?CreateParserCP@TaskPage@DirectUI@@EEAAJPEAPEAVDUIXmlParser@2@@Z=C:/Windows/System32/DUI70.?CreateParserCP@TaskPage@DirectUI@@EEAAJPEAPEAVDUIXmlParser@2@@Z @1307
    ?CreateParserCP@XResourceProvider@DirectUI@@UEAAJPEAPEAVDUIXmlParser@2@@Z=C:/Windows/System32/DUI70.?CreateParserCP@XResourceProvider@DirectUI@@UEAAJPEAPEAVDUIXmlParser@2@@Z @1308
    ?CreatePatternProvider@Schema@DirectUI@@SAJW4Pattern@12@PEAVElementProvider@2@PEAPEAUIUnknown@@@Z=C:/Windows/System32/DUI70.?CreatePatternProvider@Schema@DirectUI@@SAJW4Pattern@12@PEAVElementProvider@2@PEAPEAUIUnknown@@@Z @1309
    ?CreatePoint@Value@DirectUI@@SAPEAV12@HHW4DynamicScaleValue@@@Z=C:/Windows/System32/DUI70.?CreatePoint@Value@DirectUI@@SAPEAV12@HHW4DynamicScaleValue@@@Z @1310
    ?CreateRect@Value@DirectUI@@SAPEAV12@HHHHW4DynamicScaleValue@@@Z=C:/Windows/System32/DUI70.?CreateRect@Value@DirectUI@@SAPEAV12@HHHHW4DynamicScaleValue@@@Z @1311
    ?CreateScaledValue@Value@DirectUI@@SAPEAV12@MPEAV12@@Z=C:/Windows/System32/DUI70.?CreateScaledValue@Value@DirectUI@@SAPEAV12@MPEAV12@@Z @1312
    ?CreateScrollBars@ScrollViewer@DirectUI@@MEAAJXZ=C:/Windows/System32/DUI70.?CreateScrollBars@ScrollViewer@DirectUI@@MEAAJXZ @1313
    ?CreateScrollBars@StyledScrollViewer@DirectUI@@MEAAJXZ=C:/Windows/System32/DUI70.?CreateScrollBars@StyledScrollViewer@DirectUI@@MEAAJXZ @1314
    ?CreateSize@Value@DirectUI@@SAPEAV12@HHW4DynamicScaleValue@@@Z=C:/Windows/System32/DUI70.?CreateSize@Value@DirectUI@@SAPEAV12@HHW4DynamicScaleValue@@@Z @1315
    ?CreateString@Value@DirectUI@@SAPEAV12@PEBGPEAUHINSTANCE__@@@Z=C:/Windows/System32/DUI70.?CreateString@Value@DirectUI@@SAPEAV12@PEBGPEAUHINSTANCE__@@@Z @1316
    ?CreateStringRP@Value@DirectUI@@SAPEAV12@PEBGPEAUHINSTANCE__@@@Z=C:/Windows/System32/DUI70.?CreateStringRP@Value@DirectUI@@SAPEAV12@PEBGPEAUHINSTANCE__@@@Z @1317
    ?CreateStyleParser@HWNDElement@DirectUI@@UEAAJPEAPEAVDUIXmlParser@2@@Z=C:/Windows/System32/DUI70.?CreateStyleParser@HWNDElement@DirectUI@@UEAAJPEAPEAVDUIXmlParser@2@@Z @1318
    ?CreateStyleParser@XBaby@DirectUI@@UEAAJPEAPEAVDUIXmlParser@2@@Z=C:/Windows/System32/DUI70.?CreateStyleParser@XBaby@DirectUI@@UEAAJPEAPEAVDUIXmlParser@2@@Z @1319
    ?CreateStyleSheet@DUIXmlParser@DirectUI@@IEAAJPEAUIXmlReader@@PEBGPEAPEAVStyleSheet@2@@Z=C:/Windows/System32/DUI70.?CreateStyleSheet@DUIXmlParser@DirectUI@@IEAAJPEAUIXmlReader@@PEBGPEAPEAVStyleSheet@2@@Z @1320
    ?CreateStyleSheet@Value@DirectUI@@SAPEAV12@PEAVStyleSheet@2@@Z=C:/Windows/System32/DUI70.?CreateStyleSheet@Value@DirectUI@@SAPEAV12@PEAVStyleSheet@2@@Z @1321
    ?CreateValueList@Value@DirectUI@@SAPEAV12@PEAV12@@Z=C:/Windows/System32/DUI70.?CreateValueList@Value@DirectUI@@SAPEAV12@PEAV12@@Z @1322
    ?CreateValueList@Value@DirectUI@@SAPEAV12@PEAV?$DynamicArray@PEAVValue@DirectUI@@$0A@@2@@Z=C:/Windows/System32/DUI70.?CreateValueList@Value@DirectUI@@SAPEAV12@PEAV?$DynamicArray@PEAVValue@DirectUI@@$0A@@2@@Z @1323
    ?CreateXBaby@XProvider@DirectUI@@UEAAJPEAVIXElementCP@2@PEAUHWND__@@PEAVElement@2@PEAKPEAPEAUIXBaby@2@@Z=C:/Windows/System32/DUI70.?CreateXBaby@XProvider@DirectUI@@UEAAJPEAVIXElementCP@2@PEAUHWND__@@PEAVElement@2@PEAKPEAPEAUIXBaby@2@@Z @1324
    ?CreateXmlReader@DUIXmlParser@DirectUI@@IEAAJPEAPEAUIXmlReader@@@Z=C:/Windows/System32/DUI70.?CreateXmlReader@DUIXmlParser@DirectUI@@IEAAJPEAPEAUIXmlReader@@@Z @1325
    ?CreateXmlReaderFromHGLOBAL@DUIXmlParser@DirectUI@@IEAAJPEAXPEAPEAUIXmlReader@@@Z=C:/Windows/System32/DUI70.?CreateXmlReaderFromHGLOBAL@DUIXmlParser@DirectUI@@IEAAJPEAXPEAPEAUIXmlReader@@@Z @1326
    ?CreateXmlReaderInputWithEncodingName@DUIXmlParser@DirectUI@@IEAAJPEAUIStream@@PEBGPEAPEAUIUnknown@@@Z=C:/Windows/System32/DUI70.?CreateXmlReaderInputWithEncodingName@DUIXmlParser@DirectUI@@IEAAJPEAUIStream@@PEBGPEAPEAUIUnknown@@@Z @1327
    ?CtrlSubclassProc@HWNDHost@DirectUI@@KA_JPEAUHWND__@@I_K_J@Z=C:/Windows/System32/DUI70.?CtrlSubclassProc@HWNDHost@DirectUI@@KA_JPEAUHWND__@@I_K_J@Z @1328
    ?CultureProperty@Schema@DirectUI@@2HA=C:/Windows/System32/DUI70.?CultureProperty@Schema@DirectUI@@2HA @1329
    ?CursorProp@Element@DirectUI@@SAPEBUPropertyInfo@2@XZ=C:/Windows/System32/DUI70.?CursorProp@Element@DirectUI@@SAPEBUPropertyInfo@2@XZ @1330
    ?CustomControlType@Schema@DirectUI@@2HA=C:/Windows/System32/DUI70.?CustomControlType@Schema@DirectUI@@2HA @1331
    ?CustomDragDropScalingHint@PVLAnimation@DirectUI@@SA?AVUID@@XZ=C:/Windows/System32/DUI70.?CustomDragDropScalingHint@PVLAnimation@DirectUI@@SA?AVUID@@XZ @1332
    ?CustomProp@Element@DirectUI@@SAPEBUPropertyInfo@2@XZ=C:/Windows/System32/DUI70.?CustomProp@Element@DirectUI@@SAPEBUPropertyInfo@2@XZ @1333
    ?CustomReflowHint@PVLAnimation@DirectUI@@SA?AVUID@@XZ=C:/Windows/System32/DUI70.?CustomReflowHint@PVLAnimation@DirectUI@@SA?AVUID@@XZ @1334
    ?CustomTapHint@PVLAnimation@DirectUI@@SA?AVUID@@XZ=C:/Windows/System32/DUI70.?CustomTapHint@PVLAnimation@DirectUI@@SA?AVUID@@XZ @1335
    ?Cut@TouchEditBase@DirectUI@@SA?AVUID@@XZ=C:/Windows/System32/DUI70.?Cut@TouchEditBase@DirectUI@@SA?AVUID@@XZ @1336
    ?DCompDeviceRebuilt@Element@DirectUI@@SA?AVUID@@XZ=C:/Windows/System32/DUI70.?DCompDeviceRebuilt@Element@DirectUI@@SA?AVUID@@XZ @1337
    ?DPIProp@Element@DirectUI@@SAPEBUPropertyInfo@2@XZ=C:/Windows/System32/DUI70.?DPIProp@Element@DirectUI@@SAPEBUPropertyInfo@2@XZ @1338
    ?DUICreatePropertySheetPage@TaskPage@DirectUI@@QEAAJPEAUHINSTANCE__@@@Z=C:/Windows/System32/DUI70.?DUICreatePropertySheetPage@TaskPage@DirectUI@@QEAAJPEAUHINSTANCE__@@@Z @1339
    ?DataGridControlType@Schema@DirectUI@@2HA=C:/Windows/System32/DUI70.?DataGridControlType@Schema@DirectUI@@2HA @1340
    ?DataItemControlType@Schema@DirectUI@@2HA=C:/Windows/System32/DUI70.?DataItemControlType@Schema@DirectUI@@2HA @1341
    ?DefaultAction@Button@DirectUI@@UEAAJXZ=C:/Windows/System32/DUI70.?DefaultAction@Button@DirectUI@@UEAAJXZ @1342
    ?DefaultAction@CCBase@DirectUI@@UEAAJXZ=C:/Windows/System32/DUI70.?DefaultAction@CCBase@DirectUI@@UEAAJXZ @1343
    ?DefaultAction@CCPushButton@DirectUI@@UEAAJXZ=C:/Windows/System32/DUI70.?DefaultAction@CCPushButton@DirectUI@@UEAAJXZ @1344
    ?DefaultAction@Element@DirectUI@@UEAAJXZ=C:/Windows/System32/DUI70.?DefaultAction@Element@DirectUI@@UEAAJXZ @1345
    ?DefaultAction@SemanticZoomToggle@DirectUI@@UEAAJXZ=C:/Windows/System32/DUI70.?DefaultAction@SemanticZoomToggle@DirectUI@@UEAAJXZ @1346
    ?DefaultAction@TouchButton@DirectUI@@UEAAJXZ=C:/Windows/System32/DUI70.?DefaultAction@TouchButton@DirectUI@@UEAAJXZ @1347
    ?DefaultAction@TouchRepeatButton@DirectUI@@UEAAJXZ=C:/Windows/System32/DUI70.?DefaultAction@TouchRepeatButton@DirectUI@@UEAAJXZ @1348
    ?DefaultButtonTrackingProp@DialogElement@DirectUI@@SAPEBUPropertyInfo@2@XZ=C:/Windows/System32/DUI70.?DefaultButtonTrackingProp@DialogElement@DirectUI@@SAPEBUPropertyInfo@2@XZ @1349
    ?DelayActivateTooltip@HWNDElement@DirectUI@@QEAAXXZ=C:/Windows/System32/DUI70.?DelayActivateTooltip@HWNDElement@DirectUI@@QEAAXXZ @1350
    ?DeleteString@CCListBox@DirectUI@@QEAAHH@Z=C:/Windows/System32/DUI70.?DeleteString@CCListBox@DirectUI@@QEAAHH@Z @1351
    ?DesiredSizeProp@Element@DirectUI@@SAPEBUPropertyInfo@2@XZ=C:/Windows/System32/DUI70.?DesiredSizeProp@Element@DirectUI@@SAPEBUPropertyInfo@2@XZ @1352
    ?Destroy@ClassInfoBase@DirectUI@@UEAAXXZ=C:/Windows/System32/DUI70.?Destroy@ClassInfoBase@DirectUI@@UEAAXXZ @1353
    ?Destroy@DUIXmlParser@DirectUI@@QEAAXXZ=C:/Windows/System32/DUI70.?Destroy@DUIXmlParser@DirectUI@@QEAAXXZ @1354
    ?Destroy@Element@DirectUI@@QEAAJ_N@Z=C:/Windows/System32/DUI70.?Destroy@Element@DirectUI@@QEAAJ_N@Z @1355
    ?Destroy@Expression@DirectUI@@QEAAXXZ=C:/Windows/System32/DUI70.?Destroy@Expression@DirectUI@@QEAAXXZ @1356
    ?Destroy@Layout@DirectUI@@QEAAXXZ=C:/Windows/System32/DUI70.?Destroy@Layout@DirectUI@@QEAAXXZ @1357
    ?Destroy@NativeHWNDHost@DirectUI@@QEAAXXZ=C:/Windows/System32/DUI70.?Destroy@NativeHWNDHost@DirectUI@@QEAAXXZ @1358
    ?Destroy@XHost@DirectUI@@QEAAXXZ=C:/Windows/System32/DUI70.?Destroy@XHost@DirectUI@@QEAAXXZ @1359
    ?DestroyAll@Element@DirectUI@@QEAAJ_N@Z=C:/Windows/System32/DUI70.?DestroyAll@Element@DirectUI@@QEAAJ_N@Z @1360
    ?DestroyCP@TaskPage@DirectUI@@EEAAXXZ=C:/Windows/System32/DUI70.?DestroyCP@TaskPage@DirectUI@@EEAAXXZ @1361
    ?DestroyCP@XResourceProvider@DirectUI@@UEAAXXZ=C:/Windows/System32/DUI70.?DestroyCP@XResourceProvider@DirectUI@@UEAAXXZ @1362
    ?DestroyListener@EventManager@DirectUI@@SAXPEAVElement@2@@Z=C:/Windows/System32/DUI70.?DestroyListener@EventManager@DirectUI@@SAXPEAVElement@2@@Z @1363
    ?DestroyMsg@NativeHWNDHost@DirectUI@@SAIXZ=C:/Windows/System32/DUI70.?DestroyMsg@NativeHWNDHost@DirectUI@@SAIXZ @1364
    ?DestroyWindow@NativeHWNDHost@DirectUI@@QEAAXXZ=C:/Windows/System32/DUI70.?DestroyWindow@NativeHWNDHost@DirectUI@@QEAAXXZ @1365
    ?DestroyWindow@XHost@DirectUI@@QEAAXXZ=C:/Windows/System32/DUI70.?DestroyWindow@XHost@DirectUI@@QEAAXXZ @1366
    ?Detach@CSafeElementProxy@@QEAAXXZ=C:/Windows/System32/DUI70.?Detach@CSafeElementProxy@@QEAAXXZ @1367
    ?Detach@Element@DirectUI@@QEAAXPEAVDeferCycle@2@@Z=C:/Windows/System32/DUI70.?Detach@Element@DirectUI@@QEAAXPEAVDeferCycle@2@@Z @1368
    ?Detach@HWNDHost@DirectUI@@QEAAXXZ=C:/Windows/System32/DUI70.?Detach@HWNDHost@DirectUI@@QEAAXXZ @1369
    ?Detach@Layout@DirectUI@@UEAAXPEAVElement@2@@Z=C:/Windows/System32/DUI70.?Detach@Layout@DirectUI@@UEAAXPEAVElement@2@@Z @1370
    ?DetachParser@DUIFactory@DirectUI@@QEAAPEAVDUIXmlParser@2@XZ=C:/Windows/System32/DUI70.?DetachParser@DUIFactory@DirectUI@@QEAAPEAVDUIXmlParser@2@XZ @1371
    ?DeterminateProp@ModernProgressBar@DirectUI@@SAPEBUPropertyInfo@2@XZ=C:/Windows/System32/DUI70.?DeterminateProp@ModernProgressBar@DirectUI@@SAPEBUPropertyInfo@2@XZ @1372
    ?DirectionProp@Element@DirectUI@@SAPEBUPropertyInfo@2@XZ=C:/Windows/System32/DUI70.?DirectionProp@Element@DirectUI@@SAPEBUPropertyInfo@2@XZ @1373
    ?DirtyProp@Edit@DirectUI@@SAPEBUPropertyInfo@2@XZ=C:/Windows/System32/DUI70.?DirtyProp@Edit@DirectUI@@SAPEBUPropertyInfo@2@XZ @1374
    ?DisableAccTextExtendProp@RichText@DirectUI@@SAPEBUPropertyInfo@2@XZ=C:/Windows/System32/DUI70.?DisableAccTextExtendProp@RichText@DirectUI@@SAPEBUPropertyInfo@2@XZ @1375
    ?DisableMouseInRectCheckProp@TouchRepeatButton@DirectUI@@SAPEBUPropertyInfo@2@XZ=C:/Windows/System32/DUI70.?DisableMouseInRectCheckProp@TouchRepeatButton@DirectUI@@SAPEBUPropertyInfo@2@XZ @1376
    ?DisableSelectionHandlesOnEmptyContent@TouchEdit2@DirectUI@@QEAAXXZ=C:/Windows/System32/DUI70.?DisableSelectionHandlesOnEmptyContent@TouchEdit2@DirectUI@@QEAAXXZ @1377
    ?Disconnect@DuiAccessible@DirectUI@@UEAAJXZ=C:/Windows/System32/DUI70.?Disconnect@DuiAccessible@DirectUI@@UEAAJXZ @1378
    ?Disconnect@HWNDElementAccessible@DirectUI@@UEAAJXZ=C:/Windows/System32/DUI70.?Disconnect@HWNDElementAccessible@DirectUI@@UEAAJXZ @1379
    ?Disconnect@HWNDHostAccessible@DirectUI@@UEAAJXZ=C:/Windows/System32/DUI70.?Disconnect@HWNDHostAccessible@DirectUI@@UEAAJXZ @1380
    ?DismissIHMAsync@TouchHWNDElement@DirectUI@@QEAAJXZ=C:/Windows/System32/DUI70.?DismissIHMAsync@TouchHWNDElement@DirectUI@@QEAAJXZ @1381
    ?DllsLoaded@CallstackTracker@DirectUI@@CAHXZ=C:/Windows/System32/DUI70.?DllsLoaded@CallstackTracker@DirectUI@@CAHXZ @1382
    ?DoInvoke@?$PatternProvider@VExpandCollapseProvider@DirectUI@@UIExpandCollapseProvider@@$00@DirectUI@@IEAAJHZZ=C:/Windows/System32/DUI70.?DoInvoke@?$PatternProvider@VExpandCollapseProvider@DirectUI@@UIExpandCollapseProvider@@$00@DirectUI@@IEAAJHZZ @1383
    ?DoInvoke@?$PatternProvider@VGridItemProvider@DirectUI@@UIGridItemProvider@@$01@DirectUI@@IEAAJHZZ=C:/Windows/System32/DUI70.?DoInvoke@?$PatternProvider@VGridItemProvider@DirectUI@@UIGridItemProvider@@$01@DirectUI@@IEAAJHZZ @1384
    ?DoInvoke@?$PatternProvider@VGridProvider@DirectUI@@UIGridProvider@@$02@DirectUI@@IEAAJHZZ=C:/Windows/System32/DUI70.?DoInvoke@?$PatternProvider@VGridProvider@DirectUI@@UIGridProvider@@$02@DirectUI@@IEAAJHZZ @1385
    ?DoInvoke@?$PatternProvider@VInvokeProvider@DirectUI@@UIInvokeProvider@@$0A@@DirectUI@@IEAAJHZZ=C:/Windows/System32/DUI70.?DoInvoke@?$PatternProvider@VInvokeProvider@DirectUI@@UIInvokeProvider@@$0A@@DirectUI@@IEAAJHZZ @1386
    ?DoInvoke@?$PatternProvider@VRangeValueProvider@DirectUI@@UIRangeValueProvider@@$03@DirectUI@@IEAAJHZZ=C:/Windows/System32/DUI70.?DoInvoke@?$PatternProvider@VRangeValueProvider@DirectUI@@UIRangeValueProvider@@$03@DirectUI@@IEAAJHZZ @1387
    ?DoInvoke@?$PatternProvider@VScrollItemProvider@DirectUI@@UIScrollItemProvider@@$05@DirectUI@@IEAAJHZZ=C:/Windows/System32/DUI70.?DoInvoke@?$PatternProvider@VScrollItemProvider@DirectUI@@UIScrollItemProvider@@$05@DirectUI@@IEAAJHZZ @1388
    ?DoInvoke@?$PatternProvider@VScrollProvider@DirectUI@@UIScrollProvider@@$04@DirectUI@@IEAAJHZZ=C:/Windows/System32/DUI70.?DoInvoke@?$PatternProvider@VScrollProvider@DirectUI@@UIScrollProvider@@$04@DirectUI@@IEAAJHZZ @1389
    ?DoInvoke@?$PatternProvider@VSelectionItemProvider@DirectUI@@UISelectionItemProvider@@$06@DirectUI@@IEAAJHZZ=C:/Windows/System32/DUI70.?DoInvoke@?$PatternProvider@VSelectionItemProvider@DirectUI@@UISelectionItemProvider@@$06@DirectUI@@IEAAJHZZ @1390
    ?DoInvoke@?$PatternProvider@VSelectionProvider@DirectUI@@UISelectionProvider@@$07@DirectUI@@IEAAJHZZ=C:/Windows/System32/DUI70.?DoInvoke@?$PatternProvider@VSelectionProvider@DirectUI@@UISelectionProvider@@$07@DirectUI@@IEAAJHZZ @1391
    ?DoInvoke@?$PatternProvider@VTableItemProvider@DirectUI@@UITableItemProvider@@$09@DirectUI@@IEAAJHZZ=C:/Windows/System32/DUI70.?DoInvoke@?$PatternProvider@VTableItemProvider@DirectUI@@UITableItemProvider@@$09@DirectUI@@IEAAJHZZ @1392
    ?DoInvoke@?$PatternProvider@VTableProvider@DirectUI@@UITableProvider@@$08@DirectUI@@IEAAJHZZ=C:/Windows/System32/DUI70.?DoInvoke@?$PatternProvider@VTableProvider@DirectUI@@UITableProvider@@$08@DirectUI@@IEAAJHZZ @1393
    ?DoInvoke@?$PatternProvider@VToggleProvider@DirectUI@@UIToggleProvider@@$0L@@DirectUI@@IEAAJHZZ=C:/Windows/System32/DUI70.?DoInvoke@?$PatternProvider@VToggleProvider@DirectUI@@UIToggleProvider@@$0L@@DirectUI@@IEAAJHZZ @1394
    ?DoInvoke@?$PatternProvider@VValueProvider@DirectUI@@UIValueProvider@@$0M@@DirectUI@@IEAAJHZZ=C:/Windows/System32/DUI70.?DoInvoke@?$PatternProvider@VValueProvider@DirectUI@@UIValueProvider@@$0M@@DirectUI@@IEAAJHZZ @1395
    ?DoInvoke@ElementProvider@DirectUI@@IEAAJHZZ=C:/Windows/System32/DUI70.?DoInvoke@ElementProvider@DirectUI@@IEAAJHZZ @1396
    ?DoInvoke@InvokeHelper@DirectUI@@QEAAJHPEAVElementProvider@2@P6APEAVProviderProxy@2@PEAVElement@2@@ZPEAD@Z=C:/Windows/System32/DUI70.?DoInvoke@InvokeHelper@DirectUI@@QEAAJHPEAVElementProvider@2@P6APEAVProviderProxy@2@PEAVElement@2@@ZPEAD@Z @1397
    ?DoInvokeArgs@ElementProvider@DirectUI@@QEAAJHP6APEAVProviderProxy@2@PEAVElement@2@@ZPEAD@Z=C:/Windows/System32/DUI70.?DoInvokeArgs@ElementProvider@DirectUI@@QEAAJHP6APEAVProviderProxy@2@PEAVElement@2@@ZPEAD@Z @1398
    ?DoLayout@BorderLayout@DirectUI@@UEAAXPEAVElement@2@HH@Z=C:/Windows/System32/DUI70.?DoLayout@BorderLayout@DirectUI@@UEAAXPEAVElement@2@HH@Z @1399
    ?DoLayout@FillLayout@DirectUI@@UEAAXPEAVElement@2@HH@Z=C:/Windows/System32/DUI70.?DoLayout@FillLayout@DirectUI@@UEAAXPEAVElement@2@HH@Z @1400
    ?DoLayout@FlowLayout@DirectUI@@UEAAXPEAVElement@2@HH@Z=C:/Windows/System32/DUI70.?DoLayout@FlowLayout@DirectUI@@UEAAXPEAVElement@2@HH@Z @1401
    ?DoLayout@GridLayout@DirectUI@@UEAAXPEAVElement@2@HH@Z=C:/Windows/System32/DUI70.?DoLayout@GridLayout@DirectUI@@UEAAXPEAVElement@2@HH@Z @1402
    ?DoLayout@Layout@DirectUI@@UEAAXPEAVElement@2@HH@Z=C:/Windows/System32/DUI70.?DoLayout@Layout@DirectUI@@UEAAXPEAVElement@2@HH@Z @1403
    ?DoLayout@NineGridLayout@DirectUI@@UEAAXPEAVElement@2@HH@Z=C:/Windows/System32/DUI70.?DoLayout@NineGridLayout@DirectUI@@UEAAXPEAVElement@2@HH@Z @1404
    ?DoLayout@RowLayout@DirectUI@@UEAAXPEAVElement@2@HH@Z=C:/Windows/System32/DUI70.?DoLayout@RowLayout@DirectUI@@UEAAXPEAVElement@2@HH@Z @1405
    ?DoLayout@TableLayout@DirectUI@@UEAAXPEAVElement@2@HH@Z=C:/Windows/System32/DUI70.?DoLayout@TableLayout@DirectUI@@UEAAXPEAVElement@2@HH@Z @1406
    ?DoLayout@VerticalFlowLayout@DirectUI@@UEAAXPEAVElement@2@HH@Z=C:/Windows/System32/DUI70.?DoLayout@VerticalFlowLayout@DirectUI@@UEAAXPEAVElement@2@HH@Z @1407
    ?DoMethod@BrowserSelectionProxy@DirectUI@@UEAAJHPEAD@Z=C:/Windows/System32/DUI70.?DoMethod@BrowserSelectionProxy@DirectUI@@UEAAJHPEAD@Z @1408
    ?DoMethod@ElementProxy@DirectUI@@UEAAJHPEAD@Z=C:/Windows/System32/DUI70.?DoMethod@ElementProxy@DirectUI@@UEAAJHPEAD@Z @1409
    ?DoMethod@ExpandCollapseProxy@DirectUI@@UEAAJHPEAD@Z=C:/Windows/System32/DUI70.?DoMethod@ExpandCollapseProxy@DirectUI@@UEAAJHPEAD@Z @1410
    ?DoMethod@GridItemProxy@DirectUI@@UEAAJHPEAD@Z=C:/Windows/System32/DUI70.?DoMethod@GridItemProxy@DirectUI@@UEAAJHPEAD@Z @1411
    ?DoMethod@GridProxy@DirectUI@@UEAAJHPEAD@Z=C:/Windows/System32/DUI70.?DoMethod@GridProxy@DirectUI@@UEAAJHPEAD@Z @1412
    ?DoMethod@HWNDElementProxy@DirectUI@@UEAAJHPEAD@Z=C:/Windows/System32/DUI70.?DoMethod@HWNDElementProxy@DirectUI@@UEAAJHPEAD@Z @1413
    ?DoMethod@InvokeProxy@DirectUI@@UEAAJHPEAD@Z=C:/Windows/System32/DUI70.?DoMethod@InvokeProxy@DirectUI@@UEAAJHPEAD@Z @1414
    ?DoMethod@ModernProgressBarRangeValueProxy@DirectUI@@UEAAJHPEAD@Z=C:/Windows/System32/DUI70.?DoMethod@ModernProgressBarRangeValueProxy@DirectUI@@UEAAJHPEAD@Z @1415
    ?DoMethod@NavigatorSelectionItemProxy@DirectUI@@UEAAJHPEAD@Z=C:/Windows/System32/DUI70.?DoMethod@NavigatorSelectionItemProxy@DirectUI@@UEAAJHPEAD@Z @1416
    ?DoMethod@ProgressRangeValueProxy@DirectUI@@UEAAJHPEAD@Z=C:/Windows/System32/DUI70.?DoMethod@ProgressRangeValueProxy@DirectUI@@UEAAJHPEAD@Z @1417
    ?DoMethod@RangeValueProxy@DirectUI@@UEAAJHPEAD@Z=C:/Windows/System32/DUI70.?DoMethod@RangeValueProxy@DirectUI@@UEAAJHPEAD@Z @1418
    ?DoMethod@ScrollBarRangeValueProxy@DirectUI@@UEAAJHPEAD@Z=C:/Windows/System32/DUI70.?DoMethod@ScrollBarRangeValueProxy@DirectUI@@UEAAJHPEAD@Z @1419
    ?DoMethod@ScrollItemProxy@DirectUI@@UEAAJHPEAD@Z=C:/Windows/System32/DUI70.?DoMethod@ScrollItemProxy@DirectUI@@UEAAJHPEAD@Z @1420
    ?DoMethod@ScrollProxy@DirectUI@@UEAAJHPEAD@Z=C:/Windows/System32/DUI70.?DoMethod@ScrollProxy@DirectUI@@UEAAJHPEAD@Z @1421
    ?DoMethod@SelectionItemProxy@DirectUI@@UEAAJHPEAD@Z=C:/Windows/System32/DUI70.?DoMethod@SelectionItemProxy@DirectUI@@UEAAJHPEAD@Z @1422
    ?DoMethod@SelectionProxy@DirectUI@@UEAAJHPEAD@Z=C:/Windows/System32/DUI70.?DoMethod@SelectionProxy@DirectUI@@UEAAJHPEAD@Z @1423
    ?DoMethod@SelectorSelectionItemProxy@DirectUI@@UEAAJHPEAD@Z=C:/Windows/System32/DUI70.?DoMethod@SelectorSelectionItemProxy@DirectUI@@UEAAJHPEAD@Z @1424
    ?DoMethod@SelectorSelectionProxy@DirectUI@@UEAAJHPEAD@Z=C:/Windows/System32/DUI70.?DoMethod@SelectorSelectionProxy@DirectUI@@UEAAJHPEAD@Z @1425
    ?DoMethod@TableItemProxy@DirectUI@@UEAAJHPEAD@Z=C:/Windows/System32/DUI70.?DoMethod@TableItemProxy@DirectUI@@UEAAJHPEAD@Z @1426
    ?DoMethod@TableProxy@DirectUI@@UEAAJHPEAD@Z=C:/Windows/System32/DUI70.?DoMethod@TableProxy@DirectUI@@UEAAJHPEAD@Z @1427
    ?DoMethod@ToggleProxy@DirectUI@@UEAAJHPEAD@Z=C:/Windows/System32/DUI70.?DoMethod@ToggleProxy@DirectUI@@UEAAJHPEAD@Z @1428
    ?DoMethod@ValueProxy@DirectUI@@UEAAJHPEAD@Z=C:/Windows/System32/DUI70.?DoMethod@ValueProxy@DirectUI@@UEAAJHPEAD@Z @1429
    ?DockPattern@Schema@DirectUI@@2HA=C:/Windows/System32/DUI70.?DockPattern@Schema@DirectUI@@2HA @1430
    ?DocumentControlType@Schema@DirectUI@@2HA=C:/Windows/System32/DUI70.?DocumentControlType@Schema@DirectUI@@2HA @1431
    ?DoubleBuffered@Element@DirectUI@@QEAAX_N@Z=C:/Windows/System32/DUI70.?DoubleBuffered@Element@DirectUI@@QEAAX_N@Z @1432
    ?Drag@Thumb@DirectUI@@SA?AVUID@@XZ=C:/Windows/System32/DUI70.?Drag@Thumb@DirectUI@@SA?AVUID@@XZ @1433
    ?DragDragCancelEvent@Schema@DirectUI@@2HA=C:/Windows/System32/DUI70.?DragDragCancelEvent@Schema@DirectUI@@2HA @1434
    ?DragDragCompleteEvent@Schema@DirectUI@@2HA=C:/Windows/System32/DUI70.?DragDragCompleteEvent@Schema@DirectUI@@2HA @1435
    ?DragDragStartEvent@Schema@DirectUI@@2HA=C:/Windows/System32/DUI70.?DragDragStartEvent@Schema@DirectUI@@2HA @1436
    ?DragPattern@Schema@DirectUI@@2HA=C:/Windows/System32/DUI70.?DragPattern@Schema@DirectUI@@2HA @1437
    ?Drag_DropEffect_Property@Schema@DirectUI@@2HA=C:/Windows/System32/DUI70.?Drag_DropEffect_Property@Schema@DirectUI@@2HA @1438
    ?Drag_DropEffects_Property@Schema@DirectUI@@2HA=C:/Windows/System32/DUI70.?Drag_DropEffects_Property@Schema@DirectUI@@2HA @1439
    ?Drag_IsGrabbed_Property@Schema@DirectUI@@2HA=C:/Windows/System32/DUI70.?Drag_IsGrabbed_Property@Schema@DirectUI@@2HA @1440
    ?DrawOutlinesProp@Movie@DirectUI@@SAPEBUPropertyInfo@2@XZ=C:/Windows/System32/DUI70.?DrawOutlinesProp@Movie@DirectUI@@SAPEBUPropertyInfo@2@XZ @1441
    ?DumpDuiProperties@@YAXPEAVElement@DirectUI@@@Z=C:/Windows/System32/DUI70.?DumpDuiProperties@@YAXPEAVElement@DirectUI@@@Z @1443
    ?DumpDuiTree@@YAXPEAVElement@DirectUI@@H@Z=C:/Windows/System32/DUI70.?DumpDuiTree@@YAXPEAVElement@DirectUI@@H@Z @1444
    ?EdgeHighlightColorProp@Element@DirectUI@@SAPEBUPropertyInfo@2@XZ=C:/Windows/System32/DUI70.?EdgeHighlightColorProp@Element@DirectUI@@SAPEBUPropertyInfo@2@XZ @1445
    ?EdgeHighlightThicknessProp@Element@DirectUI@@SAPEBUPropertyInfo@2@XZ=C:/Windows/System32/DUI70.?EdgeHighlightThicknessProp@Element@DirectUI@@SAPEBUPropertyInfo@2@XZ @1446
    ?EditControlType@Schema@DirectUI@@2HA=C:/Windows/System32/DUI70.?EditControlType@Schema@DirectUI@@2HA @1447
    ?ElementFromPoint@HWNDElement@DirectUI@@QEAAPEAVElement@2@PEAUtagPOINT@@@Z=C:/Windows/System32/DUI70.?ElementFromPoint@HWNDElement@DirectUI@@QEAAPEAVElement@2@PEAUtagPOINT@@@Z @1448
    ?ElementFromPoint@HWNDElementProxy@DirectUI@@IEAAJNNPEAPEAUIRawElementProviderFragment@@@Z=C:/Windows/System32/DUI70.?ElementFromPoint@HWNDElementProxy@DirectUI@@IEAAJNNPEAPEAUIRawElementProviderFragment@@@Z @1449
    ?ElementMovesOnIHMNotifyProp@TouchEditBase@DirectUI@@SAPEBUPropertyInfo@2@XZ=C:/Windows/System32/DUI70.?ElementMovesOnIHMNotifyProp@TouchEditBase@DirectUI@@SAPEBUPropertyInfo@2@XZ @1450
    ?ElementProviderFromPoint@HWNDElementProvider@DirectUI@@UEAAJNNPEAPEAUIRawElementProviderFragment@@@Z=C:/Windows/System32/DUI70.?ElementProviderFromPoint@HWNDElementProvider@DirectUI@@UEAAJNNPEAPEAUIRawElementProviderFragment@@@Z @1451
    ?EnableDesignMode@DUIXmlParser@DirectUI@@QEAAXXZ=C:/Windows/System32/DUI70.?EnableDesignMode@DUIXmlParser@DirectUI@@QEAAXXZ @1452
    ?EnableUiaEvents@Element@DirectUI@@QEAAX_N@Z=C:/Windows/System32/DUI70.?EnableUiaEvents@Element@DirectUI@@QEAAX_N@Z @1453
    ?EnabledProp@Element@DirectUI@@SAPEBUPropertyInfo@2@XZ=C:/Windows/System32/DUI70.?EnabledProp@Element@DirectUI@@SAPEBUPropertyInfo@2@XZ @1454
    ?End@BaseScrollBar@DirectUI@@UEAAXXZ=C:/Windows/System32/DUI70.?End@BaseScrollBar@DirectUI@@UEAAXXZ @1455
    ?EndDefer@Element@DirectUI@@QEAAXK@Z=C:/Windows/System32/DUI70.?EndDefer@Element@DirectUI@@QEAAXK@Z @1456
    ?EndDefer@EventManager@DirectUI@@SAJPEAVElement@2@@Z=C:/Windows/System32/DUI70.?EndDefer@EventManager@DirectUI@@SAJPEAVElement@2@@Z @1457
    ?EnforceSizeProp@PushButton@DirectUI@@SAPEBUPropertyInfo@2@XZ=C:/Windows/System32/DUI70.?EnforceSizeProp@PushButton@DirectUI@@SAPEBUPropertyInfo@2@XZ @1458
    ?EnsureVisible@Element@DirectUI@@QEAA_NI@Z=C:/Windows/System32/DUI70.?EnsureVisible@Element@DirectUI@@QEAA_NI@Z @1459
    ?EnsureVisible@Element@DirectUI@@QEAA_NXZ=C:/Windows/System32/DUI70.?EnsureVisible@Element@DirectUI@@QEAA_NXZ @1460
    ?EnsureVisible@Element@DirectUI@@UEAA_NHHHH@Z=C:/Windows/System32/DUI70.?EnsureVisible@Element@DirectUI@@UEAA_NHHHH@Z @1461
    ?EnsureVisible@Viewer@DirectUI@@UEAA_NHHHH@Z=C:/Windows/System32/DUI70.?EnsureVisible@Viewer@DirectUI@@UEAA_NHHHH@Z @1462
    ?Enter@Edit@DirectUI@@SA?AVUID@@XZ=C:/Windows/System32/DUI70.?Enter@Edit@DirectUI@@SA?AVUID@@XZ @1463
    ?Enter@TouchEditBase@DirectUI@@SA?AVUID@@XZ=C:/Windows/System32/DUI70.?Enter@TouchEditBase@DirectUI@@SA?AVUID@@XZ @1464
    ?Entered@Browser@DirectUI@@SA?AVUID@@XZ=C:/Windows/System32/DUI70.?Entered@Browser@DirectUI@@SA?AVUID@@XZ @1465
    ?EnumCallstackFrames@CallstackTracker@DirectUI@@QEAAHP6AXPEBD0KK@Z@Z=C:/Windows/System32/DUI70.?EnumCallstackFrames@CallstackTracker@DirectUI@@QEAAHP6AXPEBD0KK@Z@Z @1466
    ?EnumPropertyInfo@ClassInfoBase@DirectUI@@UEAAPEBUPropertyInfo@2@I@Z=C:/Windows/System32/DUI70.?EnumPropertyInfo@ClassInfoBase@DirectUI@@UEAAPEBUPropertyInfo@2@I@Z @1467
    ?EraseBkgnd@HWNDHost@DirectUI@@MEAA_NPEAUHDC__@@PEA_J@Z=C:/Windows/System32/DUI70.?EraseBkgnd@HWNDHost@DirectUI@@MEAA_NPEAUHDC__@@PEA_J@Z @1468
    ?EraseFeedback@TouchSlider@DirectUI@@QEAAXXZ=C:/Windows/System32/DUI70.?EraseFeedback@TouchSlider@DirectUI@@QEAAXXZ @1469
    ?EstimateContentSize@CCPushButton@DirectUI@@UEAA?AUtagSIZE@@HHPEAVSurface@2@@Z=C:/Windows/System32/DUI70.?EstimateContentSize@CCPushButton@DirectUI@@UEAA?AUtagSIZE@@HHPEAVSurface@2@@Z @1470
    ?EventFromEventId@Schema@DirectUI@@SA?AW4Event@12@H@Z=C:/Windows/System32/DUI70.?EventFromEventId@Schema@DirectUI@@SA?AW4Event@12@H@Z @1471
    ?EventListener@EventManager@DirectUI@@SAJPEAVElement@2@PEAUEvent@2@@Z=C:/Windows/System32/DUI70.?EventListener@EventManager@DirectUI@@SAJPEAVElement@2@PEAUEvent@2@@Z @1472
    ?ExecuteManualSwapDeferredZoomToRect@TouchScrollViewer@DirectUI@@QEAAJ_N@Z=C:/Windows/System32/DUI70.?ExecuteManualSwapDeferredZoomToRect@TouchScrollViewer@DirectUI@@QEAAJ_N@Z @1473
    ?Expand@ExpandCollapseProvider@DirectUI@@UEAAJXZ=C:/Windows/System32/DUI70.?Expand@ExpandCollapseProvider@DirectUI@@UEAAJXZ @1474
    ?ExpandCollapsePattern@Schema@DirectUI@@2HA=C:/Windows/System32/DUI70.?ExpandCollapsePattern@Schema@DirectUI@@2HA @1475
    ?ExpandCollapse_ExpandCollapseState_Property@Schema@DirectUI@@2HA=C:/Windows/System32/DUI70.?ExpandCollapse_ExpandCollapseState_Property@Schema@DirectUI@@2HA @1476
    ?ExpandProp@Macro@DirectUI@@SAPEBUPropertyInfo@2@XZ=C:/Windows/System32/DUI70.?ExpandProp@Macro@DirectUI@@SAPEBUPropertyInfo@2@XZ @1477
    ?ExpandedProp@Expandable@DirectUI@@SAPEBUPropertyInfo@2@XZ=C:/Windows/System32/DUI70.?ExpandedProp@Expandable@DirectUI@@SAPEBUPropertyInfo@2@XZ @1478
    ?ExtentProp@Element@DirectUI@@SAPEBUPropertyInfo@2@XZ=C:/Windows/System32/DUI70.?ExtentProp@Element@DirectUI@@SAPEBUPropertyInfo@2@XZ @1479
    ?FWantAnyEvent@EventManager@DirectUI@@SA_NPEAVElement@2@@Z=C:/Windows/System32/DUI70.?FWantAnyEvent@EventManager@DirectUI@@SA_NPEAVElement@2@@Z @1480
    ?FillSymbolInfo@CallstackTracker@DirectUI@@AEAAXPEAUSTACK_SYMBOL_INFO@12@_K@Z=C:/Windows/System32/DUI70.?FillSymbolInfo@CallstackTracker@DirectUI@@AEAAXPEAUSTACK_SYMBOL_INFO@12@_K@Z @1481
    ?FilterOnPasteProp@TouchEditBase@DirectUI@@SAPEBUPropertyInfo@2@XZ=C:/Windows/System32/DUI70.?FilterOnPasteProp@TouchEditBase@DirectUI@@SAPEBUPropertyInfo@2@XZ @1482
    ?FinalizeCurrentIMEComposition@TouchEdit2@DirectUI@@UEAAJXZ=C:/Windows/System32/DUI70.?FinalizeCurrentIMEComposition@TouchEdit2@DirectUI@@UEAAJXZ @1483
    ?FinalizeCurrentIMEComposition@TouchEditBase@DirectUI@@UEAAJXZ=C:/Windows/System32/DUI70.?FinalizeCurrentIMEComposition@TouchEditBase@DirectUI@@UEAAJXZ @1484
    ?Find@ElementProviderManager@DirectUI@@SAPEAVElementProvider@2@PEAVElement@2@@Z=C:/Windows/System32/DUI70.?Find@ElementProviderManager@DirectUI@@SAPEAVElementProvider@2@PEAVElement@2@@Z @1485
    ?FindAccessibleRole@AccessibleButton@DirectUI@@CAPEBUACCESSIBLEROLE@12@H@Z=C:/Windows/System32/DUI70.?FindAccessibleRole@AccessibleButton@DirectUI@@CAPEBUACCESSIBLEROLE@12@H@Z @1486
    ?FindDescendent@Element@DirectUI@@QEAAPEAV12@G@Z=C:/Windows/System32/DUI70.?FindDescendent@Element@DirectUI@@QEAAPEAV12@G@Z @1487
    ?FindDescendentWorker@Element@DirectUI@@AEAAPEAV12@G@Z=C:/Windows/System32/DUI70.?FindDescendentWorker@Element@DirectUI@@AEAAPEAV12@G@Z @1488
    ?FindElementWithShortcutAndDoDefaultAction@XProvider@DirectUI@@UEAAHGH@Z=C:/Windows/System32/DUI70.?FindElementWithShortcutAndDoDefaultAction@XProvider@DirectUI@@UEAAHGH@Z @1489
    ?FindInvokeHelper@InvokeManager@DirectUI@@CAPEAVInvokeHelper@2@PEAI@Z=C:/Windows/System32/DUI70.?FindInvokeHelper@InvokeManager@DirectUI@@CAPEAVInvokeHelper@2@PEAI@Z @1490
    ?FindProviderCallback@ElementProviderManager@DirectUI@@CA_NPEAVElementProvider@2@PEAX@Z=C:/Windows/System32/DUI70.?FindProviderCallback@ElementProviderManager@DirectUI@@CA_NPEAVElementProvider@2@PEAX@Z @1491
    ?FindRefPoint@RefPointElement@DirectUI@@SAPEAVElement@2@PEAV32@PEAUtagPOINT@@@Z=C:/Windows/System32/DUI70.?FindRefPoint@RefPointElement@DirectUI@@SAPEAVElement@2@PEAV32@PEAUtagPOINT@@@Z @1492
    ?FindShortcut@HWNDElement@DirectUI@@SA_NGPEAVElement@2@PEAPEAV32@PEAH2H@Z=C:/Windows/System32/DUI70.?FindShortcut@HWNDElement@DirectUI@@SA_NGPEAVElement@2@PEAPEAV32@PEAH2H@Z @1493
    ?FindShortcutRecursive@HWNDElement@DirectUI@@KA_NGPEAVElement@2@PEAPEAV32@PEAH2H@Z=C:/Windows/System32/DUI70.?FindShortcutRecursive@HWNDElement@DirectUI@@KA_NGPEAVElement@2@PEAPEAV32@PEAH2H@Z @1494
    ?FireAnimationChangeEvent@BaseScrollViewer@DirectUI@@IEAAX_N@Z=C:/Windows/System32/DUI70.?FireAnimationChangeEvent@BaseScrollViewer@DirectUI@@IEAAX_N@Z @1495
    ?FireClickEvent@TouchButton@DirectUI@@UEAAXIIW4ClickDevice@12@PEAUtagPOINT@@@Z=C:/Windows/System32/DUI70.?FireClickEvent@TouchButton@DirectUI@@UEAAXIIW4ClickDevice@12@PEAUtagPOINT@@@Z @1496
    ?FireClickEvent@TouchRepeatButton@DirectUI@@UEAAXIIW4ClickDevice@TouchButton@2@PEAUtagPOINT@@@Z=C:/Windows/System32/DUI70.?FireClickEvent@TouchRepeatButton@DirectUI@@UEAAXIIW4ClickDevice@TouchButton@2@PEAUtagPOINT@@@Z @1497
    ?FireEvent@Element@DirectUI@@QEAAXPEAUEvent@2@_N1@Z=C:/Windows/System32/DUI70.?FireEvent@Element@DirectUI@@QEAAXPEAUEvent@2@_N1@Z @1498
    ?FireEventOnMouseOrPointerRelease@TouchSlider@DirectUI@@QEAAXXZ=C:/Windows/System32/DUI70.?FireEventOnMouseOrPointerRelease@TouchSlider@DirectUI@@QEAAXXZ @1499
    ?FireHostEvent@PushButton@DirectUI@@AEAAXPEAVElement@2@_N@Z=C:/Windows/System32/DUI70.?FireHostEvent@PushButton@DirectUI@@AEAAXPEAVElement@2@_N@Z @1500
    ?FireNavigate@Browser@DirectUI@@AEAAHG@Z=C:/Windows/System32/DUI70.?FireNavigate@Browser@DirectUI@@AEAAHG@Z @1501
    ?FireNavigationEvent@Navigator@DirectUI@@AEAAXXZ=C:/Windows/System32/DUI70.?FireNavigationEvent@Navigator@DirectUI@@AEAAXXZ @1502
    ?FireRightClickEvent@TouchButton@DirectUI@@UEAAXIPEAUtagPOINT@@@Z=C:/Windows/System32/DUI70.?FireRightClickEvent@TouchButton@DirectUI@@UEAAXIPEAUtagPOINT@@@Z @1503
    ?FireRightClickEvent@TouchRepeatButton@DirectUI@@UEAAXIPEAUtagPOINT@@@Z=C:/Windows/System32/DUI70.?FireRightClickEvent@TouchRepeatButton@DirectUI@@UEAAXIPEAUtagPOINT@@@Z @1504
    ?FireStructureChangedEvent@EventManager@DirectUI@@SAJPEAVElement@2@W4StructureChangeType@@@Z=C:/Windows/System32/DUI70.?FireStructureChangedEvent@EventManager@DirectUI@@SAJPEAVElement@2@W4StructureChangeType@@@Z @1505
    ?FlagsProp@TouchHWNDElement@DirectUI@@SAPEBUPropertyInfo@2@XZ=C:/Windows/System32/DUI70.?FlagsProp@TouchHWNDElement@DirectUI@@SAPEBUPropertyInfo@2@XZ @1506
    ?FlushWorkingSet@HWNDElement@DirectUI@@QEAAXXZ=C:/Windows/System32/DUI70.?FlushWorkingSet@HWNDElement@DirectUI@@QEAAXXZ @1507
    ?FontColorRunsProp@RichText@DirectUI@@SAPEBUPropertyInfo@2@XZ=C:/Windows/System32/DUI70.?FontColorRunsProp@RichText@DirectUI@@SAPEBUPropertyInfo@2@XZ @1508
    ?FontFaceProp@Element@DirectUI@@SAPEBUPropertyInfo@2@XZ=C:/Windows/System32/DUI70.?FontFaceProp@Element@DirectUI@@SAPEBUPropertyInfo@2@XZ @1509
    ?FontProp@Element@DirectUI@@SAPEBUPropertyInfo@2@XZ=C:/Windows/System32/DUI70.?FontProp@Element@DirectUI@@SAPEBUPropertyInfo@2@XZ @1510
    ?FontQualityProp@Element@DirectUI@@SAPEBUPropertyInfo@2@XZ=C:/Windows/System32/DUI70.?FontQualityProp@Element@DirectUI@@SAPEBUPropertyInfo@2@XZ @1511
    ?FontSizeProp@Element@DirectUI@@SAPEBUPropertyInfo@2@XZ=C:/Windows/System32/DUI70.?FontSizeProp@Element@DirectUI@@SAPEBUPropertyInfo@2@XZ @1512
    ?FontSizeRunsProp@RichText@DirectUI@@SAPEBUPropertyInfo@2@XZ=C:/Windows/System32/DUI70.?FontSizeRunsProp@RichText@DirectUI@@SAPEBUPropertyInfo@2@XZ @1513
    ?FontStyleProp@Element@DirectUI@@SAPEBUPropertyInfo@2@XZ=C:/Windows/System32/DUI70.?FontStyleProp@Element@DirectUI@@SAPEBUPropertyInfo@2@XZ @1514
    ?FontWeightProp@Element@DirectUI@@SAPEBUPropertyInfo@2@XZ=C:/Windows/System32/DUI70.?FontWeightProp@Element@DirectUI@@SAPEBUPropertyInfo@2@XZ @1515
    ?FontWeightRunsProp@RichText@DirectUI@@SAPEBUPropertyInfo@2@XZ=C:/Windows/System32/DUI70.?FontWeightRunsProp@RichText@DirectUI@@SAPEBUPropertyInfo@2@XZ @1516
    ?ForceEditTextToLTRProp@TouchEditBase@DirectUI@@SAPEBUPropertyInfo@2@XZ=C:/Windows/System32/DUI70.?ForceEditTextToLTRProp@TouchEditBase@DirectUI@@SAPEBUPropertyInfo@2@XZ @1517
    ?ForceThemeChange@XBaby@DirectUI@@UEAAX_K_J@Z=C:/Windows/System32/DUI70.?ForceThemeChange@XBaby@DirectUI@@UEAAX_K_J@Z @1518
    ?ForceThemeChange@XProvider@DirectUI@@UEAAJ_K_J@Z=C:/Windows/System32/DUI70.?ForceThemeChange@XProvider@DirectUI@@UEAAJ_K_J@Z @1519
    ?ForegroundProp@Element@DirectUI@@SAPEBUPropertyInfo@2@XZ=C:/Windows/System32/DUI70.?ForegroundProp@Element@DirectUI@@SAPEBUPropertyInfo@2@XZ @1520
    ?Forward@Movie@DirectUI@@QEAAXXZ=C:/Windows/System32/DUI70.?Forward@Movie@DirectUI@@QEAAXXZ @1521
    ?ForwardingWindowMessage@TouchHWNDElement@DirectUI@@SA?AVUID@@XZ=C:/Windows/System32/DUI70.?ForwardingWindowMessage@TouchHWNDElement@DirectUI@@SA?AVUID@@XZ @1522
    ?FrameDurationProp@AnimationStrip@DirectUI@@SAPEBUPropertyInfo@2@XZ=C:/Windows/System32/DUI70.?FrameDurationProp@AnimationStrip@DirectUI@@SAPEBUPropertyInfo@2@XZ @1523
    ?FrameIndexProp@AnimationStrip@DirectUI@@SAPEBUPropertyInfo@2@XZ=C:/Windows/System32/DUI70.?FrameIndexProp@AnimationStrip@DirectUI@@SAPEBUPropertyInfo@2@XZ @1524
    ?FrameWidthProp@AnimationStrip@DirectUI@@SAPEBUPropertyInfo@2@XZ=C:/Windows/System32/DUI70.?FrameWidthProp@AnimationStrip@DirectUI@@SAPEBUPropertyInfo@2@XZ @1525
    ?FrameworkId@Schema@DirectUI@@2HA=C:/Windows/System32/DUI70.?FrameworkId@Schema@DirectUI@@2HA @1526
    ?FreeComCtl32@TaskPage@DirectUI@@AEAAXXZ=C:/Windows/System32/DUI70.?FreeComCtl32@TaskPage@DirectUI@@AEAAXXZ @1527
    ?FreeProvider@XElement@DirectUI@@QEAAXXZ=C:/Windows/System32/DUI70.?FreeProvider@XElement@DirectUI@@QEAAXXZ @1528
    ?GetAbsorbsShortcut@Element@DirectUI@@QEAA_NXZ=C:/Windows/System32/DUI70.?GetAbsorbsShortcut@Element@DirectUI@@QEAA_NXZ @1529
    ?GetAccDefAction@Element@DirectUI@@QEAAPEBGPEAPEAVValue@2@@Z=C:/Windows/System32/DUI70.?GetAccDefAction@Element@DirectUI@@QEAAPEBGPEAPEAVValue@2@@Z @1530
    ?GetAccDesc@Element@DirectUI@@QEAAPEBGPEAPEAVValue@2@@Z=C:/Windows/System32/DUI70.?GetAccDesc@Element@DirectUI@@QEAAPEBGPEAPEAVValue@2@@Z @1531
    ?GetAccHelp@Element@DirectUI@@QEAAPEBGPEAPEAVValue@2@@Z=C:/Windows/System32/DUI70.?GetAccHelp@Element@DirectUI@@QEAAPEBGPEAPEAVValue@2@@Z @1532
    ?GetAccItemStatus@Element@DirectUI@@QEAAPEBGPEAPEAVValue@2@@Z=C:/Windows/System32/DUI70.?GetAccItemStatus@Element@DirectUI@@QEAAPEBGPEAPEAVValue@2@@Z @1533
    ?GetAccItemType@Element@DirectUI@@QEAAPEBGPEAPEAVValue@2@@Z=C:/Windows/System32/DUI70.?GetAccItemType@Element@DirectUI@@QEAAPEBGPEAPEAVValue@2@@Z @1534
    ?GetAccName@DuiAccessible@DirectUI@@IEAAJUtagVARIANT@@HPEAPEAG@Z=C:/Windows/System32/DUI70.?GetAccName@DuiAccessible@DirectUI@@IEAAJUtagVARIANT@@HPEAPEAG@Z @1535
    ?GetAccName@Element@DirectUI@@QEAAPEBGPEAPEAVValue@2@@Z=C:/Windows/System32/DUI70.?GetAccName@Element@DirectUI@@QEAAPEBGPEAPEAVValue@2@@Z @1536
    ?GetAccNameAsDisplayed@Element@DirectUI@@QEAAPEBGPEAPEAVValue@2@@Z=C:/Windows/System32/DUI70.?GetAccNameAsDisplayed@Element@DirectUI@@QEAAPEBGPEAPEAVValue@2@@Z @1537
    ?GetAccNameFromContent@DuiAccessible@DirectUI@@IEAAJPEAPEAG@Z=C:/Windows/System32/DUI70.?GetAccNameFromContent@DuiAccessible@DirectUI@@IEAAJPEAPEAG@Z @1538
    ?GetAccRole@Element@DirectUI@@QEAAHXZ=C:/Windows/System32/DUI70.?GetAccRole@Element@DirectUI@@QEAAHXZ @1539
    ?GetAccState@Element@DirectUI@@QEAAHXZ=C:/Windows/System32/DUI70.?GetAccState@Element@DirectUI@@QEAAHXZ @1540
    ?GetAccValue@Element@DirectUI@@QEAAPEBGPEAPEAVValue@2@@Z=C:/Windows/System32/DUI70.?GetAccValue@Element@DirectUI@@QEAAPEBGPEAPEAVValue@2@@Z @1541
    ?GetAccessible@Element@DirectUI@@QEAA_NXZ=C:/Windows/System32/DUI70.?GetAccessible@Element@DirectUI@@QEAA_NXZ @1542
    ?GetAccessibleImpl@Element@DirectUI@@UEAAJPEAPEAUIAccessible@@@Z=C:/Windows/System32/DUI70.?GetAccessibleImpl@Element@DirectUI@@UEAAJPEAPEAUIAccessible@@@Z @1543
    ?GetAccessibleImpl@HWNDElement@DirectUI@@UEAAJPEAPEAUIAccessible@@@Z=C:/Windows/System32/DUI70.?GetAccessibleImpl@HWNDElement@DirectUI@@UEAAJPEAPEAUIAccessible@@@Z @1544
    ?GetAccessibleImpl@HWNDHost@DirectUI@@AEAAJPEAPEAUIAccessible@@_N@Z=C:/Windows/System32/DUI70.?GetAccessibleImpl@HWNDHost@DirectUI@@AEAAJPEAPEAUIAccessible@@_N@Z @1545
    ?GetAccessibleImpl@HWNDHost@DirectUI@@UEAAJPEAPEAUIAccessible@@@Z=C:/Windows/System32/DUI70.?GetAccessibleImpl@HWNDHost@DirectUI@@UEAAJPEAPEAUIAccessible@@@Z @1546
    ?GetAccessibleImpl@TouchEdit2@DirectUI@@UEAAJPEAPEAUIAccessible@@@Z=C:/Windows/System32/DUI70.?GetAccessibleImpl@TouchEdit2@DirectUI@@UEAAJPEAPEAUIAccessible@@@Z @1547
    ?GetAccessibleParent@DuiAccessible@DirectUI@@SAPEAVElement@2@PEAV32@@Z=C:/Windows/System32/DUI70.?GetAccessibleParent@DuiAccessible@DirectUI@@SAPEAVElement@2@PEAV32@@Z @1548
    ?GetActive@Element@DirectUI@@QEAAHXZ=C:/Windows/System32/DUI70.?GetActive@Element@DirectUI@@QEAAHXZ @1549
    ?GetActiveState@TouchScrollBar@DirectUI@@QEAA?AW4ActiveState@2@XZ=C:/Windows/System32/DUI70.?GetActiveState@TouchScrollBar@DirectUI@@QEAA?AW4ActiveState@2@XZ @1550
    ?GetActualReferencePoint@RefPointElement@DirectUI@@QEAAPEBUtagPOINT@@PEAPEAVValue@2@@Z=C:/Windows/System32/DUI70.?GetActualReferencePoint@RefPointElement@DirectUI@@QEAAPEBUtagPOINT@@PEAPEAVValue@2@@Z @1551
    ?GetAdjacent@BorderLayout@DirectUI@@UEAAPEAVElement@2@PEAV32@0HPEBUNavReference@2@K@Z=C:/Windows/System32/DUI70.?GetAdjacent@BorderLayout@DirectUI@@UEAAPEAVElement@2@PEAV32@0HPEBUNavReference@2@K@Z @1552
    ?GetAdjacent@Element@DirectUI@@UEAAPEAV12@PEAV12@HPEBUNavReference@2@K@Z=C:/Windows/System32/DUI70.?GetAdjacent@Element@DirectUI@@UEAAPEAV12@PEAV12@HPEBUNavReference@2@K@Z @1553
    ?GetAdjacent@FillLayout@DirectUI@@UEAAPEAVElement@2@PEAV32@0HPEBUNavReference@2@K@Z=C:/Windows/System32/DUI70.?GetAdjacent@FillLayout@DirectUI@@UEAAPEAVElement@2@PEAV32@0HPEBUNavReference@2@K@Z @1554
    ?GetAdjacent@FlowLayout@DirectUI@@UEAAPEAVElement@2@PEAV32@0HPEBUNavReference@2@K@Z=C:/Windows/System32/DUI70.?GetAdjacent@FlowLayout@DirectUI@@UEAAPEAVElement@2@PEAV32@0HPEBUNavReference@2@K@Z @1555
    ?GetAdjacent@GridLayout@DirectUI@@UEAAPEAVElement@2@PEAV32@0HPEBUNavReference@2@K@Z=C:/Windows/System32/DUI70.?GetAdjacent@GridLayout@DirectUI@@UEAAPEAVElement@2@PEAV32@0HPEBUNavReference@2@K@Z @1556
    ?GetAdjacent@ItemList@DirectUI@@UEAAPEAVElement@2@PEAV32@HPEBUNavReference@2@K@Z=C:/Windows/System32/DUI70.?GetAdjacent@ItemList@DirectUI@@UEAAPEAVElement@2@PEAV32@HPEBUNavReference@2@K@Z @1557
    ?GetAdjacent@Layout@DirectUI@@UEAAPEAVElement@2@PEAV32@0HPEBUNavReference@2@K@Z=C:/Windows/System32/DUI70.?GetAdjacent@Layout@DirectUI@@UEAAPEAVElement@2@PEAV32@0HPEBUNavReference@2@K@Z @1558
    ?GetAdjacent@NineGridLayout@DirectUI@@UEAAPEAVElement@2@PEAV32@0HPEBUNavReference@2@K@Z=C:/Windows/System32/DUI70.?GetAdjacent@NineGridLayout@DirectUI@@UEAAPEAVElement@2@PEAV32@0HPEBUNavReference@2@K@Z @1559
    ?GetAdjacent@RowLayout@DirectUI@@UEAAPEAVElement@2@PEAV32@0HPEBUNavReference@2@K@Z=C:/Windows/System32/DUI70.?GetAdjacent@RowLayout@DirectUI@@UEAAPEAVElement@2@PEAV32@0HPEBUNavReference@2@K@Z @1560
    ?GetAdjacent@Selector@DirectUI@@UEAAPEAVElement@2@PEAV32@HPEBUNavReference@2@K@Z=C:/Windows/System32/DUI70.?GetAdjacent@Selector@DirectUI@@UEAAPEAVElement@2@PEAV32@HPEBUNavReference@2@K@Z @1561
    ?GetAdjacent@ShellBorderLayout@DirectUI@@UEAAPEAVElement@2@PEAV32@0HPEBUNavReference@2@K@Z=C:/Windows/System32/DUI70.?GetAdjacent@ShellBorderLayout@DirectUI@@UEAAPEAVElement@2@PEAV32@0HPEBUNavReference@2@K@Z @1562
    ?GetAdjacent@TableLayout@DirectUI@@UEAAPEAVElement@2@PEAV32@0HPEBUNavReference@2@K@Z=C:/Windows/System32/DUI70.?GetAdjacent@TableLayout@DirectUI@@UEAAPEAVElement@2@PEAV32@0HPEBUNavReference@2@K@Z @1563
    ?GetAdjacent@VerticalFlowLayout@DirectUI@@UEAAPEAVElement@2@PEAV32@0HPEBUNavReference@2@K@Z=C:/Windows/System32/DUI70.?GetAdjacent@VerticalFlowLayout@DirectUI@@UEAAPEAVElement@2@PEAV32@0HPEBUNavReference@2@K@Z @1564
    ?GetAdjacent@XBaby@DirectUI@@UEAAPEAVElement@2@PEAV32@HPEBUNavReference@2@K@Z=C:/Windows/System32/DUI70.?GetAdjacent@XBaby@DirectUI@@UEAAPEAVElement@2@PEAV32@HPEBUNavReference@2@K@Z @1565
    ?GetAllowArrowOut@TouchScrollViewer@DirectUI@@QEAA_NXZ=C:/Windows/System32/DUI70.?GetAllowArrowOut@TouchScrollViewer@DirectUI@@QEAA_NXZ @1566
    ?GetAlpha@Element@DirectUI@@QEAAHXZ=C:/Windows/System32/DUI70.?GetAlpha@Element@DirectUI@@QEAAHXZ @1567
    ?GetAnimatePopupOnDismiss@TouchSelect@DirectUI@@QEAA_NXZ=C:/Windows/System32/DUI70.?GetAnimatePopupOnDismiss@TouchSelect@DirectUI@@QEAA_NXZ @1568
    ?GetAnimation@Element@DirectUI@@QEAAHXZ=C:/Windows/System32/DUI70.?GetAnimation@Element@DirectUI@@QEAAHXZ @1569
    ?GetAtom@Value@DirectUI@@QEAAGXZ=C:/Windows/System32/DUI70.?GetAtom@Value@DirectUI@@QEAAGXZ @1570
    ?GetAtomZero@Value@DirectUI@@SAPEAV12@XZ=C:/Windows/System32/DUI70.?GetAtomZero@Value@DirectUI@@SAPEAV12@XZ @1571
    ?GetAutoGrouping@CCRadioButton@DirectUI@@QEAA_NXZ=C:/Windows/System32/DUI70.?GetAutoGrouping@CCRadioButton@DirectUI@@QEAA_NXZ @1572
    ?GetAutoStart@Movie@DirectUI@@QEAA_NXZ=C:/Windows/System32/DUI70.?GetAutoStart@Movie@DirectUI@@QEAA_NXZ @1573
    ?GetAutoStop@Movie@DirectUI@@QEAA_NXZ=C:/Windows/System32/DUI70.?GetAutoStop@Movie@DirectUI@@QEAA_NXZ @1574
    ?GetAutomationId@ElementProxy@DirectUI@@IEAAJPEAUtagVARIANT@@@Z=C:/Windows/System32/DUI70.?GetAutomationId@ElementProxy@DirectUI@@IEAAJPEAUtagVARIANT@@@Z @1575
    ?GetBackgroundColor@Element@DirectUI@@QEAAPEBUFill@2@PEAPEAVValue@2@@Z=C:/Windows/System32/DUI70.?GetBackgroundColor@Element@DirectUI@@QEAAPEBUFill@2@PEAPEAVValue@2@@Z @1576
    ?GetBackgroundOwner@HWNDHost@DirectUI@@IEAAPEAVElement@2@XZ=C:/Windows/System32/DUI70.?GetBackgroundOwner@HWNDHost@DirectUI@@IEAAPEAVElement@2@XZ @1577
    ?GetBackgroundOwnerID@HWNDHost@DirectUI@@QEAAGXZ=C:/Windows/System32/DUI70.?GetBackgroundOwnerID@HWNDHost@DirectUI@@QEAAGXZ @1578
    ?GetBackgroundStdColor@Element@DirectUI@@QEAAHXZ=C:/Windows/System32/DUI70.?GetBackgroundStdColor@Element@DirectUI@@QEAAHXZ @1579
    ?GetBool@EventManager@DirectUI@@CAJPEAUtagVARIANT@@PEAVValue@2@@Z=C:/Windows/System32/DUI70.?GetBool@EventManager@DirectUI@@CAJPEAUtagVARIANT@@PEAVValue@2@@Z @1580
    ?GetBool@Value@DirectUI@@QEAA_NXZ=C:/Windows/System32/DUI70.?GetBool@Value@DirectUI@@QEAA_NXZ @1581
    ?GetBoolFalse@Value@DirectUI@@SAPEAV12@XZ=C:/Windows/System32/DUI70.?GetBoolFalse@Value@DirectUI@@SAPEAV12@XZ @1582
    ?GetBoolTrue@Value@DirectUI@@SAPEAV12@XZ=C:/Windows/System32/DUI70.?GetBoolTrue@Value@DirectUI@@SAPEAV12@XZ @1583
    ?GetBorderColor@Element@DirectUI@@QEAAPEBUFill@2@PEAPEAVValue@2@@Z=C:/Windows/System32/DUI70.?GetBorderColor@Element@DirectUI@@QEAAPEBUFill@2@PEAPEAVValue@2@@Z @1584
    ?GetBorderStdColor@Element@DirectUI@@QEAAHXZ=C:/Windows/System32/DUI70.?GetBorderStdColor@Element@DirectUI@@QEAAHXZ @1585
    ?GetBorderStyle@Element@DirectUI@@QEAAHXZ=C:/Windows/System32/DUI70.?GetBorderStyle@Element@DirectUI@@QEAAHXZ @1586
    ?GetBorderThickness@Element@DirectUI@@QEAAPEBUtagRECT@@PEAPEAVValue@2@@Z=C:/Windows/System32/DUI70.?GetBorderThickness@Element@DirectUI@@QEAAPEBUtagRECT@@PEAPEAVValue@2@@Z @1587
    ?GetBoundingRect@ElementProxy@DirectUI@@IEAAJPEAUUiaRect@@@Z=C:/Windows/System32/DUI70.?GetBoundingRect@ElementProxy@DirectUI@@IEAAJPEAUUiaRect@@@Z @1588
    ?GetBrowser@Navigator@DirectUI@@QEAAPEAVBrowser@2@XZ=C:/Windows/System32/DUI70.?GetBrowser@Navigator@DirectUI@@QEAAPEAVBrowser@2@XZ @1589
    ?GetBuffering@TouchSlider@DirectUI@@QEAAHXZ=C:/Windows/System32/DUI70.?GetBuffering@TouchSlider@DirectUI@@QEAAHXZ @1590
    ?GetButtonClassAcceptsEnterKey@DialogElement@DirectUI@@UEAA_NXZ=C:/Windows/System32/DUI70.?GetButtonClassAcceptsEnterKey@DialogElement@DirectUI@@UEAA_NXZ @1591
    ?GetButtonColor@CCPushButton@DirectUI@@UEAA_NPEAUHDC__@@PEAPEAUHBRUSH__@@@Z=C:/Windows/System32/DUI70.?GetButtonColor@CCPushButton@DirectUI@@UEAA_NPEAUHDC__@@PEAPEAUHBRUSH__@@@Z @1592
    ?GetByClassIndex@ClassInfoBase@DirectUI@@UEAAPEBUPropertyInfo@2@I@Z=C:/Windows/System32/DUI70.?GetByClassIndex@ClassInfoBase@DirectUI@@UEAAPEBUPropertyInfo@2@I@Z @1593
    ?GetCaptured@Button@DirectUI@@QEAA_NXZ=C:/Windows/System32/DUI70.?GetCaptured@Button@DirectUI@@QEAA_NXZ @1594
    ?GetCaptured@TouchButton@DirectUI@@QEAA_NXZ=C:/Windows/System32/DUI70.?GetCaptured@TouchButton@DirectUI@@QEAA_NXZ @1595
    ?GetCellInfo@TableLayout@DirectUI@@QEAAPEAUCellInfo@2@H@Z=C:/Windows/System32/DUI70.?GetCellInfo@TableLayout@DirectUI@@QEAAPEAUCellInfo@2@H@Z @1596
    ?GetCheckedState@TouchCheckBox@DirectUI@@QEAA?AW4CheckedStateFlags@2@XZ=C:/Windows/System32/DUI70.?GetCheckedState@TouchCheckBox@DirectUI@@QEAA?AW4CheckedStateFlags@2@XZ @1597
    ?GetChildFromLayoutIndex@Layout@DirectUI@@QEAAPEAVElement@2@PEAV32@HPEAV?$DynamicArray@PEAVElement@DirectUI@@$0A@@2@@Z=C:/Windows/System32/DUI70.?GetChildFromLayoutIndex@Layout@DirectUI@@QEAAPEAVElement@2@PEAV32@HPEAV?$DynamicArray@PEAVElement@DirectUI@@$0A@@2@@Z @1598
    ?GetChildren@ClassInfoBase@DirectUI@@UEBAHXZ=C:/Windows/System32/DUI70.?GetChildren@ClassInfoBase@DirectUI@@UEBAHXZ @1599
    ?GetChildren@Element@DirectUI@@QEAAPEAV?$DynamicArray@PEAVElement@DirectUI@@$0A@@2@PEAPEAVValue@2@@Z=C:/Windows/System32/DUI70.?GetChildren@Element@DirectUI@@QEAAPEAV?$DynamicArray@PEAVElement@DirectUI@@$0A@@2@PEAPEAVValue@2@@Z @1600
    ?GetClass@Element@DirectUI@@QEAAPEBGPEAPEAVValue@2@@Z=C:/Windows/System32/DUI70.?GetClass@Element@DirectUI@@QEAAPEBGPEAPEAVValue@2@@Z @1601
    ?GetClassInfoPtr@AccessibleButton@DirectUI@@SAPEAUIClassInfo@2@XZ=C:/Windows/System32/DUI70.?GetClassInfoPtr@AccessibleButton@DirectUI@@SAPEAUIClassInfo@2@XZ @1602
    ?GetClassInfoPtr@AnimationStrip@DirectUI@@SAPEAUIClassInfo@2@XZ=C:/Windows/System32/DUI70.?GetClassInfoPtr@AnimationStrip@DirectUI@@SAPEAUIClassInfo@2@XZ @1603
    ?GetClassInfoPtr@AutoButton@DirectUI@@SAPEAUIClassInfo@2@XZ=C:/Windows/System32/DUI70.?GetClassInfoPtr@AutoButton@DirectUI@@SAPEAUIClassInfo@2@XZ @1604
    ?GetClassInfoPtr@BaseScrollViewer@DirectUI@@SAPEAUIClassInfo@2@XZ=C:/Windows/System32/DUI70.?GetClassInfoPtr@BaseScrollViewer@DirectUI@@SAPEAUIClassInfo@2@XZ @1605
    ?GetClassInfoPtr@Bind@DirectUI@@SAPEAUIClassInfo@2@XZ=C:/Windows/System32/DUI70.?GetClassInfoPtr@Bind@DirectUI@@SAPEAUIClassInfo@2@XZ @1606
    ?GetClassInfoPtr@Browser@DirectUI@@SAPEAUIClassInfo@2@XZ=C:/Windows/System32/DUI70.?GetClassInfoPtr@Browser@DirectUI@@SAPEAUIClassInfo@2@XZ @1607
    ?GetClassInfoPtr@Button@DirectUI@@SAPEAUIClassInfo@2@XZ=C:/Windows/System32/DUI70.?GetClassInfoPtr@Button@DirectUI@@SAPEAUIClassInfo@2@XZ @1608
    ?GetClassInfoPtr@CCAVI@DirectUI@@SAPEAUIClassInfo@2@XZ=C:/Windows/System32/DUI70.?GetClassInfoPtr@CCAVI@DirectUI@@SAPEAUIClassInfo@2@XZ @1609
    ?GetClassInfoPtr@CCBase@DirectUI@@SAPEAUIClassInfo@2@XZ=C:/Windows/System32/DUI70.?GetClassInfoPtr@CCBase@DirectUI@@SAPEAUIClassInfo@2@XZ @1610
    ?GetClassInfoPtr@CCBaseCheckRadioButton@DirectUI@@SAPEAUIClassInfo@2@XZ=C:/Windows/System32/DUI70.?GetClassInfoPtr@CCBaseCheckRadioButton@DirectUI@@SAPEAUIClassInfo@2@XZ @1611
    ?GetClassInfoPtr@CCBaseScrollBar@DirectUI@@SAPEAUIClassInfo@2@XZ=C:/Windows/System32/DUI70.?GetClassInfoPtr@CCBaseScrollBar@DirectUI@@SAPEAUIClassInfo@2@XZ @1612
    ?GetClassInfoPtr@CCCheckBox@DirectUI@@SAPEAUIClassInfo@2@XZ=C:/Windows/System32/DUI70.?GetClassInfoPtr@CCCheckBox@DirectUI@@SAPEAUIClassInfo@2@XZ @1613
    ?GetClassInfoPtr@CCCommandLink@DirectUI@@SAPEAUIClassInfo@2@XZ=C:/Windows/System32/DUI70.?GetClassInfoPtr@CCCommandLink@DirectUI@@SAPEAUIClassInfo@2@XZ @1614
    ?GetClassInfoPtr@CCHScrollBar@DirectUI@@SAPEAUIClassInfo@2@XZ=C:/Windows/System32/DUI70.?GetClassInfoPtr@CCHScrollBar@DirectUI@@SAPEAUIClassInfo@2@XZ @1615
    ?GetClassInfoPtr@CCListBox@DirectUI@@SAPEAUIClassInfo@2@XZ=C:/Windows/System32/DUI70.?GetClassInfoPtr@CCListBox@DirectUI@@SAPEAUIClassInfo@2@XZ @1616
    ?GetClassInfoPtr@CCListView@DirectUI@@SAPEAUIClassInfo@2@XZ=C:/Windows/System32/DUI70.?GetClassInfoPtr@CCListView@DirectUI@@SAPEAUIClassInfo@2@XZ @1617
    ?GetClassInfoPtr@CCProgressBar@DirectUI@@SAPEAUIClassInfo@2@XZ=C:/Windows/System32/DUI70.?GetClassInfoPtr@CCProgressBar@DirectUI@@SAPEAUIClassInfo@2@XZ @1618
    ?GetClassInfoPtr@CCPushButton@DirectUI@@SAPEAUIClassInfo@2@XZ=C:/Windows/System32/DUI70.?GetClassInfoPtr@CCPushButton@DirectUI@@SAPEAUIClassInfo@2@XZ @1619
    ?GetClassInfoPtr@CCRadioButton@DirectUI@@SAPEAUIClassInfo@2@XZ=C:/Windows/System32/DUI70.?GetClassInfoPtr@CCRadioButton@DirectUI@@SAPEAUIClassInfo@2@XZ @1620
    ?GetClassInfoPtr@CCSysLink@DirectUI@@SAPEAUIClassInfo@2@XZ=C:/Windows/System32/DUI70.?GetClassInfoPtr@CCSysLink@DirectUI@@SAPEAUIClassInfo@2@XZ @1621
    ?GetClassInfoPtr@CCTrackBar@DirectUI@@SAPEAUIClassInfo@2@XZ=C:/Windows/System32/DUI70.?GetClassInfoPtr@CCTrackBar@DirectUI@@SAPEAUIClassInfo@2@XZ @1622
    ?GetClassInfoPtr@CCTreeView@DirectUI@@SAPEAUIClassInfo@2@XZ=C:/Windows/System32/DUI70.?GetClassInfoPtr@CCTreeView@DirectUI@@SAPEAUIClassInfo@2@XZ @1623
    ?GetClassInfoPtr@CCVScrollBar@DirectUI@@SAPEAUIClassInfo@2@XZ=C:/Windows/System32/DUI70.?GetClassInfoPtr@CCVScrollBar@DirectUI@@SAPEAUIClassInfo@2@XZ @1624
    ?GetClassInfoPtr@CheckBoxGlyph@DirectUI@@SAPEAUIClassInfo@2@XZ=C:/Windows/System32/DUI70.?GetClassInfoPtr@CheckBoxGlyph@DirectUI@@SAPEAUIClassInfo@2@XZ @1625
    ?GetClassInfoPtr@Clipper@DirectUI@@SAPEAUIClassInfo@2@XZ=C:/Windows/System32/DUI70.?GetClassInfoPtr@Clipper@DirectUI@@SAPEAUIClassInfo@2@XZ @1626
    ?GetClassInfoPtr@Combobox@DirectUI@@SAPEAUIClassInfo@2@XZ=C:/Windows/System32/DUI70.?GetClassInfoPtr@Combobox@DirectUI@@SAPEAUIClassInfo@2@XZ @1627
    ?GetClassInfoPtr@DialogElement@DirectUI@@SAPEAUIClassInfo@2@XZ=C:/Windows/System32/DUI70.?GetClassInfoPtr@DialogElement@DirectUI@@SAPEAUIClassInfo@2@XZ @1628
    ?GetClassInfoPtr@Edit@DirectUI@@SAPEAUIClassInfo@2@XZ=C:/Windows/System32/DUI70.?GetClassInfoPtr@Edit@DirectUI@@SAPEAUIClassInfo@2@XZ @1629
    ?GetClassInfoPtr@Element@DirectUI@@SAPEAUIClassInfo@2@XZ=C:/Windows/System32/DUI70.?GetClassInfoPtr@Element@DirectUI@@SAPEAUIClassInfo@2@XZ @1630
    ?GetClassInfoPtr@ElementWithHWND@DirectUI@@SAPEAUIClassInfo@2@XZ=C:/Windows/System32/DUI70.?GetClassInfoPtr@ElementWithHWND@DirectUI@@SAPEAUIClassInfo@2@XZ @1631
    ?GetClassInfoPtr@Expandable@DirectUI@@SAPEAUIClassInfo@2@XZ=C:/Windows/System32/DUI70.?GetClassInfoPtr@Expandable@DirectUI@@SAPEAUIClassInfo@2@XZ @1632
    ?GetClassInfoPtr@Expando@DirectUI@@SAPEAUIClassInfo@2@XZ=C:/Windows/System32/DUI70.?GetClassInfoPtr@Expando@DirectUI@@SAPEAUIClassInfo@2@XZ @1633
    ?GetClassInfoPtr@ExpandoButtonGlyph@DirectUI@@SAPEAUIClassInfo@2@XZ=C:/Windows/System32/DUI70.?GetClassInfoPtr@ExpandoButtonGlyph@DirectUI@@SAPEAUIClassInfo@2@XZ @1634
    ?GetClassInfoPtr@HWNDElement@DirectUI@@SAPEAUIClassInfo@2@XZ=C:/Windows/System32/DUI70.?GetClassInfoPtr@HWNDElement@DirectUI@@SAPEAUIClassInfo@2@XZ @1635
    ?GetClassInfoPtr@HWNDHost@DirectUI@@SAPEAUIClassInfo@2@XZ=C:/Windows/System32/DUI70.?GetClassInfoPtr@HWNDHost@DirectUI@@SAPEAUIClassInfo@2@XZ @1636
    ?GetClassInfoPtr@ItemList@DirectUI@@SAPEAUIClassInfo@2@XZ=C:/Windows/System32/DUI70.?GetClassInfoPtr@ItemList@DirectUI@@SAPEAUIClassInfo@2@XZ @1637
    ?GetClassInfoPtr@Macro@DirectUI@@SAPEAUIClassInfo@2@XZ=C:/Windows/System32/DUI70.?GetClassInfoPtr@Macro@DirectUI@@SAPEAUIClassInfo@2@XZ @1638
    ?GetClassInfoPtr@ModernProgressBar@DirectUI@@SAPEAUIClassInfo@2@XZ=C:/Windows/System32/DUI70.?GetClassInfoPtr@ModernProgressBar@DirectUI@@SAPEAUIClassInfo@2@XZ @1639
    ?GetClassInfoPtr@ModernProgressRing@DirectUI@@SAPEAUIClassInfo@2@XZ=C:/Windows/System32/DUI70.?GetClassInfoPtr@ModernProgressRing@DirectUI@@SAPEAUIClassInfo@2@XZ @1640
    ?GetClassInfoPtr@Movie@DirectUI@@SAPEAUIClassInfo@2@XZ=C:/Windows/System32/DUI70.?GetClassInfoPtr@Movie@DirectUI@@SAPEAUIClassInfo@2@XZ @1641
    ?GetClassInfoPtr@Navigator@DirectUI@@SAPEAUIClassInfo@2@XZ=C:/Windows/System32/DUI70.?GetClassInfoPtr@Navigator@DirectUI@@SAPEAUIClassInfo@2@XZ @1642
    ?GetClassInfoPtr@PText@DirectUI@@SAPEAUIClassInfo@2@XZ=C:/Windows/System32/DUI70.?GetClassInfoPtr@PText@DirectUI@@SAPEAUIClassInfo@2@XZ @1643
    ?GetClassInfoPtr@Page@DirectUI@@SAPEAUIClassInfo@2@XZ=C:/Windows/System32/DUI70.?GetClassInfoPtr@Page@DirectUI@@SAPEAUIClassInfo@2@XZ @1644
    ?GetClassInfoPtr@Pages@DirectUI@@SAPEAUIClassInfo@2@XZ=C:/Windows/System32/DUI70.?GetClassInfoPtr@Pages@DirectUI@@SAPEAUIClassInfo@2@XZ @1645
    ?GetClassInfoPtr@Progress@DirectUI@@SAPEAUIClassInfo@2@XZ=C:/Windows/System32/DUI70.?GetClassInfoPtr@Progress@DirectUI@@SAPEAUIClassInfo@2@XZ @1646
    ?GetClassInfoPtr@PushButton@DirectUI@@SAPEAUIClassInfo@2@XZ=C:/Windows/System32/DUI70.?GetClassInfoPtr@PushButton@DirectUI@@SAPEAUIClassInfo@2@XZ @1647
    ?GetClassInfoPtr@RadioButtonGlyph@DirectUI@@SAPEAUIClassInfo@2@XZ=C:/Windows/System32/DUI70.?GetClassInfoPtr@RadioButtonGlyph@DirectUI@@SAPEAUIClassInfo@2@XZ @1648
    ?GetClassInfoPtr@RefPointElement@DirectUI@@SAPEAUIClassInfo@2@XZ=C:/Windows/System32/DUI70.?GetClassInfoPtr@RefPointElement@DirectUI@@SAPEAUIClassInfo@2@XZ @1649
    ?GetClassInfoPtr@RepeatButton@DirectUI@@SAPEAUIClassInfo@2@XZ=C:/Windows/System32/DUI70.?GetClassInfoPtr@RepeatButton@DirectUI@@SAPEAUIClassInfo@2@XZ @1650
    ?GetClassInfoPtr@Repeater@DirectUI@@SAPEAUIClassInfo@2@XZ=C:/Windows/System32/DUI70.?GetClassInfoPtr@Repeater@DirectUI@@SAPEAUIClassInfo@2@XZ @1651
    ?GetClassInfoPtr@RichText@DirectUI@@SAPEAUIClassInfo@2@XZ=C:/Windows/System32/DUI70.?GetClassInfoPtr@RichText@DirectUI@@SAPEAUIClassInfo@2@XZ @1652
    ?GetClassInfoPtr@ScrollBar@DirectUI@@SAPEAUIClassInfo@2@XZ=C:/Windows/System32/DUI70.?GetClassInfoPtr@ScrollBar@DirectUI@@SAPEAUIClassInfo@2@XZ @1653
    ?GetClassInfoPtr@ScrollViewer@DirectUI@@SAPEAUIClassInfo@2@XZ=C:/Windows/System32/DUI70.?GetClassInfoPtr@ScrollViewer@DirectUI@@SAPEAUIClassInfo@2@XZ @1654
    ?GetClassInfoPtr@Selector@DirectUI@@SAPEAUIClassInfo@2@XZ=C:/Windows/System32/DUI70.?GetClassInfoPtr@Selector@DirectUI@@SAPEAUIClassInfo@2@XZ @1655
    ?GetClassInfoPtr@SelectorNoDefault@DirectUI@@SAPEAUIClassInfo@2@XZ=C:/Windows/System32/DUI70.?GetClassInfoPtr@SelectorNoDefault@DirectUI@@SAPEAUIClassInfo@2@XZ @1656
    ?GetClassInfoPtr@SemanticZoomToggle@DirectUI@@SAPEAUIClassInfo@2@XZ=C:/Windows/System32/DUI70.?GetClassInfoPtr@SemanticZoomToggle@DirectUI@@SAPEAUIClassInfo@2@XZ @1657
    ?GetClassInfoPtr@StyledScrollViewer@DirectUI@@SAPEAUIClassInfo@2@XZ=C:/Windows/System32/DUI70.?GetClassInfoPtr@StyledScrollViewer@DirectUI@@SAPEAUIClassInfo@2@XZ @1658
    ?GetClassInfoPtr@TextGraphic@DirectUI@@SAPEAUIClassInfo@2@XZ=C:/Windows/System32/DUI70.?GetClassInfoPtr@TextGraphic@DirectUI@@SAPEAUIClassInfo@2@XZ @1659
    ?GetClassInfoPtr@Thumb@DirectUI@@SAPEAUIClassInfo@2@XZ=C:/Windows/System32/DUI70.?GetClassInfoPtr@Thumb@DirectUI@@SAPEAUIClassInfo@2@XZ @1660
    ?GetClassInfoPtr@TouchButton@DirectUI@@SAPEAUIClassInfo@2@XZ=C:/Windows/System32/DUI70.?GetClassInfoPtr@TouchButton@DirectUI@@SAPEAUIClassInfo@2@XZ @1661
    ?GetClassInfoPtr@TouchCheckBox@DirectUI@@SAPEAUIClassInfo@2@XZ=C:/Windows/System32/DUI70.?GetClassInfoPtr@TouchCheckBox@DirectUI@@SAPEAUIClassInfo@2@XZ @1662
    ?GetClassInfoPtr@TouchCheckBoxGlyph@DirectUI@@SAPEAUIClassInfo@2@XZ=C:/Windows/System32/DUI70.?GetClassInfoPtr@TouchCheckBoxGlyph@DirectUI@@SAPEAUIClassInfo@2@XZ @1663
    ?GetClassInfoPtr@TouchCommandButton@DirectUI@@SAPEAUIClassInfo@2@XZ=C:/Windows/System32/DUI70.?GetClassInfoPtr@TouchCommandButton@DirectUI@@SAPEAUIClassInfo@2@XZ @1664
    ?GetClassInfoPtr@TouchEdit2@DirectUI@@SAPEAUIClassInfo@2@XZ=C:/Windows/System32/DUI70.?GetClassInfoPtr@TouchEdit2@DirectUI@@SAPEAUIClassInfo@2@XZ @1665
    ?GetClassInfoPtr@TouchEditBase@DirectUI@@SAPEAUIClassInfo@2@XZ=C:/Windows/System32/DUI70.?GetClassInfoPtr@TouchEditBase@DirectUI@@SAPEAUIClassInfo@2@XZ @1666
    ?GetClassInfoPtr@TouchHWNDElement@DirectUI@@SAPEAUIClassInfo@2@XZ=C:/Windows/System32/DUI70.?GetClassInfoPtr@TouchHWNDElement@DirectUI@@SAPEAUIClassInfo@2@XZ @1667
    ?GetClassInfoPtr@TouchHyperLink@DirectUI@@SAPEAUIClassInfo@2@XZ=C:/Windows/System32/DUI70.?GetClassInfoPtr@TouchHyperLink@DirectUI@@SAPEAUIClassInfo@2@XZ @1668
    ?GetClassInfoPtr@TouchRepeatButton@DirectUI@@SAPEAUIClassInfo@2@XZ=C:/Windows/System32/DUI70.?GetClassInfoPtr@TouchRepeatButton@DirectUI@@SAPEAUIClassInfo@2@XZ @1669
    ?GetClassInfoPtr@TouchScrollBar@DirectUI@@SAPEAUIClassInfo@2@XZ=C:/Windows/System32/DUI70.?GetClassInfoPtr@TouchScrollBar@DirectUI@@SAPEAUIClassInfo@2@XZ @1670
    ?GetClassInfoPtr@TouchScrollViewer@DirectUI@@SAPEAUIClassInfo@2@XZ=C:/Windows/System32/DUI70.?GetClassInfoPtr@TouchScrollViewer@DirectUI@@SAPEAUIClassInfo@2@XZ @1671
    ?GetClassInfoPtr@TouchSelect@DirectUI@@SAPEAUIClassInfo@2@XZ=C:/Windows/System32/DUI70.?GetClassInfoPtr@TouchSelect@DirectUI@@SAPEAUIClassInfo@2@XZ @1672
    ?GetClassInfoPtr@TouchSelectItem@DirectUI@@SAPEAUIClassInfo@2@XZ=C:/Windows/System32/DUI70.?GetClassInfoPtr@TouchSelectItem@DirectUI@@SAPEAUIClassInfo@2@XZ @1673
    ?GetClassInfoPtr@TouchSlider@DirectUI@@SAPEAUIClassInfo@2@XZ=C:/Windows/System32/DUI70.?GetClassInfoPtr@TouchSlider@DirectUI@@SAPEAUIClassInfo@2@XZ @1674
    ?GetClassInfoPtr@TouchSwitch@DirectUI@@SAPEAUIClassInfo@2@XZ=C:/Windows/System32/DUI70.?GetClassInfoPtr@TouchSwitch@DirectUI@@SAPEAUIClassInfo@2@XZ @1675
    ?GetClassInfoPtr@UnknownElement@DirectUI@@SAPEAUIClassInfo@2@XZ=C:/Windows/System32/DUI70.?GetClassInfoPtr@UnknownElement@DirectUI@@SAPEAUIClassInfo@2@XZ @1676
    ?GetClassInfoPtr@Viewer@DirectUI@@SAPEAUIClassInfo@2@XZ=C:/Windows/System32/DUI70.?GetClassInfoPtr@Viewer@DirectUI@@SAPEAUIClassInfo@2@XZ @1677
    ?GetClassInfoPtr@XBaby@DirectUI@@SAPEAUIClassInfo@2@XZ=C:/Windows/System32/DUI70.?GetClassInfoPtr@XBaby@DirectUI@@SAPEAUIClassInfo@2@XZ @1678
    ?GetClassInfoPtr@XElement@DirectUI@@SAPEAUIClassInfo@2@XZ=C:/Windows/System32/DUI70.?GetClassInfoPtr@XElement@DirectUI@@SAPEAUIClassInfo@2@XZ @1679
    ?GetClassInfoW@AccessibleButton@DirectUI@@UEAAPEAUIClassInfo@2@XZ=C:/Windows/System32/DUI70.?GetClassInfoW@AccessibleButton@DirectUI@@UEAAPEAUIClassInfo@2@XZ @1680
    ?GetClassInfoW@AnimationStrip@DirectUI@@UEAAPEAUIClassInfo@2@XZ=C:/Windows/System32/DUI70.?GetClassInfoW@AnimationStrip@DirectUI@@UEAAPEAUIClassInfo@2@XZ @1681
    ?GetClassInfoW@AutoButton@DirectUI@@UEAAPEAUIClassInfo@2@XZ=C:/Windows/System32/DUI70.?GetClassInfoW@AutoButton@DirectUI@@UEAAPEAUIClassInfo@2@XZ @1682
    ?GetClassInfoW@BaseScrollViewer@DirectUI@@UEAAPEAUIClassInfo@2@XZ=C:/Windows/System32/DUI70.?GetClassInfoW@BaseScrollViewer@DirectUI@@UEAAPEAUIClassInfo@2@XZ @1683
    ?GetClassInfoW@Bind@DirectUI@@UEAAPEAUIClassInfo@2@XZ=C:/Windows/System32/DUI70.?GetClassInfoW@Bind@DirectUI@@UEAAPEAUIClassInfo@2@XZ @1684
    ?GetClassInfoW@Browser@DirectUI@@UEAAPEAUIClassInfo@2@XZ=C:/Windows/System32/DUI70.?GetClassInfoW@Browser@DirectUI@@UEAAPEAUIClassInfo@2@XZ @1685
    ?GetClassInfoW@Button@DirectUI@@UEAAPEAUIClassInfo@2@XZ=C:/Windows/System32/DUI70.?GetClassInfoW@Button@DirectUI@@UEAAPEAUIClassInfo@2@XZ @1686
    ?GetClassInfoW@CCAVI@DirectUI@@UEAAPEAUIClassInfo@2@XZ=C:/Windows/System32/DUI70.?GetClassInfoW@CCAVI@DirectUI@@UEAAPEAUIClassInfo@2@XZ @1687
    ?GetClassInfoW@CCBase@DirectUI@@UEAAPEAUIClassInfo@2@XZ=C:/Windows/System32/DUI70.?GetClassInfoW@CCBase@DirectUI@@UEAAPEAUIClassInfo@2@XZ @1688
    ?GetClassInfoW@CCBaseCheckRadioButton@DirectUI@@UEAAPEAUIClassInfo@2@XZ=C:/Windows/System32/DUI70.?GetClassInfoW@CCBaseCheckRadioButton@DirectUI@@UEAAPEAUIClassInfo@2@XZ @1689
    ?GetClassInfoW@CCBaseScrollBar@DirectUI@@UEAAPEAUIClassInfo@2@XZ=C:/Windows/System32/DUI70.?GetClassInfoW@CCBaseScrollBar@DirectUI@@UEAAPEAUIClassInfo@2@XZ @1690
    ?GetClassInfoW@CCCheckBox@DirectUI@@UEAAPEAUIClassInfo@2@XZ=C:/Windows/System32/DUI70.?GetClassInfoW@CCCheckBox@DirectUI@@UEAAPEAUIClassInfo@2@XZ @1691
    ?GetClassInfoW@CCCommandLink@DirectUI@@UEAAPEAUIClassInfo@2@XZ=C:/Windows/System32/DUI70.?GetClassInfoW@CCCommandLink@DirectUI@@UEAAPEAUIClassInfo@2@XZ @1692
    ?GetClassInfoW@CCHScrollBar@DirectUI@@UEAAPEAUIClassInfo@2@XZ=C:/Windows/System32/DUI70.?GetClassInfoW@CCHScrollBar@DirectUI@@UEAAPEAUIClassInfo@2@XZ @1693
    ?GetClassInfoW@CCListBox@DirectUI@@UEAAPEAUIClassInfo@2@XZ=C:/Windows/System32/DUI70.?GetClassInfoW@CCListBox@DirectUI@@UEAAPEAUIClassInfo@2@XZ @1694
    ?GetClassInfoW@CCListView@DirectUI@@UEAAPEAUIClassInfo@2@XZ=C:/Windows/System32/DUI70.?GetClassInfoW@CCListView@DirectUI@@UEAAPEAUIClassInfo@2@XZ @1695
    ?GetClassInfoW@CCProgressBar@DirectUI@@UEAAPEAUIClassInfo@2@XZ=C:/Windows/System32/DUI70.?GetClassInfoW@CCProgressBar@DirectUI@@UEAAPEAUIClassInfo@2@XZ @1696
    ?GetClassInfoW@CCPushButton@DirectUI@@UEAAPEAUIClassInfo@2@XZ=C:/Windows/System32/DUI70.?GetClassInfoW@CCPushButton@DirectUI@@UEAAPEAUIClassInfo@2@XZ @1697
    ?GetClassInfoW@CCRadioButton@DirectUI@@UEAAPEAUIClassInfo@2@XZ=C:/Windows/System32/DUI70.?GetClassInfoW@CCRadioButton@DirectUI@@UEAAPEAUIClassInfo@2@XZ @1698
    ?GetClassInfoW@CCSysLink@DirectUI@@UEAAPEAUIClassInfo@2@XZ=C:/Windows/System32/DUI70.?GetClassInfoW@CCSysLink@DirectUI@@UEAAPEAUIClassInfo@2@XZ @1699
    ?GetClassInfoW@CCTrackBar@DirectUI@@UEAAPEAUIClassInfo@2@XZ=C:/Windows/System32/DUI70.?GetClassInfoW@CCTrackBar@DirectUI@@UEAAPEAUIClassInfo@2@XZ @1700
    ?GetClassInfoW@CCTreeView@DirectUI@@UEAAPEAUIClassInfo@2@XZ=C:/Windows/System32/DUI70.?GetClassInfoW@CCTreeView@DirectUI@@UEAAPEAUIClassInfo@2@XZ @1701
    ?GetClassInfoW@CCVScrollBar@DirectUI@@UEAAPEAUIClassInfo@2@XZ=C:/Windows/System32/DUI70.?GetClassInfoW@CCVScrollBar@DirectUI@@UEAAPEAUIClassInfo@2@XZ @1702
    ?GetClassInfoW@CheckBoxGlyph@DirectUI@@UEAAPEAUIClassInfo@2@XZ=C:/Windows/System32/DUI70.?GetClassInfoW@CheckBoxGlyph@DirectUI@@UEAAPEAUIClassInfo@2@XZ @1703
    ?GetClassInfoW@Clipper@DirectUI@@UEAAPEAUIClassInfo@2@XZ=C:/Windows/System32/DUI70.?GetClassInfoW@Clipper@DirectUI@@UEAAPEAUIClassInfo@2@XZ @1704
    ?GetClassInfoW@Combobox@DirectUI@@UEAAPEAUIClassInfo@2@XZ=C:/Windows/System32/DUI70.?GetClassInfoW@Combobox@DirectUI@@UEAAPEAUIClassInfo@2@XZ @1705
    ?GetClassInfoW@DialogElement@DirectUI@@UEAAPEAUIClassInfo@2@XZ=C:/Windows/System32/DUI70.?GetClassInfoW@DialogElement@DirectUI@@UEAAPEAUIClassInfo@2@XZ @1706
    ?GetClassInfoW@Edit@DirectUI@@UEAAPEAUIClassInfo@2@XZ=C:/Windows/System32/DUI70.?GetClassInfoW@Edit@DirectUI@@UEAAPEAUIClassInfo@2@XZ @1707
    ?GetClassInfoW@Element@DirectUI@@UEAAPEAUIClassInfo@2@XZ=C:/Windows/System32/DUI70.?GetClassInfoW@Element@DirectUI@@UEAAPEAUIClassInfo@2@XZ @1708
    ?GetClassInfoW@ElementWithHWND@DirectUI@@UEAAPEAUIClassInfo@2@XZ=C:/Windows/System32/DUI70.?GetClassInfoW@ElementWithHWND@DirectUI@@UEAAPEAUIClassInfo@2@XZ @1709
    ?GetClassInfoW@Expandable@DirectUI@@UEAAPEAUIClassInfo@2@XZ=C:/Windows/System32/DUI70.?GetClassInfoW@Expandable@DirectUI@@UEAAPEAUIClassInfo@2@XZ @1710
    ?GetClassInfoW@Expando@DirectUI@@UEAAPEAUIClassInfo@2@XZ=C:/Windows/System32/DUI70.?GetClassInfoW@Expando@DirectUI@@UEAAPEAUIClassInfo@2@XZ @1711
    ?GetClassInfoW@ExpandoButtonGlyph@DirectUI@@UEAAPEAUIClassInfo@2@XZ=C:/Windows/System32/DUI70.?GetClassInfoW@ExpandoButtonGlyph@DirectUI@@UEAAPEAUIClassInfo@2@XZ @1712
    ?GetClassInfoW@HWNDElement@DirectUI@@UEAAPEAUIClassInfo@2@XZ=C:/Windows/System32/DUI70.?GetClassInfoW@HWNDElement@DirectUI@@UEAAPEAUIClassInfo@2@XZ @1713
    ?GetClassInfoW@HWNDHost@DirectUI@@UEAAPEAUIClassInfo@2@XZ=C:/Windows/System32/DUI70.?GetClassInfoW@HWNDHost@DirectUI@@UEAAPEAUIClassInfo@2@XZ @1714
    ?GetClassInfoW@ItemList@DirectUI@@UEAAPEAUIClassInfo@2@XZ=C:/Windows/System32/DUI70.?GetClassInfoW@ItemList@DirectUI@@UEAAPEAUIClassInfo@2@XZ @1715
    ?GetClassInfoW@Macro@DirectUI@@UEAAPEAUIClassInfo@2@XZ=C:/Windows/System32/DUI70.?GetClassInfoW@Macro@DirectUI@@UEAAPEAUIClassInfo@2@XZ @1716
    ?GetClassInfoW@ModernProgressBar@DirectUI@@UEAAPEAUIClassInfo@2@XZ=C:/Windows/System32/DUI70.?GetClassInfoW@ModernProgressBar@DirectUI@@UEAAPEAUIClassInfo@2@XZ @1717
    ?GetClassInfoW@ModernProgressRing@DirectUI@@UEAAPEAUIClassInfo@2@XZ=C:/Windows/System32/DUI70.?GetClassInfoW@ModernProgressRing@DirectUI@@UEAAPEAUIClassInfo@2@XZ @1718
    ?GetClassInfoW@Movie@DirectUI@@UEAAPEAUIClassInfo@2@XZ=C:/Windows/System32/DUI70.?GetClassInfoW@Movie@DirectUI@@UEAAPEAUIClassInfo@2@XZ @1719
    ?GetClassInfoW@Navigator@DirectUI@@UEAAPEAUIClassInfo@2@XZ=C:/Windows/System32/DUI70.?GetClassInfoW@Navigator@DirectUI@@UEAAPEAUIClassInfo@2@XZ @1720
    ?GetClassInfoW@PText@DirectUI@@UEAAPEAUIClassInfo@2@XZ=C:/Windows/System32/DUI70.?GetClassInfoW@PText@DirectUI@@UEAAPEAUIClassInfo@2@XZ @1721
    ?GetClassInfoW@Page@DirectUI@@UEAAPEAUIClassInfo@2@XZ=C:/Windows/System32/DUI70.?GetClassInfoW@Page@DirectUI@@UEAAPEAUIClassInfo@2@XZ @1722
    ?GetClassInfoW@Pages@DirectUI@@UEAAPEAUIClassInfo@2@XZ=C:/Windows/System32/DUI70.?GetClassInfoW@Pages@DirectUI@@UEAAPEAUIClassInfo@2@XZ @1723
    ?GetClassInfoW@Progress@DirectUI@@UEAAPEAUIClassInfo@2@XZ=C:/Windows/System32/DUI70.?GetClassInfoW@Progress@DirectUI@@UEAAPEAUIClassInfo@2@XZ @1724
    ?GetClassInfoW@PushButton@DirectUI@@UEAAPEAUIClassInfo@2@XZ=C:/Windows/System32/DUI70.?GetClassInfoW@PushButton@DirectUI@@UEAAPEAUIClassInfo@2@XZ @1725
    ?GetClassInfoW@RadioButtonGlyph@DirectUI@@UEAAPEAUIClassInfo@2@XZ=C:/Windows/System32/DUI70.?GetClassInfoW@RadioButtonGlyph@DirectUI@@UEAAPEAUIClassInfo@2@XZ @1726
    ?GetClassInfoW@RefPointElement@DirectUI@@UEAAPEAUIClassInfo@2@XZ=C:/Windows/System32/DUI70.?GetClassInfoW@RefPointElement@DirectUI@@UEAAPEAUIClassInfo@2@XZ @1727
    ?GetClassInfoW@RepeatButton@DirectUI@@UEAAPEAUIClassInfo@2@XZ=C:/Windows/System32/DUI70.?GetClassInfoW@RepeatButton@DirectUI@@UEAAPEAUIClassInfo@2@XZ @1728
    ?GetClassInfoW@Repeater@DirectUI@@UEAAPEAUIClassInfo@2@XZ=C:/Windows/System32/DUI70.?GetClassInfoW@Repeater@DirectUI@@UEAAPEAUIClassInfo@2@XZ @1729
    ?GetClassInfoW@RichText@DirectUI@@UEAAPEAUIClassInfo@2@XZ=C:/Windows/System32/DUI70.?GetClassInfoW@RichText@DirectUI@@UEAAPEAUIClassInfo@2@XZ @1730
    ?GetClassInfoW@ScrollBar@DirectUI@@UEAAPEAUIClassInfo@2@XZ=C:/Windows/System32/DUI70.?GetClassInfoW@ScrollBar@DirectUI@@UEAAPEAUIClassInfo@2@XZ @1731
    ?GetClassInfoW@ScrollViewer@DirectUI@@UEAAPEAUIClassInfo@2@XZ=C:/Windows/System32/DUI70.?GetClassInfoW@ScrollViewer@DirectUI@@UEAAPEAUIClassInfo@2@XZ @1732
    ?GetClassInfoW@Selector@DirectUI@@UEAAPEAUIClassInfo@2@XZ=C:/Windows/System32/DUI70.?GetClassInfoW@Selector@DirectUI@@UEAAPEAUIClassInfo@2@XZ @1733
    ?GetClassInfoW@SelectorNoDefault@DirectUI@@UEAAPEAUIClassInfo@2@XZ=C:/Windows/System32/DUI70.?GetClassInfoW@SelectorNoDefault@DirectUI@@UEAAPEAUIClassInfo@2@XZ @1734
    ?GetClassInfoW@SemanticZoomToggle@DirectUI@@UEAAPEAUIClassInfo@2@XZ=C:/Windows/System32/DUI70.?GetClassInfoW@SemanticZoomToggle@DirectUI@@UEAAPEAUIClassInfo@2@XZ @1735
    ?GetClassInfoW@StyledScrollViewer@DirectUI@@UEAAPEAUIClassInfo@2@XZ=C:/Windows/System32/DUI70.?GetClassInfoW@StyledScrollViewer@DirectUI@@UEAAPEAUIClassInfo@2@XZ @1736
    ?GetClassInfoW@TextGraphic@DirectUI@@UEAAPEAUIClassInfo@2@XZ=C:/Windows/System32/DUI70.?GetClassInfoW@TextGraphic@DirectUI@@UEAAPEAUIClassInfo@2@XZ @1737
    ?GetClassInfoW@Thumb@DirectUI@@UEAAPEAUIClassInfo@2@XZ=C:/Windows/System32/DUI70.?GetClassInfoW@Thumb@DirectUI@@UEAAPEAUIClassInfo@2@XZ @1738
    ?GetClassInfoW@TouchButton@DirectUI@@UEAAPEAUIClassInfo@2@XZ=C:/Windows/System32/DUI70.?GetClassInfoW@TouchButton@DirectUI@@UEAAPEAUIClassInfo@2@XZ @1739
    ?GetClassInfoW@TouchCheckBox@DirectUI@@UEAAPEAUIClassInfo@2@XZ=C:/Windows/System32/DUI70.?GetClassInfoW@TouchCheckBox@DirectUI@@UEAAPEAUIClassInfo@2@XZ @1740
    ?GetClassInfoW@TouchCheckBoxGlyph@DirectUI@@UEAAPEAUIClassInfo@2@XZ=C:/Windows/System32/DUI70.?GetClassInfoW@TouchCheckBoxGlyph@DirectUI@@UEAAPEAUIClassInfo@2@XZ @1741
    ?GetClassInfoW@TouchCommandButton@DirectUI@@UEAAPEAUIClassInfo@2@XZ=C:/Windows/System32/DUI70.?GetClassInfoW@TouchCommandButton@DirectUI@@UEAAPEAUIClassInfo@2@XZ @1742
    ?GetClassInfoW@TouchEdit2@DirectUI@@UEAAPEAUIClassInfo@2@XZ=C:/Windows/System32/DUI70.?GetClassInfoW@TouchEdit2@DirectUI@@UEAAPEAUIClassInfo@2@XZ @1743
    ?GetClassInfoW@TouchEditBase@DirectUI@@UEAAPEAUIClassInfo@2@XZ=C:/Windows/System32/DUI70.?GetClassInfoW@TouchEditBase@DirectUI@@UEAAPEAUIClassInfo@2@XZ @1744
    ?GetClassInfoW@TouchHWNDElement@DirectUI@@UEAAPEAUIClassInfo@2@XZ=C:/Windows/System32/DUI70.?GetClassInfoW@TouchHWNDElement@DirectUI@@UEAAPEAUIClassInfo@2@XZ @1745
    ?GetClassInfoW@TouchHyperLink@DirectUI@@UEAAPEAUIClassInfo@2@XZ=C:/Windows/System32/DUI70.?GetClassInfoW@TouchHyperLink@DirectUI@@UEAAPEAUIClassInfo@2@XZ @1746
    ?GetClassInfoW@TouchRepeatButton@DirectUI@@UEAAPEAUIClassInfo@2@XZ=C:/Windows/System32/DUI70.?GetClassInfoW@TouchRepeatButton@DirectUI@@UEAAPEAUIClassInfo@2@XZ @1747
    ?GetClassInfoW@TouchScrollBar@DirectUI@@UEAAPEAUIClassInfo@2@XZ=C:/Windows/System32/DUI70.?GetClassInfoW@TouchScrollBar@DirectUI@@UEAAPEAUIClassInfo@2@XZ @1748
    ?GetClassInfoW@TouchScrollViewer@DirectUI@@UEAAPEAUIClassInfo@2@XZ=C:/Windows/System32/DUI70.?GetClassInfoW@TouchScrollViewer@DirectUI@@UEAAPEAUIClassInfo@2@XZ @1749
    ?GetClassInfoW@TouchSelect@DirectUI@@UEAAPEAUIClassInfo@2@XZ=C:/Windows/System32/DUI70.?GetClassInfoW@TouchSelect@DirectUI@@UEAAPEAUIClassInfo@2@XZ @1750
    ?GetClassInfoW@TouchSelectItem@DirectUI@@UEAAPEAUIClassInfo@2@XZ=C:/Windows/System32/DUI70.?GetClassInfoW@TouchSelectItem@DirectUI@@UEAAPEAUIClassInfo@2@XZ @1751
    ?GetClassInfoW@TouchSlider@DirectUI@@UEAAPEAUIClassInfo@2@XZ=C:/Windows/System32/DUI70.?GetClassInfoW@TouchSlider@DirectUI@@UEAAPEAUIClassInfo@2@XZ @1752
    ?GetClassInfoW@TouchSwitch@DirectUI@@UEAAPEAUIClassInfo@2@XZ=C:/Windows/System32/DUI70.?GetClassInfoW@TouchSwitch@DirectUI@@UEAAPEAUIClassInfo@2@XZ @1753
    ?GetClassInfoW@UnknownElement@DirectUI@@UEAAPEAUIClassInfo@2@XZ=C:/Windows/System32/DUI70.?GetClassInfoW@UnknownElement@DirectUI@@UEAAPEAUIClassInfo@2@XZ @1754
    ?GetClassInfoW@Viewer@DirectUI@@UEAAPEAUIClassInfo@2@XZ=C:/Windows/System32/DUI70.?GetClassInfoW@Viewer@DirectUI@@UEAAPEAUIClassInfo@2@XZ @1755
    ?GetClassInfoW@XBaby@DirectUI@@UEAAPEAUIClassInfo@2@XZ=C:/Windows/System32/DUI70.?GetClassInfoW@XBaby@DirectUI@@UEAAPEAUIClassInfo@2@XZ @1756
    ?GetClassInfoW@XElement@DirectUI@@UEAAPEAUIClassInfo@2@XZ=C:/Windows/System32/DUI70.?GetClassInfoW@XElement@DirectUI@@UEAAPEAUIClassInfo@2@XZ @1757
    ?GetClickDevice@TouchButton@DirectUI@@QEAA?AW4ClickDevice@12@XZ=C:/Windows/System32/DUI70.?GetClickDevice@TouchButton@DirectUI@@QEAA?AW4ClickDevice@12@XZ @1758
    ?GetClickablePoint@Element@DirectUI@@QEAA_NPEAUtagPOINT@@@Z=C:/Windows/System32/DUI70.?GetClickablePoint@Element@DirectUI@@QEAA_NPEAUtagPOINT@@@Z @1759
    ?GetClientAccessibleImpl@HWNDHost@DirectUI@@QEAAJPEAPEAUIAccessible@@@Z=C:/Windows/System32/DUI70.?GetClientAccessibleImpl@HWNDHost@DirectUI@@QEAAJPEAPEAUIAccessible@@@Z @1760
    ?GetColorFromProperty@DirectUI@@YAJPEAVElement@1@PEBUPropertyInfo@1@HPEAK@Z=C:/Windows/System32/DUI70.?GetColorFromProperty@DirectUI@@YAJPEAVElement@1@PEBUPropertyInfo@1@HPEAK@Z @1761
    ?GetColorFromValue@DirectUI@@YAJPEAVElement@1@PEAVValue@1@PEAK@Z=C:/Windows/System32/DUI70.?GetColorFromValue@DirectUI@@YAJPEAVElement@1@PEAVValue@1@PEAK@Z @1762
    ?GetColorTrans@Value@DirectUI@@SAPEAV12@XZ=C:/Windows/System32/DUI70.?GetColorTrans@Value@DirectUI@@SAPEAV12@XZ @1763
    ?GetColorize@Element@DirectUI@@QEAAHXZ=C:/Windows/System32/DUI70.?GetColorize@Element@DirectUI@@QEAAHXZ @1764
    ?GetColumn@GridItemProxy@DirectUI@@AEAAJPEAH@Z=C:/Windows/System32/DUI70.?GetColumn@GridItemProxy@DirectUI@@AEAAJPEAH@Z @1765
    ?GetColumnCount@GridProxy@DirectUI@@AEAAJPEAH@Z=C:/Windows/System32/DUI70.?GetColumnCount@GridProxy@DirectUI@@AEAAJPEAH@Z @1766
    ?GetColumnHeaderItems@TableItemProvider@DirectUI@@UEAAJPEAPEAUtagSAFEARRAY@@@Z=C:/Windows/System32/DUI70.?GetColumnHeaderItems@TableItemProvider@DirectUI@@UEAAJPEAPEAUtagSAFEARRAY@@@Z @1767
    ?GetColumnHeaders@TableProvider@DirectUI@@UEAAJPEAPEAUtagSAFEARRAY@@@Z=C:/Windows/System32/DUI70.?GetColumnHeaders@TableProvider@DirectUI@@UEAAJPEAPEAUtagSAFEARRAY@@@Z @1768
    ?GetCommonDrawTextFlags@Element@DirectUI@@AEAAIH@Z=C:/Windows/System32/DUI70.?GetCommonDrawTextFlags@Element@DirectUI@@AEAAIH@Z @1769
    ?GetCompositingQuality@Movie@DirectUI@@QEAAHXZ=C:/Windows/System32/DUI70.?GetCompositingQuality@Movie@DirectUI@@QEAAHXZ @1770
    ?GetConnect@Bind@DirectUI@@QEAAPEBGPEAPEAVValue@2@@Z=C:/Windows/System32/DUI70.?GetConnect@Bind@DirectUI@@QEAAPEBGPEAPEAVValue@2@@Z @1771
    ?GetContainingGrid@GridItemProxy@DirectUI@@AEAAJPEAPEAUIRawElementProviderSimple@@@Z=C:/Windows/System32/DUI70.?GetContainingGrid@GridItemProxy@DirectUI@@AEAAJPEAPEAUIRawElementProviderSimple@@@Z @1772
    ?GetContent@ElementProxy@DirectUI@@IEAAJPEAUtagVARIANT@@PEAUIAccessible@@@Z=C:/Windows/System32/DUI70.?GetContent@ElementProxy@DirectUI@@IEAAJPEAUtagVARIANT@@PEAUIAccessible@@@Z @1773
    ?GetContentAlign@Element@DirectUI@@QEAAHXZ=C:/Windows/System32/DUI70.?GetContentAlign@Element@DirectUI@@QEAAHXZ @1774
    ?GetContentCrossfadeOpacity@TouchScrollViewer@DirectUI@@QEAAMXZ=C:/Windows/System32/DUI70.?GetContentCrossfadeOpacity@TouchScrollViewer@DirectUI@@QEAAMXZ @1775
    ?GetContentDesiredSize@XBaby@DirectUI@@UEAA?AUtagSIZE@@HH@Z=C:/Windows/System32/DUI70.?GetContentDesiredSize@XBaby@DirectUI@@UEAA?AUtagSIZE@@HH@Z @1776
    ?GetContentSize@CCBase@DirectUI@@UEAA?AUtagSIZE@@HHPEAVSurface@2@@Z=C:/Windows/System32/DUI70.?GetContentSize@CCBase@DirectUI@@UEAA?AUtagSIZE@@HHPEAVSurface@2@@Z @1777
    ?GetContentSize@CCBaseCheckRadioButton@DirectUI@@UEAA?AUtagSIZE@@HHPEAVSurface@2@@Z=C:/Windows/System32/DUI70.?GetContentSize@CCBaseCheckRadioButton@DirectUI@@UEAA?AUtagSIZE@@HHPEAVSurface@2@@Z @1778
    ?GetContentSize@CCCommandLink@DirectUI@@UEAA?AUtagSIZE@@HHPEAVSurface@2@@Z=C:/Windows/System32/DUI70.?GetContentSize@CCCommandLink@DirectUI@@UEAA?AUtagSIZE@@HHPEAVSurface@2@@Z @1779
    ?GetContentSize@CCHScrollBar@DirectUI@@UEAA?AUtagSIZE@@HHPEAVSurface@2@@Z=C:/Windows/System32/DUI70.?GetContentSize@CCHScrollBar@DirectUI@@UEAA?AUtagSIZE@@HHPEAVSurface@2@@Z @1780
    ?GetContentSize@CCListBox@DirectUI@@UEAA?AUtagSIZE@@HHPEAVSurface@2@@Z=C:/Windows/System32/DUI70.?GetContentSize@CCListBox@DirectUI@@UEAA?AUtagSIZE@@HHPEAVSurface@2@@Z @1781
    ?GetContentSize@CCListView@DirectUI@@UEAA?AUtagSIZE@@HHPEAVSurface@2@@Z=C:/Windows/System32/DUI70.?GetContentSize@CCListView@DirectUI@@UEAA?AUtagSIZE@@HHPEAVSurface@2@@Z @1782
    ?GetContentSize@CCPushButton@DirectUI@@UEAA?AUtagSIZE@@HHPEAVSurface@2@@Z=C:/Windows/System32/DUI70.?GetContentSize@CCPushButton@DirectUI@@UEAA?AUtagSIZE@@HHPEAVSurface@2@@Z @1783
    ?GetContentSize@CCSysLink@DirectUI@@UEAA?AUtagSIZE@@HHPEAVSurface@2@@Z=C:/Windows/System32/DUI70.?GetContentSize@CCSysLink@DirectUI@@UEAA?AUtagSIZE@@HHPEAVSurface@2@@Z @1784
    ?GetContentSize@CCTreeView@DirectUI@@UEAA?AUtagSIZE@@HHPEAVSurface@2@@Z=C:/Windows/System32/DUI70.?GetContentSize@CCTreeView@DirectUI@@UEAA?AUtagSIZE@@HHPEAVSurface@2@@Z @1785
    ?GetContentSize@CCVScrollBar@DirectUI@@UEAA?AUtagSIZE@@HHPEAVSurface@2@@Z=C:/Windows/System32/DUI70.?GetContentSize@CCVScrollBar@DirectUI@@UEAA?AUtagSIZE@@HHPEAVSurface@2@@Z @1786
    ?GetContentSize@Combobox@DirectUI@@UEAA?AUtagSIZE@@HHPEAVSurface@2@@Z=C:/Windows/System32/DUI70.?GetContentSize@Combobox@DirectUI@@UEAA?AUtagSIZE@@HHPEAVSurface@2@@Z @1787
    ?GetContentSize@Edit@DirectUI@@UEAA?AUtagSIZE@@HHPEAVSurface@2@@Z=C:/Windows/System32/DUI70.?GetContentSize@Edit@DirectUI@@UEAA?AUtagSIZE@@HHPEAVSurface@2@@Z @1788
    ?GetContentSize@Element@DirectUI@@UEAA?AUtagSIZE@@HHPEAVSurface@2@@Z=C:/Windows/System32/DUI70.?GetContentSize@Element@DirectUI@@UEAA?AUtagSIZE@@HHPEAVSurface@2@@Z @1789
    ?GetContentSize@Progress@DirectUI@@UEAA?AUtagSIZE@@HHPEAVSurface@2@@Z=C:/Windows/System32/DUI70.?GetContentSize@Progress@DirectUI@@UEAA?AUtagSIZE@@HHPEAVSurface@2@@Z @1790
    ?GetContentSize@PushButton@DirectUI@@UEAA?AUtagSIZE@@HHPEAVSurface@2@@Z=C:/Windows/System32/DUI70.?GetContentSize@PushButton@DirectUI@@UEAA?AUtagSIZE@@HHPEAVSurface@2@@Z @1791
    ?GetContentSize@RichText@DirectUI@@UEAA?AUtagSIZE@@HHPEAVSurface@2@@Z=C:/Windows/System32/DUI70.?GetContentSize@RichText@DirectUI@@UEAA?AUtagSIZE@@HHPEAVSurface@2@@Z @1792
    ?GetContentString@Element@DirectUI@@QEAAPEBGPEAPEAVValue@2@@Z=C:/Windows/System32/DUI70.?GetContentString@Element@DirectUI@@QEAAPEBGPEAPEAVValue@2@@Z @1793
    ?GetContentStringAsDisplayed@Edit@DirectUI@@UEAAPEBGPEAPEAVValue@2@@Z=C:/Windows/System32/DUI70.?GetContentStringAsDisplayed@Edit@DirectUI@@UEAAPEBGPEAPEAVValue@2@@Z @1794
    ?GetContentStringAsDisplayed@Element@DirectUI@@UEAAPEBGPEAPEAVValue@2@@Z=C:/Windows/System32/DUI70.?GetContentStringAsDisplayed@Element@DirectUI@@UEAAPEBGPEAPEAVValue@2@@Z @1795
    ?GetContentStringAsDisplayed@TextGraphic@DirectUI@@UEAAPEBGPEAPEAVValue@2@@Z=C:/Windows/System32/DUI70.?GetContentStringAsDisplayed@TextGraphic@DirectUI@@UEAAPEBGPEAPEAVValue@2@@Z @1796
    ?GetContentStringAsDisplayed@TouchEditBase@DirectUI@@UEAAPEBGPEAPEAVValue@2@@Z=C:/Windows/System32/DUI70.?GetContentStringAsDisplayed@TouchEditBase@DirectUI@@UEAAPEBGPEAPEAVValue@2@@Z @1797
    ?GetControlType@ElementProxy@DirectUI@@IEAAXPEAUtagVARIANT@@PEAUIAccessible@@@Z=C:/Windows/System32/DUI70.?GetControlType@ElementProxy@DirectUI@@IEAAXPEAUtagVARIANT@@PEAUIAccessible@@@Z @1798
    ?GetControllerFor@TouchEditBase@DirectUI@@UEAAJPEAPEAUIUnknown@@@Z=C:/Windows/System32/DUI70.?GetControllerFor@TouchEditBase@DirectUI@@UEAAJPEAPEAUIUnknown@@@Z @1799
    ?GetCount@CCListBox@DirectUI@@QEAAHXZ=C:/Windows/System32/DUI70.?GetCount@CCListBox@DirectUI@@QEAAHXZ @1800
    ?GetCount@Pages@DirectUI@@QEAAIXZ=C:/Windows/System32/DUI70.?GetCount@Pages@DirectUI@@QEAAIXZ @1801
    ?GetCreationFlags@XElement@DirectUI@@UEAAIXZ=C:/Windows/System32/DUI70.?GetCreationFlags@XElement@DirectUI@@UEAAIXZ @1802
    ?GetCurrentCols@GridLayout@DirectUI@@IEAAIH@Z=C:/Windows/System32/DUI70.?GetCurrentCols@GridLayout@DirectUI@@IEAAIH@Z @1803
    ?GetCurrentCols@GridLayout@DirectUI@@IEAAIPEAVElement@2@@Z=C:/Windows/System32/DUI70.?GetCurrentCols@GridLayout@DirectUI@@IEAAIPEAVElement@2@@Z @1804
    ?GetCurrentPage@Browser@DirectUI@@QEAAPEAVElement@2@XZ=C:/Windows/System32/DUI70.?GetCurrentPage@Browser@DirectUI@@QEAAPEAVElement@2@XZ @1805
    ?GetCurrentPageID@Browser@DirectUI@@QEAAGXZ=C:/Windows/System32/DUI70.?GetCurrentPageID@Browser@DirectUI@@QEAAGXZ @1806
    ?GetCurrentRows@GridLayout@DirectUI@@IEAAIH@Z=C:/Windows/System32/DUI70.?GetCurrentRows@GridLayout@DirectUI@@IEAAIH@Z @1807
    ?GetCurrentRows@GridLayout@DirectUI@@IEAAIPEAVElement@2@@Z=C:/Windows/System32/DUI70.?GetCurrentRows@GridLayout@DirectUI@@IEAAIPEAVElement@2@@Z @1808
    ?GetCursor@Value@DirectUI@@QEAAPEAUCursor@2@XZ=C:/Windows/System32/DUI70.?GetCursor@Value@DirectUI@@QEAAPEAUCursor@2@XZ @1809
    ?GetCursorNull@Value@DirectUI@@SAPEAV12@XZ=C:/Windows/System32/DUI70.?GetCursorNull@Value@DirectUI@@SAPEAV12@XZ @1810
    ?GetDPI@Element@DirectUI@@QEAAHXZ=C:/Windows/System32/DUI70.?GetDPI@Element@DirectUI@@QEAAHXZ @1811
    ?GetDataEntry@Macro@DirectUI@@QEAAPEAUIDataEntry@2@XZ=C:/Windows/System32/DUI70.?GetDataEntry@Macro@DirectUI@@QEAAPEAUIDataEntry@2@XZ @1812
    ?GetDblListEmpty@Value@DirectUI@@SAPEAV12@XZ=C:/Windows/System32/DUI70.?GetDblListEmpty@Value@DirectUI@@SAPEAV12@XZ @1813
    ?GetDefaultButton@DialogElement@DirectUI@@UEAAPEAVElement@2@XZ=C:/Windows/System32/DUI70.?GetDefaultButton@DialogElement@DirectUI@@UEAAPEAVElement@2@XZ @1814
    ?GetDefaultButton@DialogElementCore@DirectUI@@QEAAPEAVElement@2@XZ=C:/Windows/System32/DUI70.?GetDefaultButton@DialogElementCore@DirectUI@@QEAAPEAVElement@2@XZ @1815
    ?GetDefaultButtonTracking@DialogElement@DirectUI@@UEAA_NXZ=C:/Windows/System32/DUI70.?GetDefaultButtonTracking@DialogElement@DirectUI@@UEAA_NXZ @1816
    ?GetDefaultButtonTracking@XBaby@DirectUI@@UEAA_NXZ=C:/Windows/System32/DUI70.?GetDefaultButtonTracking@XBaby@DirectUI@@UEAA_NXZ @1817
    ?GetDeferObject@Element@DirectUI@@QEAAPEAVDeferCycle@2@XZ=C:/Windows/System32/DUI70.?GetDeferObject@Element@DirectUI@@QEAAPEAVDeferCycle@2@XZ @1818
    ?GetDesiredSize@Element@DirectUI@@QEAAPEBUtagSIZE@@XZ=C:/Windows/System32/DUI70.?GetDesiredSize@Element@DirectUI@@QEAAPEBUtagSIZE@@XZ @1819
    ?GetDesiredSize@XProvider@DirectUI@@UEAAJHHPEAUtagSIZE@@@Z=C:/Windows/System32/DUI70.?GetDesiredSize@XProvider@DirectUI@@UEAAJHHPEAUtagSIZE@@@Z @1820
    ?GetDirection@Element@DirectUI@@QEAAHXZ=C:/Windows/System32/DUI70.?GetDirection@Element@DirectUI@@QEAAHXZ @1821
    ?GetDirty@Edit@DirectUI@@QEAA_NXZ=C:/Windows/System32/DUI70.?GetDirty@Edit@DirectUI@@QEAA_NXZ @1822
    ?GetDisableMouseInRectCheck@TouchRepeatButton@DirectUI@@QEAA_NXZ=C:/Windows/System32/DUI70.?GetDisableMouseInRectCheck@TouchRepeatButton@DirectUI@@QEAA_NXZ @1823
    ?GetDispatchFromElement@DuiAccessible@DirectUI@@IEAAJPEAVElement@2@PEAPEAUIDispatch@@@Z=C:/Windows/System32/DUI70.?GetDispatchFromElement@DuiAccessible@DirectUI@@IEAAJPEAVElement@2@PEAPEAUIDispatch@@@Z @1824
    ?GetDisplayNode@Element@DirectUI@@QEAAPEAUHGADGET__@@XZ=C:/Windows/System32/DUI70.?GetDisplayNode@Element@DirectUI@@QEAAPEAUHGADGET__@@XZ @1825
    ?GetDoubleList@Value@DirectUI@@QEAAPEAV?$DynamicArray@N$0A@@2@XZ=C:/Windows/System32/DUI70.?GetDoubleList@Value@DirectUI@@QEAAPEAV?$DynamicArray@N$0A@@2@XZ @1826
    ?GetDrawOutlines@Movie@DirectUI@@QEAA_NXZ=C:/Windows/System32/DUI70.?GetDrawOutlines@Movie@DirectUI@@QEAA_NXZ @1827
    ?GetEdgeHighlightColor@Element@DirectUI@@QEAAPEBUFill@2@PEAPEAVValue@2@@Z=C:/Windows/System32/DUI70.?GetEdgeHighlightColor@Element@DirectUI@@QEAAPEBUFill@2@PEAPEAVValue@2@@Z @1828
    ?GetEdgeHighlightThickness@Element@DirectUI@@QEAAPEBUtagRECT@@PEAPEAVValue@2@@Z=C:/Windows/System32/DUI70.?GetEdgeHighlightThickness@Element@DirectUI@@QEAAPEBUtagRECT@@PEAPEAVValue@2@@Z @1829
    ?GetElListNull@Value@DirectUI@@SAPEAV12@XZ=C:/Windows/System32/DUI70.?GetElListNull@Value@DirectUI@@SAPEAV12@XZ @1830
    ?GetElement@CCBaseScrollBar@DirectUI@@UEAAPEAVElement@2@XZ=C:/Windows/System32/DUI70.?GetElement@CCBaseScrollBar@DirectUI@@UEAAPEAVElement@2@XZ @1831
    ?GetElement@ElementProvider@DirectUI@@UEAAPEDVElement@2@XZ=C:/Windows/System32/DUI70.?GetElement@ElementProvider@DirectUI@@UEAAPEDVElement@2@XZ @1832
    ?GetElement@NativeHWNDHost@DirectUI@@QEAAPEAVElement@2@XZ=C:/Windows/System32/DUI70.?GetElement@NativeHWNDHost@DirectUI@@QEAAPEAVElement@2@XZ @1833
    ?GetElement@ScrollBar@DirectUI@@UEAAPEAVElement@2@XZ=C:/Windows/System32/DUI70.?GetElement@ScrollBar@DirectUI@@UEAAPEAVElement@2@XZ @1834
    ?GetElement@TaskPage@DirectUI@@IEAAPEAVElement@2@XZ=C:/Windows/System32/DUI70.?GetElement@TaskPage@DirectUI@@IEAAPEAVElement@2@XZ @1835
    ?GetElement@Value@DirectUI@@QEAAPEAVElement@2@XZ=C:/Windows/System32/DUI70.?GetElement@Value@DirectUI@@QEAAPEAVElement@2@XZ @1836
    ?GetElement@XHost@DirectUI@@QEAAPEAVElement@2@XZ=C:/Windows/System32/DUI70.?GetElement@XHost@DirectUI@@QEAAPEAVElement@2@XZ @1837
    ?GetElementKey@ElementProvider@DirectUI@@QEAAPEBVElement@2@XZ=C:/Windows/System32/DUI70.?GetElementKey@ElementProvider@DirectUI@@QEAAPEBVElement@2@XZ @1838
    ?GetElementList@Value@DirectUI@@QEAAPEAV?$DynamicArray@PEAVElement@DirectUI@@$0A@@2@XZ=C:/Windows/System32/DUI70.?GetElementList@Value@DirectUI@@QEAAPEAV?$DynamicArray@PEAVElement@DirectUI@@$0A@@2@XZ @1839
    ?GetElementMovesOnIHMNotify@TouchEditBase@DirectUI@@QEAA_NXZ=C:/Windows/System32/DUI70.?GetElementMovesOnIHMNotify@TouchEditBase@DirectUI@@QEAA_NXZ @1840
    ?GetElementNull@Value@DirectUI@@SAPEAV12@XZ=C:/Windows/System32/DUI70.?GetElementNull@Value@DirectUI@@SAPEAV12@XZ @1841
    ?GetElementProviderImpl@Element@DirectUI@@UEAAJPEAVInvokeHelper@2@PEAPEAVElementProvider@2@@Z=C:/Windows/System32/DUI70.?GetElementProviderImpl@Element@DirectUI@@UEAAJPEAVInvokeHelper@2@PEAPEAVElementProvider@2@@Z @1842
    ?GetElementProviderImpl@TouchSelect@DirectUI@@UEAAJPEAVInvokeHelper@2@PEAPEAVElementProvider@2@@Z=C:/Windows/System32/DUI70.?GetElementProviderImpl@TouchSelect@DirectUI@@UEAAJPEAVInvokeHelper@2@PEAPEAVElementProvider@2@@Z @1843
    ?GetElementProviderImpl@XBaby@DirectUI@@UEAAJPEAVInvokeHelper@2@PEAPEAVElementProvider@2@@Z=C:/Windows/System32/DUI70.?GetElementProviderImpl@XBaby@DirectUI@@UEAAJPEAVInvokeHelper@2@PEAPEAVElementProvider@2@@Z @1844
    ?GetElementScaleFactor@Element@DirectUI@@QEAAMXZ=C:/Windows/System32/DUI70.?GetElementScaleFactor@Element@DirectUI@@QEAAMXZ @1845
    ?GetElementScaledFloat@Value@DirectUI@@QEAAMPEAVElement@2@@Z=C:/Windows/System32/DUI70.?GetElementScaledFloat@Value@DirectUI@@QEAAMPEAVElement@2@@Z @1846
    ?GetElementScaledInt@Value@DirectUI@@QEAAHPEAVElement@2@@Z=C:/Windows/System32/DUI70.?GetElementScaledInt@Value@DirectUI@@QEAAHPEAVElement@2@@Z @1847
    ?GetElementScaledPoint@Value@DirectUI@@QEAAXPEAVElement@2@PEAUtagPOINT@@@Z=C:/Windows/System32/DUI70.?GetElementScaledPoint@Value@DirectUI@@QEAAXPEAVElement@2@PEAUtagPOINT@@@Z @1848
    ?GetElementScaledRect@Value@DirectUI@@QEAAXPEAVElement@2@PEAUtagRECT@@@Z=C:/Windows/System32/DUI70.?GetElementScaledRect@Value@DirectUI@@QEAAXPEAVElement@2@PEAUtagRECT@@@Z @1849
    ?GetElementScaledSize@Value@DirectUI@@QEAAXPEAVElement@2@PEAUtagSIZE@@@Z=C:/Windows/System32/DUI70.?GetElementScaledSize@Value@DirectUI@@QEAAXPEAVElement@2@PEAUtagSIZE@@@Z @1850
    ?GetEmbeddedFragmentRoots@ElementProvider@DirectUI@@UEAAJPEAPEAUtagSAFEARRAY@@@Z=C:/Windows/System32/DUI70.?GetEmbeddedFragmentRoots@ElementProvider@DirectUI@@UEAAJPEAPEAUtagSAFEARRAY@@@Z @1851
    ?GetEnabled@Element@DirectUI@@QEAA_NXZ=C:/Windows/System32/DUI70.?GetEnabled@Element@DirectUI@@QEAA_NXZ @1852
    ?GetEncodedContentString@Element@DirectUI@@QEAAJPEAG_K@Z=C:/Windows/System32/DUI70.?GetEncodedContentString@Element@DirectUI@@QEAAJPEAG_K@Z @1853
    ?GetEncodedContentStringLength@Element@DirectUI@@QEAA_KXZ=C:/Windows/System32/DUI70.?GetEncodedContentStringLength@Element@DirectUI@@QEAA_KXZ @1854
    ?GetEncodedString@Value@DirectUI@@QEAAJPEAG_K@Z=C:/Windows/System32/DUI70.?GetEncodedString@Value@DirectUI@@QEAAJPEAG_K@Z @1855
    ?GetEncodedStringLength@Value@DirectUI@@QEAA_KXZ=C:/Windows/System32/DUI70.?GetEncodedStringLength@Value@DirectUI@@QEAA_KXZ @1856
    ?GetEnforceSize@PushButton@DirectUI@@QEAA_NXZ=C:/Windows/System32/DUI70.?GetEnforceSize@PushButton@DirectUI@@QEAA_NXZ @1857
    ?GetExpand@Macro@DirectUI@@QEAAPEBGPEAPEAVValue@2@@Z=C:/Windows/System32/DUI70.?GetExpand@Macro@DirectUI@@QEAAPEBGPEAPEAVValue@2@@Z @1858
    ?GetExpandCollapseState@EventManager@DirectUI@@CAXPEAUtagVARIANT@@@Z=C:/Windows/System32/DUI70.?GetExpandCollapseState@EventManager@DirectUI@@CAXPEAUtagVARIANT@@@Z @1859
    ?GetExpanded@Expandable@DirectUI@@QEAA_NXZ=C:/Windows/System32/DUI70.?GetExpanded@Expandable@DirectUI@@QEAA_NXZ @1860
    ?GetExprNull@Value@DirectUI@@SAPEAV12@XZ=C:/Windows/System32/DUI70.?GetExprNull@Value@DirectUI@@SAPEAV12@XZ @1861
    ?GetExpression@Value@DirectUI@@QEAAPEAVExpression@2@XZ=C:/Windows/System32/DUI70.?GetExpression@Value@DirectUI@@QEAAPEAVExpression@2@XZ @1862
    ?GetExtent@Element@DirectUI@@QEAAPEBUtagSIZE@@PEAPEAVValue@2@@Z=C:/Windows/System32/DUI70.?GetExtent@Element@DirectUI@@QEAAPEBUtagSIZE@@PEAPEAVValue@2@@Z @1863
    ?GetFactory@RichText@DirectUI@@QEAAPEAUIDWriteFactory@@XZ=C:/Windows/System32/DUI70.?GetFactory@RichText@DirectUI@@QEAAPEAUIDWriteFactory@@XZ @1864
    ?GetFactoryLock@Element@DirectUI@@SAPEAU_RTL_CRITICAL_SECTION@@XZ=C:/Windows/System32/DUI70.?GetFactoryLock@Element@DirectUI@@SAPEAU_RTL_CRITICAL_SECTION@@XZ @1865
    ?GetFill@Value@DirectUI@@QEAAPEBUFill@2@XZ=C:/Windows/System32/DUI70.?GetFill@Value@DirectUI@@QEAAPEBUFill@2@XZ @1866
    ?GetFillpartElement@TouchSlider@DirectUI@@QEAAPEAVElement@2@XZ=C:/Windows/System32/DUI70.?GetFillpartElement@TouchSlider@DirectUI@@QEAAPEAVElement@2@XZ @1867
    ?GetFilterOnPaste@TouchEditBase@DirectUI@@QEAA_NXZ=C:/Windows/System32/DUI70.?GetFilterOnPaste@TouchEditBase@DirectUI@@QEAA_NXZ @1868
    ?GetFlags@TouchHWNDElement@DirectUI@@QEAA?AW4TouchHWNDElementFlags@2@XZ=C:/Windows/System32/DUI70.?GetFlags@TouchHWNDElement@DirectUI@@QEAA?AW4TouchHWNDElementFlags@2@XZ @1869
    ?GetFloat@Value@DirectUI@@QEAAMXZ=C:/Windows/System32/DUI70.?GetFloat@Value@DirectUI@@QEAAMXZ @1870
    ?GetFloatOne@Value@DirectUI@@SAPEAV12@XZ=C:/Windows/System32/DUI70.?GetFloatOne@Value@DirectUI@@SAPEAV12@XZ @1871
    ?GetFloatZero@Value@DirectUI@@SAPEAV12@XZ=C:/Windows/System32/DUI70.?GetFloatZero@Value@DirectUI@@SAPEAV12@XZ @1872
    ?GetFocus@HWNDElementProvider@DirectUI@@UEAAJPEAPEAUIRawElementProviderFragment@@@Z=C:/Windows/System32/DUI70.?GetFocus@HWNDElementProvider@DirectUI@@UEAAJPEAPEAUIRawElementProviderFragment@@@Z @1873
    ?GetFocus@HWNDElementProxy@DirectUI@@IEAAJPEAPEAUIRawElementProviderFragment@@@Z=C:/Windows/System32/DUI70.?GetFocus@HWNDElementProxy@DirectUI@@IEAAJPEAPEAUIRawElementProviderFragment@@@Z @1874
    ?GetFocusableElement@XBaby@DirectUI@@UEAAPEAVElement@2@XZ=C:/Windows/System32/DUI70.?GetFocusableElement@XBaby@DirectUI@@UEAAPEAVElement@2@XZ @1875
    ?GetFocusedHWNDElement@HWNDElement@DirectUI@@SAPEAV12@XZ=C:/Windows/System32/DUI70.?GetFocusedHWNDElement@HWNDElement@DirectUI@@SAPEAV12@XZ @1876
    ?GetFont@Element@DirectUI@@QEAAPEBGPEAPEAVValue@2@@Z=C:/Windows/System32/DUI70.?GetFont@Element@DirectUI@@QEAAPEBGPEAPEAVValue@2@@Z @1877
    ?GetFont@HWNDHost@DirectUI@@IEAAPEAUHFONT__@@XZ=C:/Windows/System32/DUI70.?GetFont@HWNDHost@DirectUI@@IEAAPEAUHFONT__@@XZ @1878
    ?GetFontFace@Element@DirectUI@@QEAAPEBGPEAPEAVValue@2@@Z=C:/Windows/System32/DUI70.?GetFontFace@Element@DirectUI@@QEAAPEBGPEAPEAVValue@2@@Z @1879
    ?GetFontQuality@Element@DirectUI@@QEAAHXZ=C:/Windows/System32/DUI70.?GetFontQuality@Element@DirectUI@@QEAAHXZ @1880
    ?GetFontSize@Element@DirectUI@@QEAAHXZ=C:/Windows/System32/DUI70.?GetFontSize@Element@DirectUI@@QEAAHXZ @1881
    ?GetFontStyle@Element@DirectUI@@QEAAHXZ=C:/Windows/System32/DUI70.?GetFontStyle@Element@DirectUI@@QEAAHXZ @1882
    ?GetFontWeight@Element@DirectUI@@QEAAHXZ=C:/Windows/System32/DUI70.?GetFontWeight@Element@DirectUI@@QEAAHXZ @1883
    ?GetForceEditTextToLTR@TouchEditBase@DirectUI@@QEAA_NXZ=C:/Windows/System32/DUI70.?GetForceEditTextToLTR@TouchEditBase@DirectUI@@QEAA_NXZ @1884
    ?GetForegroundColor@Element@DirectUI@@QEAAPEBUFill@2@PEAPEAVValue@2@@Z=C:/Windows/System32/DUI70.?GetForegroundColor@Element@DirectUI@@QEAAPEBUFill@2@PEAPEAVValue@2@@Z @1885
    ?GetForegroundColorRef@RichText@DirectUI@@UEAAJPEAK@Z=C:/Windows/System32/DUI70.?GetForegroundColorRef@RichText@DirectUI@@UEAAJPEAK@Z @1886
    ?GetForegroundColorRef@TouchButton@DirectUI@@UEAAJPEAK@Z=C:/Windows/System32/DUI70.?GetForegroundColorRef@TouchButton@DirectUI@@UEAAJPEAK@Z @1887
    ?GetForegroundStdColor@Element@DirectUI@@QEAAHXZ=C:/Windows/System32/DUI70.?GetForegroundStdColor@Element@DirectUI@@QEAAHXZ @1888
    ?GetFragmentRoot@ElementProxy@DirectUI@@IEAAJPEAPEAUIRawElementProviderFragmentRoot@@@Z=C:/Windows/System32/DUI70.?GetFragmentRoot@ElementProxy@DirectUI@@IEAAJPEAPEAUIRawElementProviderFragmentRoot@@@Z @1889
    ?GetFrameDuration@AnimationStrip@DirectUI@@QEAAHXZ=C:/Windows/System32/DUI70.?GetFrameDuration@AnimationStrip@DirectUI@@QEAAHXZ @1890
    ?GetFrameIndex@AnimationStrip@DirectUI@@QEAAHXZ=C:/Windows/System32/DUI70.?GetFrameIndex@AnimationStrip@DirectUI@@QEAAHXZ @1891
    ?GetFrameWidth@AnimationStrip@DirectUI@@QEAAHXZ=C:/Windows/System32/DUI70.?GetFrameWidth@AnimationStrip@DirectUI@@QEAAHXZ @1892
    ?GetGetSheetCallback@DUIXmlParser@DirectUI@@QEAAP6APEAVValue@2@PEBGPEAX@ZXZ=C:/Windows/System32/DUI70.?GetGetSheetCallback@DUIXmlParser@DirectUI@@QEAAP6APEAVValue@2@PEBGPEAX@ZXZ @1893
    ?GetGlobalIndex@ClassInfoBase@DirectUI@@UEBAIXZ=C:/Windows/System32/DUI70.?GetGlobalIndex@ClassInfoBase@DirectUI@@UEBAIXZ @1894
    ?GetGraphic@Value@DirectUI@@QEAAPEAUGraphic@2@XZ=C:/Windows/System32/DUI70.?GetGraphic@Value@DirectUI@@QEAAPEAUGraphic@2@XZ @1895
    ?GetHDC@DCSurface@DirectUI@@QEAAPEAUHDC__@@XZ=C:/Windows/System32/DUI70.?GetHDC@DCSurface@DirectUI@@QEAAPEAUHDC__@@XZ @1896
    ?GetHInstance@DUIXmlParser@DirectUI@@QEAAPEAUHINSTANCE__@@XZ=C:/Windows/System32/DUI70.?GetHInstance@DUIXmlParser@DirectUI@@QEAAPEAUHINSTANCE__@@XZ @1897
    ?GetHScroll@ScrollViewer@DirectUI@@MEAAPEAVBaseScrollBar@2@XZ=C:/Windows/System32/DUI70.?GetHScroll@ScrollViewer@DirectUI@@MEAAPEAVBaseScrollBar@2@XZ @1898
    ?GetHScroll@StyledScrollViewer@DirectUI@@MEAAPEAVBaseScrollBar@2@XZ=C:/Windows/System32/DUI70.?GetHScroll@StyledScrollViewer@DirectUI@@MEAAPEAVBaseScrollBar@2@XZ @1899
    ?GetHScrollbar@TouchScrollViewer@DirectUI@@QEAAJPEAPEAVElement@2@@Z=C:/Windows/System32/DUI70.?GetHScrollbar@TouchScrollViewer@DirectUI@@QEAAJPEAPEAVElement@2@@Z @1900
    ?GetHWND@HWNDElement@DirectUI@@UEAAPEAUHWND__@@XZ=C:/Windows/System32/DUI70.?GetHWND@HWNDElement@DirectUI@@UEAAPEAUHWND__@@XZ @1901
    ?GetHWND@HWNDHost@DirectUI@@UEAAPEAUHWND__@@XZ=C:/Windows/System32/DUI70.?GetHWND@HWNDHost@DirectUI@@UEAAPEAUHWND__@@XZ @1902
    ?GetHWND@NativeHWNDHost@DirectUI@@QEAAPEAUHWND__@@XZ=C:/Windows/System32/DUI70.?GetHWND@NativeHWNDHost@DirectUI@@QEAAPEAUHWND__@@XZ @1903
    ?GetHWND@XHost@DirectUI@@QEAAPEAUHWND__@@XZ=C:/Windows/System32/DUI70.?GetHWND@XHost@DirectUI@@QEAAPEAUHWND__@@XZ @1904
    ?GetHWNDParent@HWNDHost@DirectUI@@QEAAPEAUHWND__@@XZ=C:/Windows/System32/DUI70.?GetHWNDParent@HWNDHost@DirectUI@@QEAAPEAUHWND__@@XZ @1905
    ?GetHandle@ResourceModuleHandles@DirectUI@@QEAAJPEBGPEAPEAUHINSTANCE__@@@Z=C:/Windows/System32/DUI70.?GetHandle@ResourceModuleHandles@DirectUI@@QEAAJPEBGPEAPEAUHINSTANCE__@@@Z @1906
    ?GetHandleEnter@TouchButton@DirectUI@@QEAA_NXZ=C:/Windows/System32/DUI70.?GetHandleEnter@TouchButton@DirectUI@@QEAA_NXZ @1907
    ?GetHandleEnterKey@DialogElement@DirectUI@@UEAA_NXZ=C:/Windows/System32/DUI70.?GetHandleEnterKey@DialogElement@DirectUI@@UEAA_NXZ @1908
    ?GetHandleGlobalEnter@TouchButton@DirectUI@@QEAA_NXZ=C:/Windows/System32/DUI70.?GetHandleGlobalEnter@TouchButton@DirectUI@@QEAA_NXZ @1909
    ?GetHasShield@CCPushButton@DirectUI@@QEAA_NXZ=C:/Windows/System32/DUI70.?GetHasShield@CCPushButton@DirectUI@@QEAA_NXZ @1910
    ?GetHeight@Element@DirectUI@@QEAAHXZ=C:/Windows/System32/DUI70.?GetHeight@Element@DirectUI@@QEAAHXZ @1911
    ?GetHighDPI@Element@DirectUI@@QEAA_NXZ=C:/Windows/System32/DUI70.?GetHighDPI@Element@DirectUI@@QEAA_NXZ @1912
    ?GetHostedElementID@XBaby@DirectUI@@UEAAJPEAG@Z=C:/Windows/System32/DUI70.?GetHostedElementID@XBaby@DirectUI@@UEAAJPEAG@Z @1913
    ?GetHostedElementID@XProvider@DirectUI@@UEAAJPEAG@Z=C:/Windows/System32/DUI70.?GetHostedElementID@XProvider@DirectUI@@UEAAJPEAG@Z @1914
    ?GetHwnd@ElementProxy@DirectUI@@IEAAJPEAPEAUHWND__@@@Z=C:/Windows/System32/DUI70.?GetHwnd@ElementProxy@DirectUI@@IEAAJPEAPEAUHWND__@@@Z @1915
    ?GetID@Element@DirectUI@@QEAAGXZ=C:/Windows/System32/DUI70.?GetID@Element@DirectUI@@QEAAGXZ @1916
    ?GetIDsOfNames@DuiAccessible@DirectUI@@UEAAJAEBU_GUID@@PEAPEAGIKPEAJ@Z=C:/Windows/System32/DUI70.?GetIDsOfNames@DuiAccessible@DirectUI@@UEAAJAEBU_GUID@@PEAPEAGIKPEAJ@Z @1917
    ?GetIHMRect@TouchHWNDElement@DirectUI@@QEAAJPEAUtagRECT@@@Z=C:/Windows/System32/DUI70.?GetIHMRect@TouchHWNDElement@DirectUI@@QEAAJPEAUtagRECT@@@Z @1918
    ?GetIHMState@TouchHWNDElement@DirectUI@@QEAA?AW4IHMState@2@XZ=C:/Windows/System32/DUI70.?GetIHMState@TouchHWNDElement@DirectUI@@QEAA?AW4IHMState@2@XZ @1919
    ?GetIMEComposing@TouchEditBase@DirectUI@@QEAA_NXZ=C:/Windows/System32/DUI70.?GetIMEComposing@TouchEditBase@DirectUI@@QEAA_NXZ @1920
    ?GetIdentityString@DuiAccessible@DirectUI@@UEAAJKPEAPEAEPEAK@Z=C:/Windows/System32/DUI70.?GetIdentityString@DuiAccessible@DirectUI@@UEAAJKPEAPEAEPEAK@Z @1921
    ?GetIdentityString@HWNDHostAccessible@DirectUI@@UEAAJKPEAPEAEPEAK@Z=C:/Windows/System32/DUI70.?GetIdentityString@HWNDHostAccessible@DirectUI@@UEAAJKPEAPEAEPEAK@Z @1922
    ?GetIgnoredKeyCombos@TouchEditBase@DirectUI@@QEAA?AW4TouchEditFilteredKeyComboFlags@2@XZ=C:/Windows/System32/DUI70.?GetIgnoredKeyCombos@TouchEditBase@DirectUI@@QEAA?AW4TouchEditFilteredKeyComboFlags@2@XZ @1923
    ?GetImage@Value@DirectUI@@QEAAPEAX_NM@Z=C:/Windows/System32/DUI70.?GetImage@Value@DirectUI@@QEAAPEAX_NM@Z @1924
    ?GetImmediateChild@Element@DirectUI@@QEAAPEAV12@PEAV12@@Z=C:/Windows/System32/DUI70.?GetImmediateChild@Element@DirectUI@@QEAAPEAV12@PEAV12@@Z @1925
    ?GetImmersiveFocusRectOffsets@Element@DirectUI@@UEAAXPEAUtagRECT@@@Z=C:/Windows/System32/DUI70.?GetImmersiveFocusRectOffsets@Element@DirectUI@@UEAAXPEAUtagRECT@@@Z @1926
    ?GetImmersiveFocusRectOffsets@TouchButton@DirectUI@@UEAAXPEAUtagRECT@@@Z=C:/Windows/System32/DUI70.?GetImmersiveFocusRectOffsets@TouchButton@DirectUI@@UEAAXPEAUtagRECT@@@Z @1927
    ?GetImmersiveFocusRectOffsets@TouchCheckBox@DirectUI@@UEAAXPEAUtagRECT@@@Z=C:/Windows/System32/DUI70.?GetImmersiveFocusRectOffsets@TouchCheckBox@DirectUI@@UEAAXPEAUtagRECT@@@Z @1928
    ?GetImmersiveFocusRectOffsets@TouchHyperLink@DirectUI@@UEAAXPEAUtagRECT@@@Z=C:/Windows/System32/DUI70.?GetImmersiveFocusRectOffsets@TouchHyperLink@DirectUI@@UEAAXPEAUtagRECT@@@Z @1929
    ?GetIndex@Element@DirectUI@@QEAAHXZ=C:/Windows/System32/DUI70.?GetIndex@Element@DirectUI@@QEAAHXZ @1930
    ?GetInertiaEndpointVisibleRect@TouchScrollViewer@DirectUI@@QEAAXPEAUtagRECT@@@Z=C:/Windows/System32/DUI70.?GetInertiaEndpointVisibleRect@TouchScrollViewer@DirectUI@@QEAAXPEAUtagRECT@@@Z @1931
    ?GetInertiaEndpointZoomLevel@TouchScrollViewer@DirectUI@@QEAAMM@Z=C:/Windows/System32/DUI70.?GetInertiaEndpointZoomLevel@TouchScrollViewer@DirectUI@@QEAAMM@Z @1932
    ?GetInnerBorderThickness@TouchEdit2@DirectUI@@QEAAPEBUtagRECT@@PEAPEAVValue@2@@Z=C:/Windows/System32/DUI70.?GetInnerBorderThickness@TouchEdit2@DirectUI@@QEAAPEBUtagRECT@@PEAPEAVValue@2@@Z @1933
    ?GetInnerHWND@XElement@DirectUI@@QEAAPEAUHWND__@@XZ=C:/Windows/System32/DUI70.?GetInnerHWND@XElement@DirectUI@@QEAAPEAUHWND__@@XZ @1934
    ?GetInputScope@TouchEdit2@DirectUI@@QEAA?AW4__MIDL___MIDL_itf_inputscope_0000_0000_0001@@XZ=C:/Windows/System32/DUI70.?GetInputScope@TouchEdit2@DirectUI@@QEAA?AW4__MIDL___MIDL_itf_inputscope_0000_0000_0001@@XZ @1935
    ?GetInt@EventManager@DirectUI@@CAJPEAUtagVARIANT@@PEAVValue@2@@Z=C:/Windows/System32/DUI70.?GetInt@EventManager@DirectUI@@CAJPEAUtagVARIANT@@PEAVValue@2@@Z @1936
    ?GetInt@Value@DirectUI@@QEAAHXZ=C:/Windows/System32/DUI70.?GetInt@Value@DirectUI@@QEAAHXZ @1937
    ?GetIntMinusOne@Value@DirectUI@@SAPEAV12@XZ=C:/Windows/System32/DUI70.?GetIntMinusOne@Value@DirectUI@@SAPEAV12@XZ @1938
    ?GetIntZero@Value@DirectUI@@SAPEAV12@XZ=C:/Windows/System32/DUI70.?GetIntZero@Value@DirectUI@@SAPEAV12@XZ @1939
    ?GetIntegrateIMECandidateList@TouchEditBase@DirectUI@@QEAA_NXZ=C:/Windows/System32/DUI70.?GetIntegrateIMECandidateList@TouchEditBase@DirectUI@@QEAA_NXZ @1940
    ?GetInteractionMode@TouchScrollViewer@DirectUI@@QEAAHXZ=C:/Windows/System32/DUI70.?GetInteractionMode@TouchScrollViewer@DirectUI@@QEAAHXZ @1941
    ?GetInterpolationMode@Movie@DirectUI@@QEAAHXZ=C:/Windows/System32/DUI70.?GetInterpolationMode@Movie@DirectUI@@QEAAHXZ @1942
    ?GetInvokeHelper@InvokeManager@DirectUI@@SAJPEAPEAVInvokeHelper@2@@Z=C:/Windows/System32/DUI70.?GetInvokeHelper@InvokeManager@DirectUI@@SAJPEAPEAVInvokeHelper@2@@Z @1943
    ?GetIsContinuous@TouchSlider@DirectUI@@QEAA_NXZ=C:/Windows/System32/DUI70.?GetIsContinuous@TouchSlider@DirectUI@@QEAA_NXZ @1944
    ?GetIsPressed@TouchSlider@DirectUI@@QEAA_NXZ=C:/Windows/System32/DUI70.?GetIsPressed@TouchSlider@DirectUI@@QEAA_NXZ @1945
    ?GetIsReadOnly@ValueProxy@DirectUI@@AEAAJPEAH@Z=C:/Windows/System32/DUI70.?GetIsReadOnly@ValueProxy@DirectUI@@AEAAJPEAH@Z @1946
    ?GetIsSelected@NavigatorSelectionItemProxy@DirectUI@@AEAAJPEAVBrowser@2@PEAH@Z=C:/Windows/System32/DUI70.?GetIsSelected@NavigatorSelectionItemProxy@DirectUI@@AEAAJPEAVBrowser@2@PEAH@Z @1947
    ?GetIsSelectionRequired@BrowserSelectionProxy@DirectUI@@AEAAJPEAH@Z=C:/Windows/System32/DUI70.?GetIsSelectionRequired@BrowserSelectionProxy@DirectUI@@AEAAJPEAH@Z @1948
    ?GetIsSelectionRequired@SelectorSelectionProxy@DirectUI@@AEAAJPEAH@Z=C:/Windows/System32/DUI70.?GetIsSelectionRequired@SelectorSelectionProxy@DirectUI@@AEAAJPEAH@Z @1949
    ?GetIsShowOnOffFeedback@TouchSlider@DirectUI@@QEAA_NXZ=C:/Windows/System32/DUI70.?GetIsShowOnOffFeedback@TouchSlider@DirectUI@@QEAA_NXZ @1950
    ?GetIsVertical@TouchSlider@DirectUI@@QEAA_NXZ=C:/Windows/System32/DUI70.?GetIsVertical@TouchSlider@DirectUI@@QEAA_NXZ @1951
    ?GetItem@GridProvider@DirectUI@@UEAAJHHPEAPEAUIRawElementProviderSimple@@@Z=C:/Windows/System32/DUI70.?GetItem@GridProvider@DirectUI@@UEAAJHHPEAPEAUIRawElementProviderSimple@@@Z @1952
    ?GetItem@GridProxy@DirectUI@@AEAAJIIPEAPEAUIRawElementProviderSimple@@@Z=C:/Windows/System32/DUI70.?GetItem@GridProxy@DirectUI@@AEAAJIIPEAPEAUIRawElementProviderSimple@@@Z @1953
    ?GetItemCount@TouchSelect@DirectUI@@QEAAKXZ=C:/Windows/System32/DUI70.?GetItemCount@TouchSelect@DirectUI@@QEAAKXZ @1954
    ?GetItemData@TouchSelect@DirectUI@@QEAAJHPEAPEAUIUnknown@@@Z=C:/Windows/System32/DUI70.?GetItemData@TouchSelect@DirectUI@@QEAAJHPEAPEAUIUnknown@@@Z @1955
    ?GetItemData@TouchSelectItem@DirectUI@@QEAAJPEAPEAUIUnknown@@@Z=C:/Windows/System32/DUI70.?GetItemData@TouchSelectItem@DirectUI@@QEAAJPEAPEAUIUnknown@@@Z @1956
    ?GetItemHeightInPopup@TouchSelect@DirectUI@@QEAAHXZ=C:/Windows/System32/DUI70.?GetItemHeightInPopup@TouchSelect@DirectUI@@QEAAHXZ @1957
    ?GetItemState@CCTreeView@DirectUI@@QEAAIQEAU_TREEITEM@@@Z=C:/Windows/System32/DUI70.?GetItemState@CCTreeView@DirectUI@@QEAAIQEAU_TREEITEM@@@Z @1958
    ?GetKeyFocused@Element@DirectUI@@UEAA_NXZ=C:/Windows/System32/DUI70.?GetKeyFocused@Element@DirectUI@@UEAA_NXZ @1959
    ?GetKeyFocused@HWNDHost@DirectUI@@UEAA_NXZ=C:/Windows/System32/DUI70.?GetKeyFocused@HWNDHost@DirectUI@@UEAA_NXZ @1960
    ?GetKeyFocusedElement@DialogElement@DirectUI@@UEAAPEAVElement@2@XZ=C:/Windows/System32/DUI70.?GetKeyFocusedElement@DialogElement@DirectUI@@UEAAPEAVElement@2@XZ @1961
    ?GetKeyFocusedElement@HWNDElement@DirectUI@@SAPEAVElement@2@XZ=C:/Windows/System32/DUI70.?GetKeyFocusedElement@HWNDElement@DirectUI@@SAPEAVElement@2@XZ @1962
    ?GetKeyWithin@Element@DirectUI@@QEAA_NXZ=C:/Windows/System32/DUI70.?GetKeyWithin@Element@DirectUI@@QEAA_NXZ @1963
    ?GetKeyWithinChild@Element@DirectUI@@QEAAPEAV12@XZ=C:/Windows/System32/DUI70.?GetKeyWithinChild@Element@DirectUI@@QEAAPEAV12@XZ @1964
    ?GetKeyboardNavigationCapture@TouchEditBase@DirectUI@@QEAA?AW4TouchEditKeyboardNavigationCapture@2@XZ=C:/Windows/System32/DUI70.?GetKeyboardNavigationCapture@TouchEditBase@DirectUI@@QEAA?AW4TouchEditKeyboardNavigationCapture@2@XZ @1965
    ?GetLabel@ElementProxy@DirectUI@@IEAAJPEAUtagVARIANT@@@Z=C:/Windows/System32/DUI70.?GetLabel@ElementProxy@DirectUI@@IEAAJPEAUtagVARIANT@@@Z @1966
    ?GetLayout@Element@DirectUI@@QEAAPEAVLayout@2@PEAPEAVValue@2@@Z=C:/Windows/System32/DUI70.?GetLayout@Element@DirectUI@@QEAAPEAVLayout@2@PEAPEAVValue@2@@Z @1967
    ?GetLayout@Value@DirectUI@@QEAAPEAVLayout@2@XZ=C:/Windows/System32/DUI70.?GetLayout@Value@DirectUI@@QEAAPEAVLayout@2@XZ @1968
    ?GetLayoutChildCount@Layout@DirectUI@@QEAAIPEAVElement@2@@Z=C:/Windows/System32/DUI70.?GetLayoutChildCount@Layout@DirectUI@@QEAAIPEAVElement@2@@Z @1969
    ?GetLayoutIndexFromChild@Layout@DirectUI@@QEAAHPEAVElement@2@0@Z=C:/Windows/System32/DUI70.?GetLayoutIndexFromChild@Layout@DirectUI@@QEAAHPEAVElement@2@0@Z @1970
    ?GetLayoutNull@Value@DirectUI@@SAPEAV12@XZ=C:/Windows/System32/DUI70.?GetLayoutNull@Value@DirectUI@@SAPEAV12@XZ @1971
    ?GetLayoutPos@Element@DirectUI@@QEAAHXZ=C:/Windows/System32/DUI70.?GetLayoutPos@Element@DirectUI@@QEAAHXZ @1972
    ?GetLightDismissIHM@TouchHWNDElement@DirectUI@@QEAA_NXZ=C:/Windows/System32/DUI70.?GetLightDismissIHM@TouchHWNDElement@DirectUI@@QEAA_NXZ @1973
    ?GetLine@CCBaseScrollBar@DirectUI@@UEAAHXZ=C:/Windows/System32/DUI70.?GetLine@CCBaseScrollBar@DirectUI@@UEAAHXZ @1974
    ?GetLine@FlowLayout@DirectUI@@QEAAHPEAVElement@2@0@Z=C:/Windows/System32/DUI70.?GetLine@FlowLayout@DirectUI@@QEAAHPEAVElement@2@0@Z @1975
    ?GetLine@ScrollBar@DirectUI@@UEAAHXZ=C:/Windows/System32/DUI70.?GetLine@ScrollBar@DirectUI@@UEAAHXZ @1976
    ?GetLine@VerticalFlowLayout@DirectUI@@QEAAHPEAVElement@2@0@Z=C:/Windows/System32/DUI70.?GetLine@VerticalFlowLayout@DirectUI@@QEAAHPEAVElement@2@0@Z @1977
    ?GetLineCount@RichText@DirectUI@@QEAAKXZ=C:/Windows/System32/DUI70.?GetLineCount@RichText@DirectUI@@QEAAKXZ @1978
    ?GetLineSize@CCTrackBar@DirectUI@@QEAAHXZ=C:/Windows/System32/DUI70.?GetLineSize@CCTrackBar@DirectUI@@QEAAHXZ @1979
    ?GetLinkIndicatorsToContent@TouchScrollViewer@DirectUI@@QEAA_NXZ=C:/Windows/System32/DUI70.?GetLinkIndicatorsToContent@TouchScrollViewer@DirectUI@@QEAA_NXZ @1980
    ?GetLocation@Element@DirectUI@@QEAAPEBUtagPOINT@@PEAPEAVValue@2@@Z=C:/Windows/System32/DUI70.?GetLocation@Element@DirectUI@@QEAAPEBUtagPOINT@@PEAPEAVValue@2@@Z @1981
    ?GetManipulationCompositor@TouchScrollViewer@DirectUI@@QEAAPEAUIDirectManipulationCompositor@@XZ=C:/Windows/System32/DUI70.?GetManipulationCompositor@TouchScrollViewer@DirectUI@@QEAAPEAUIDirectManipulationCompositor@@XZ @1982
    ?GetManipulationHorizontalAlignment@TouchScrollViewer@DirectUI@@QEAAHXZ=C:/Windows/System32/DUI70.?GetManipulationHorizontalAlignment@TouchScrollViewer@DirectUI@@QEAAHXZ @1983
    ?GetManipulationManager@TouchScrollViewer@DirectUI@@QEAAPEAUIDirectManipulationManager@@XZ=C:/Windows/System32/DUI70.?GetManipulationManager@TouchScrollViewer@DirectUI@@QEAAPEAUIDirectManipulationManager@@XZ @1984
    ?GetManipulationVerticalAlignment@TouchScrollViewer@DirectUI@@QEAAHXZ=C:/Windows/System32/DUI70.?GetManipulationVerticalAlignment@TouchScrollViewer@DirectUI@@QEAAHXZ @1985
    ?GetManipulationViewport@TouchScrollViewer@DirectUI@@QEAAPEAUIDirectManipulationViewport@@_N@Z=C:/Windows/System32/DUI70.?GetManipulationViewport@TouchScrollViewer@DirectUI@@QEAAPEAUIDirectManipulationViewport@@_N@Z @1986
    ?GetMargin@Element@DirectUI@@QEAAPEBUtagRECT@@PEAPEAVValue@2@@Z=C:/Windows/System32/DUI70.?GetMargin@Element@DirectUI@@QEAAPEBUtagRECT@@PEAPEAVValue@2@@Z @1987
    ?GetMaxLength@Edit@DirectUI@@QEAAHXZ=C:/Windows/System32/DUI70.?GetMaxLength@Edit@DirectUI@@QEAAHXZ @1988
    ?GetMaxLength@TouchEditBase@DirectUI@@QEAAHXZ=C:/Windows/System32/DUI70.?GetMaxLength@TouchEditBase@DirectUI@@QEAAHXZ @1989
    ?GetMaximum@CCBaseScrollBar@DirectUI@@UEAAHXZ=C:/Windows/System32/DUI70.?GetMaximum@CCBaseScrollBar@DirectUI@@UEAAHXZ @1990
    ?GetMaximum@ModernProgressBar@DirectUI@@QEAAHXZ=C:/Windows/System32/DUI70.?GetMaximum@ModernProgressBar@DirectUI@@QEAAHXZ @1991
    ?GetMaximum@Progress@DirectUI@@QEAAHXZ=C:/Windows/System32/DUI70.?GetMaximum@Progress@DirectUI@@QEAAHXZ @1992
    ?GetMaximum@ScrollBar@DirectUI@@UEAAHXZ=C:/Windows/System32/DUI70.?GetMaximum@ScrollBar@DirectUI@@UEAAHXZ @1993
    ?GetMetering@TouchSlider@DirectUI@@QEAAHXZ=C:/Windows/System32/DUI70.?GetMetering@TouchSlider@DirectUI@@QEAAHXZ @1994
    ?GetMinSize@Element@DirectUI@@QEAAPEBUtagSIZE@@PEAPEAVValue@2@@Z=C:/Windows/System32/DUI70.?GetMinSize@Element@DirectUI@@QEAAPEBUtagSIZE@@PEAPEAVValue@2@@Z @1995
    ?GetMinimum@CCBaseScrollBar@DirectUI@@UEAAHXZ=C:/Windows/System32/DUI70.?GetMinimum@CCBaseScrollBar@DirectUI@@UEAAHXZ @1996
    ?GetMinimum@ModernProgressBar@DirectUI@@QEAAHXZ=C:/Windows/System32/DUI70.?GetMinimum@ModernProgressBar@DirectUI@@QEAAHXZ @1997
    ?GetMinimum@Progress@DirectUI@@QEAAHXZ=C:/Windows/System32/DUI70.?GetMinimum@Progress@DirectUI@@QEAAHXZ @1998
    ?GetMinimum@ScrollBar@DirectUI@@UEAAHXZ=C:/Windows/System32/DUI70.?GetMinimum@ScrollBar@DirectUI@@UEAAHXZ @1999
    ?GetModule@ClassInfoBase@DirectUI@@UEBAPEAUHINSTANCE__@@XZ=C:/Windows/System32/DUI70.?GetModule@ClassInfoBase@DirectUI@@UEBAPEAUHINSTANCE__@@XZ @2000
    ?GetModuleBase@CallstackTracker@DirectUI@@AEAA_KPEAX_K@Z=C:/Windows/System32/DUI70.?GetModuleBase@CallstackTracker@DirectUI@@AEAA_KPEAX_K@Z @2001
    ?GetMouseFocused@Element@DirectUI@@QEAA_NXZ=C:/Windows/System32/DUI70.?GetMouseFocused@Element@DirectUI@@QEAA_NXZ @2002
    ?GetMouseWithin@Element@DirectUI@@QEAA_NXZ=C:/Windows/System32/DUI70.?GetMouseWithin@Element@DirectUI@@QEAA_NXZ @2003
    ?GetMouseWithinChild@Element@DirectUI@@QEAAPEAV12@XZ=C:/Windows/System32/DUI70.?GetMouseWithinChild@Element@DirectUI@@QEAAPEAV12@XZ @2004
    ?GetMouseWithinHorizontalScrollRegion@TouchScrollViewer@DirectUI@@QEAA_NXZ=C:/Windows/System32/DUI70.?GetMouseWithinHorizontalScrollRegion@TouchScrollViewer@DirectUI@@QEAA_NXZ @2005
    ?GetMoveCaretToEndOnSyncContent@TouchEditBase@DirectUI@@QEAA_NXZ=C:/Windows/System32/DUI70.?GetMoveCaretToEndOnSyncContent@TouchEditBase@DirectUI@@QEAA_NXZ @2006
    ?GetMultiline@Edit@DirectUI@@QEAA_NXZ=C:/Windows/System32/DUI70.?GetMultiline@Edit@DirectUI@@QEAA_NXZ @2007
    ?GetMultiline@TouchEditBase@DirectUI@@QEAA_NXZ=C:/Windows/System32/DUI70.?GetMultiline@TouchEditBase@DirectUI@@QEAA_NXZ @2008
    ?GetName@ClassInfoBase@DirectUI@@UEBAPEBGXZ=C:/Windows/System32/DUI70.?GetName@ClassInfoBase@DirectUI@@UEBAPEBGXZ @2009
    ?GetNote@CCCommandLink@DirectUI@@QEAAPEBGPEAPEAVValue@2@@Z=C:/Windows/System32/DUI70.?GetNote@CCCommandLink@DirectUI@@QEAAPEBGPEAPEAVValue@2@@Z @2010
    ?GetNotificationSinkHWND@XElement@DirectUI@@UEAAPEAUHWND__@@XZ=C:/Windows/System32/DUI70.?GetNotificationSinkHWND@XElement@DirectUI@@UEAAPEAUHWND__@@XZ @2011
    ?GetNull@Value@DirectUI@@SAPEAV12@XZ=C:/Windows/System32/DUI70.?GetNull@Value@DirectUI@@SAPEAV12@XZ @2012
    ?GetOffText@TouchSwitch@DirectUI@@QEAAPEBGPEAPEAVValue@2@@Z=C:/Windows/System32/DUI70.?GetOffText@TouchSwitch@DirectUI@@QEAAPEBGPEAPEAVValue@2@@Z @2013
    ?GetOnText@TouchSwitch@DirectUI@@QEAAPEBGPEAPEAVValue@2@@Z=C:/Windows/System32/DUI70.?GetOnText@TouchSwitch@DirectUI@@QEAAPEBGPEAPEAVValue@2@@Z @2014
    ?GetOptimizeMove@HWNDHost@DirectUI@@QEAA_NXZ=C:/Windows/System32/DUI70.?GetOptimizeMove@HWNDHost@DirectUI@@QEAA_NXZ @2015
    ?GetOrder@ScrollBar@DirectUI@@QEAAHXZ=C:/Windows/System32/DUI70.?GetOrder@ScrollBar@DirectUI@@QEAAHXZ @2016
    ?GetOverhang@Element@DirectUI@@QEAA_NXZ=C:/Windows/System32/DUI70.?GetOverhang@Element@DirectUI@@QEAA_NXZ @2017
    ?GetOverrideButtonBackground@CCPushButton@DirectUI@@QEAA_NXZ=C:/Windows/System32/DUI70.?GetOverrideButtonBackground@CCPushButton@DirectUI@@QEAA_NXZ @2018
    ?GetOverrideScaleFactor@DUIXmlParser@DirectUI@@QEBA_NPEAM@Z=C:/Windows/System32/DUI70.?GetOverrideScaleFactor@DUIXmlParser@DirectUI@@QEBA_NPEAM@Z @2019
    ?GetPICount@ClassInfoBase@DirectUI@@UEBAIXZ=C:/Windows/System32/DUI70.?GetPICount@ClassInfoBase@DirectUI@@UEBAIXZ @2020
    ?GetPVLAnimationState@Element@DirectUI@@QEAAHXZ=C:/Windows/System32/DUI70.?GetPVLAnimationState@Element@DirectUI@@QEAAHXZ @2021
    ?GetPadding@Element@DirectUI@@QEAAPEBUtagRECT@@PEAPEAVValue@2@@Z=C:/Windows/System32/DUI70.?GetPadding@Element@DirectUI@@QEAAPEBUtagRECT@@PEAPEAVValue@2@@Z @2022
    ?GetPage@CCBaseScrollBar@DirectUI@@UEAAHXZ=C:/Windows/System32/DUI70.?GetPage@CCBaseScrollBar@DirectUI@@UEAAHXZ @2023
    ?GetPage@Pages@DirectUI@@QEAAPEAVElement@2@I@Z=C:/Windows/System32/DUI70.?GetPage@Pages@DirectUI@@QEAAPEAVElement@2@I@Z @2024
    ?GetPage@Pages@DirectUI@@QEAAPEAVElement@2@PEBG@Z=C:/Windows/System32/DUI70.?GetPage@Pages@DirectUI@@QEAAPEAVElement@2@PEBG@Z @2025
    ?GetPage@ScrollBar@DirectUI@@UEAAHXZ=C:/Windows/System32/DUI70.?GetPage@ScrollBar@DirectUI@@UEAAHXZ @2026
    ?GetPageInc@BaseScrollBar@DirectUI@@QEAAHXZ=C:/Windows/System32/DUI70.?GetPageInc@BaseScrollBar@DirectUI@@QEAAHXZ @2027
    ?GetPageRCID@TaskPage@DirectUI@@MEAAIXZ=C:/Windows/System32/DUI70.?GetPageRCID@TaskPage@DirectUI@@MEAAIXZ @2028
    ?GetPageResID@TaskPage@DirectUI@@MEAAPEBGXZ=C:/Windows/System32/DUI70.?GetPageResID@TaskPage@DirectUI@@MEAAPEBGXZ @2029
    ?GetPages@Browser@DirectUI@@QEAAPEAVPages@2@XZ=C:/Windows/System32/DUI70.?GetPages@Browser@DirectUI@@QEAAPEAVPages@2@XZ @2030
    ?GetParent@Element@DirectUI@@QEAAPEAV12@XZ=C:/Windows/System32/DUI70.?GetParent@Element@DirectUI@@QEAAPEAV12@XZ @2031
    ?GetParentHWND@TaskPage@DirectUI@@QEAAPEAUHWND__@@XZ=C:/Windows/System32/DUI70.?GetParentHWND@TaskPage@DirectUI@@QEAAPEAUHWND__@@XZ @2032
    ?GetParser@DUIFactory@DirectUI@@QEAAPEAVDUIXmlParser@2@XZ=C:/Windows/System32/DUI70.?GetParser@DUIFactory@DirectUI@@QEAAPEAVDUIXmlParser@2@XZ @2033
    ?GetParserCommon@DUIXmlParser@DirectUI@@IEAAJPEAPEAV12@@Z=C:/Windows/System32/DUI70.?GetParserCommon@DUIXmlParser@DirectUI@@IEAAJPEAPEAV12@@Z @2034
    ?GetPasswordCharacter@Edit@DirectUI@@QEAAHXZ=C:/Windows/System32/DUI70.?GetPasswordCharacter@Edit@DirectUI@@QEAAHXZ @2035
    ?GetPasswordCharacter@TouchEditBase@DirectUI@@QEAAHXZ=C:/Windows/System32/DUI70.?GetPasswordCharacter@TouchEditBase@DirectUI@@QEAAHXZ @2036
    ?GetPasswordRevealMode@TouchEdit2@DirectUI@@QEAA?AW4TouchEditPasswordRevealMode@2@XZ=C:/Windows/System32/DUI70.?GetPasswordRevealMode@TouchEdit2@DirectUI@@QEAA?AW4TouchEditPasswordRevealMode@2@XZ @2037
    ?GetPath@Movie@DirectUI@@QEAAPEBGPEAPEAVValue@2@@Z=C:/Windows/System32/DUI70.?GetPath@Movie@DirectUI@@QEAAPEBGPEAPEAVValue@2@@Z @2038
    ?GetPatternProvider@ElementProvider@DirectUI@@UEAAJHPEAPEAUIUnknown@@@Z=C:/Windows/System32/DUI70.?GetPatternProvider@ElementProvider@DirectUI@@UEAAJHPEAPEAUIUnknown@@@Z @2039
    ?GetPinning@BaseScrollViewer@DirectUI@@QEAAHXZ=C:/Windows/System32/DUI70.?GetPinning@BaseScrollViewer@DirectUI@@QEAAHXZ @2040
    ?GetPixelOffsetMode@Movie@DirectUI@@QEAAHXZ=C:/Windows/System32/DUI70.?GetPixelOffsetMode@Movie@DirectUI@@QEAAHXZ @2041
    ?GetPlay@AnimationStrip@DirectUI@@QEAA_NXZ=C:/Windows/System32/DUI70.?GetPlay@AnimationStrip@DirectUI@@QEAA_NXZ @2042
    ?GetPlayAllFramesMode@Movie@DirectUI@@QEAA_NXZ=C:/Windows/System32/DUI70.?GetPlayAllFramesMode@Movie@DirectUI@@QEAA_NXZ @2043
    ?GetPoint@Value@DirectUI@@QEAAPEBUtagPOINT@@XZ=C:/Windows/System32/DUI70.?GetPoint@Value@DirectUI@@QEAAPEBUtagPOINT@@XZ @2044
    ?GetPointZero@Value@DirectUI@@SAPEAV12@XZ=C:/Windows/System32/DUI70.?GetPointZero@Value@DirectUI@@SAPEAV12@XZ @2045
    ?GetPopupBounds@TouchSelect@DirectUI@@QEAAPEBUtagRECT@@PEAPEAVValue@2@@Z=C:/Windows/System32/DUI70.?GetPopupBounds@TouchSelect@DirectUI@@QEAAPEBUtagRECT@@PEAPEAVValue@2@@Z @2046
    ?GetPosition@CCBaseScrollBar@DirectUI@@UEAAHXZ=C:/Windows/System32/DUI70.?GetPosition@CCBaseScrollBar@DirectUI@@UEAAHXZ @2047
    ?GetPosition@ModernProgressBar@DirectUI@@QEAAHXZ=C:/Windows/System32/DUI70.?GetPosition@ModernProgressBar@DirectUI@@QEAAHXZ @2048
    ?GetPosition@Progress@DirectUI@@QEAAHXZ=C:/Windows/System32/DUI70.?GetPosition@Progress@DirectUI@@QEAAHXZ @2049
    ?GetPosition@ScrollBar@DirectUI@@UEAAHXZ=C:/Windows/System32/DUI70.?GetPosition@ScrollBar@DirectUI@@UEAAHXZ @2050
    ?GetPredictedVisibleRect@TouchScrollViewer@DirectUI@@QEAAXPEAUtagRECT@@@Z=C:/Windows/System32/DUI70.?GetPredictedVisibleRect@TouchScrollViewer@DirectUI@@QEAAXPEAUtagRECT@@@Z @2051
    ?GetPreserveAlphaChannel@Element@DirectUI@@QEBA_NXZ=C:/Windows/System32/DUI70.?GetPreserveAlphaChannel@Element@DirectUI@@QEBA_NXZ @2052
    ?GetPressed@Button@DirectUI@@QEAA_NXZ=C:/Windows/System32/DUI70.?GetPressed@Button@DirectUI@@QEAA_NXZ @2053
    ?GetPressed@TouchButton@DirectUI@@QEAA_NXZ=C:/Windows/System32/DUI70.?GetPressed@TouchButton@DirectUI@@QEAA_NXZ @2054
    ?GetPreventFormatChangeUpdatingModifiedState@TouchEditBase@DirectUI@@QEAA_NXZ=C:/Windows/System32/DUI70.?GetPreventFormatChangeUpdatingModifiedState@TouchEditBase@DirectUI@@QEAA_NXZ @2055
    ?GetProcs@Schema@DirectUI@@CAJXZ=C:/Windows/System32/DUI70.?GetProcs@Schema@DirectUI@@CAJXZ @2056
    ?GetPromptText@TouchEdit2@DirectUI@@QEAAPEBGPEAPEAVValue@2@@Z=C:/Windows/System32/DUI70.?GetPromptText@TouchEdit2@DirectUI@@QEAAPEBGPEAPEAVValue@2@@Z @2057
    ?GetPromptWithCaret@TouchEdit2@DirectUI@@QEAA_NXZ=C:/Windows/System32/DUI70.?GetPromptWithCaret@TouchEdit2@DirectUI@@QEAA_NXZ @2058
    ?GetPropValPairInfo@DUIXmlParser@DirectUI@@IEAAJPEAUIXmlReader@@PEAUIClassInfo@2@PEBG2PEAPEBUPropertyInfo@2@PEAPEAVValue@2@@Z=C:/Windows/System32/DUI70.?GetPropValPairInfo@DUIXmlParser@DirectUI@@IEAAJPEAUIXmlReader@@PEAUIClassInfo@2@PEBG2PEAPEBUPropertyInfo@2@PEAPEAVValue@2@@Z @2059
    ?GetPropValPairInfo@DUIXmlParser@DirectUI@@IEAAJULINEINFO@2@PEAUIClassInfo@2@PEBG2PEAPEBUPropertyInfo@2@PEAPEAVValue@2@@Z=C:/Windows/System32/DUI70.?GetPropValPairInfo@DUIXmlParser@DirectUI@@IEAAJULINEINFO@2@PEAUIClassInfo@2@PEBG2PEAPEBUPropertyInfo@2@PEAPEAVValue@2@@Z @2060
    ?GetProperty@Bind@DirectUI@@QEAAPEBGPEAPEAVValue@2@@Z=C:/Windows/System32/DUI70.?GetProperty@Bind@DirectUI@@QEAAPEBGPEAPEAVValue@2@@Z @2061
    ?GetProperty@ElementProxy@DirectUI@@IEAAJPEAUtagVARIANT@@H@Z=C:/Windows/System32/DUI70.?GetProperty@ElementProxy@DirectUI@@IEAAJPEAUtagVARIANT@@H@Z @2062
    ?GetPropertyValue@ElementProvider@DirectUI@@UEAAJHPEAUtagVARIANT@@@Z=C:/Windows/System32/DUI70.?GetPropertyValue@ElementProvider@DirectUI@@UEAAJHPEAUtagVARIANT@@@Z @2063
    ?GetProportional@CCBaseScrollBar@DirectUI@@UEAA_NXZ=C:/Windows/System32/DUI70.?GetProportional@CCBaseScrollBar@DirectUI@@UEAA_NXZ @2064
    ?GetProportional@ScrollBar@DirectUI@@UEAA_NXZ=C:/Windows/System32/DUI70.?GetProportional@ScrollBar@DirectUI@@UEAA_NXZ @2065
    ?GetProvider@XElement@DirectUI@@QEAAPEAUIXProvider@2@XZ=C:/Windows/System32/DUI70.?GetProvider@XElement@DirectUI@@QEAAPEAUIXProvider@2@XZ @2066
    ?GetProviderOptions@ElementProxy@DirectUI@@IEAAJPEAW4ProviderOptions@@@Z=C:/Windows/System32/DUI70.?GetProviderOptions@ElementProxy@DirectUI@@IEAAJPEAW4ProviderOptions@@@Z @2067
    ?GetProxyCreator@?$PatternProvider@VExpandCollapseProvider@DirectUI@@UIExpandCollapseProvider@@$00@DirectUI@@UEAAP6APEAVProviderProxy@2@PEAVElement@2@@ZXZ=C:/Windows/System32/DUI70.?GetProxyCreator@?$PatternProvider@VExpandCollapseProvider@DirectUI@@UIExpandCollapseProvider@@$00@DirectUI@@UEAAP6APEAVProviderProxy@2@PEAVElement@2@@ZXZ @2068
    ?GetProxyCreator@?$PatternProvider@VGridItemProvider@DirectUI@@UIGridItemProvider@@$01@DirectUI@@UEAAP6APEAVProviderProxy@2@PEAVElement@2@@ZXZ=C:/Windows/System32/DUI70.?GetProxyCreator@?$PatternProvider@VGridItemProvider@DirectUI@@UIGridItemProvider@@$01@DirectUI@@UEAAP6APEAVProviderProxy@2@PEAVElement@2@@ZXZ @2069
    ?GetProxyCreator@?$PatternProvider@VGridProvider@DirectUI@@UIGridProvider@@$02@DirectUI@@UEAAP6APEAVProviderProxy@2@PEAVElement@2@@ZXZ=C:/Windows/System32/DUI70.?GetProxyCreator@?$PatternProvider@VGridProvider@DirectUI@@UIGridProvider@@$02@DirectUI@@UEAAP6APEAVProviderProxy@2@PEAVElement@2@@ZXZ @2070
    ?GetProxyCreator@?$PatternProvider@VInvokeProvider@DirectUI@@UIInvokeProvider@@$0A@@DirectUI@@UEAAP6APEAVProviderProxy@2@PEAVElement@2@@ZXZ=C:/Windows/System32/DUI70.?GetProxyCreator@?$PatternProvider@VInvokeProvider@DirectUI@@UIInvokeProvider@@$0A@@DirectUI@@UEAAP6APEAVProviderProxy@2@PEAVElement@2@@ZXZ @2071
    ?GetProxyCreator@?$PatternProvider@VRangeValueProvider@DirectUI@@UIRangeValueProvider@@$03@DirectUI@@UEAAP6APEAVProviderProxy@2@PEAVElement@2@@ZXZ=C:/Windows/System32/DUI70.?GetProxyCreator@?$PatternProvider@VRangeValueProvider@DirectUI@@UIRangeValueProvider@@$03@DirectUI@@UEAAP6APEAVProviderProxy@2@PEAVElement@2@@ZXZ @2072
    ?GetProxyCreator@?$PatternProvider@VScrollItemProvider@DirectUI@@UIScrollItemProvider@@$05@DirectUI@@UEAAP6APEAVProviderProxy@2@PEAVElement@2@@ZXZ=C:/Windows/System32/DUI70.?GetProxyCreator@?$PatternProvider@VScrollItemProvider@DirectUI@@UIScrollItemProvider@@$05@DirectUI@@UEAAP6APEAVProviderProxy@2@PEAVElement@2@@ZXZ @2073
    ?GetProxyCreator@?$PatternProvider@VScrollProvider@DirectUI@@UIScrollProvider@@$04@DirectUI@@UEAAP6APEAVProviderProxy@2@PEAVElement@2@@ZXZ=C:/Windows/System32/DUI70.?GetProxyCreator@?$PatternProvider@VScrollProvider@DirectUI@@UIScrollProvider@@$04@DirectUI@@UEAAP6APEAVProviderProxy@2@PEAVElement@2@@ZXZ @2074
    ?GetProxyCreator@?$PatternProvider@VSelectionItemProvider@DirectUI@@UISelectionItemProvider@@$06@DirectUI@@UEAAP6APEAVProviderProxy@2@PEAVElement@2@@ZXZ=C:/Windows/System32/DUI70.?GetProxyCreator@?$PatternProvider@VSelectionItemProvider@DirectUI@@UISelectionItemProvider@@$06@DirectUI@@UEAAP6APEAVProviderProxy@2@PEAVElement@2@@ZXZ @2075
    ?GetProxyCreator@?$PatternProvider@VSelectionProvider@DirectUI@@UISelectionProvider@@$07@DirectUI@@UEAAP6APEAVProviderProxy@2@PEAVElement@2@@ZXZ=C:/Windows/System32/DUI70.?GetProxyCreator@?$PatternProvider@VSelectionProvider@DirectUI@@UISelectionProvider@@$07@DirectUI@@UEAAP6APEAVProviderProxy@2@PEAVElement@2@@ZXZ @2076
    ?GetProxyCreator@?$PatternProvider@VTableItemProvider@DirectUI@@UITableItemProvider@@$09@DirectUI@@UEAAP6APEAVProviderProxy@2@PEAVElement@2@@ZXZ=C:/Windows/System32/DUI70.?GetProxyCreator@?$PatternProvider@VTableItemProvider@DirectUI@@UITableItemProvider@@$09@DirectUI@@UEAAP6APEAVProviderProxy@2@PEAVElement@2@@ZXZ @2077
    ?GetProxyCreator@?$PatternProvider@VTableProvider@DirectUI@@UITableProvider@@$08@DirectUI@@UEAAP6APEAVProviderProxy@2@PEAVElement@2@@ZXZ=C:/Windows/System32/DUI70.?GetProxyCreator@?$PatternProvider@VTableProvider@DirectUI@@UITableProvider@@$08@DirectUI@@UEAAP6APEAVProviderProxy@2@PEAVElement@2@@ZXZ @2078
    ?GetProxyCreator@?$PatternProvider@VToggleProvider@DirectUI@@UIToggleProvider@@$0L@@DirectUI@@UEAAP6APEAVProviderProxy@2@PEAVElement@2@@ZXZ=C:/Windows/System32/DUI70.?GetProxyCreator@?$PatternProvider@VToggleProvider@DirectUI@@UIToggleProvider@@$0L@@DirectUI@@UEAAP6APEAVProviderProxy@2@PEAVElement@2@@ZXZ @2079
    ?GetProxyCreator@?$PatternProvider@VValueProvider@DirectUI@@UIValueProvider@@$0M@@DirectUI@@UEAAP6APEAVProviderProxy@2@PEAVElement@2@@ZXZ=C:/Windows/System32/DUI70.?GetProxyCreator@?$PatternProvider@VValueProvider@DirectUI@@UIValueProvider@@$0M@@DirectUI@@UEAAP6APEAVProviderProxy@2@PEAVElement@2@@ZXZ @2080
    ?GetProxyCreator@ElementProvider@DirectUI@@UEAAP6APEAVProviderProxy@2@PEAVElement@2@@ZXZ=C:/Windows/System32/DUI70.?GetProxyCreator@ElementProvider@DirectUI@@UEAAP6APEAVProviderProxy@2@PEAVElement@2@@ZXZ @2081
    ?GetProxyCreator@ExpandCollapseProvider@DirectUI@@UEAAP6APEAVProviderProxy@2@PEAVElement@2@@ZXZ=C:/Windows/System32/DUI70.?GetProxyCreator@ExpandCollapseProvider@DirectUI@@UEAAP6APEAVProviderProxy@2@PEAVElement@2@@ZXZ @2082
    ?GetProxyCreator@GridItemProvider@DirectUI@@UEAAP6APEAVProviderProxy@2@PEAVElement@2@@ZXZ=C:/Windows/System32/DUI70.?GetProxyCreator@GridItemProvider@DirectUI@@UEAAP6APEAVProviderProxy@2@PEAVElement@2@@ZXZ @2083
    ?GetProxyCreator@GridProvider@DirectUI@@UEAAP6APEAVProviderProxy@2@PEAVElement@2@@ZXZ=C:/Windows/System32/DUI70.?GetProxyCreator@GridProvider@DirectUI@@UEAAP6APEAVProviderProxy@2@PEAVElement@2@@ZXZ @2084
    ?GetProxyCreator@HWNDElementProvider@DirectUI@@UEAAP6APEAVProviderProxy@2@PEAVElement@2@@ZXZ=C:/Windows/System32/DUI70.?GetProxyCreator@HWNDElementProvider@DirectUI@@UEAAP6APEAVProviderProxy@2@PEAVElement@2@@ZXZ @2085
    ?GetProxyCreator@InvokeProvider@DirectUI@@UEAAP6APEAVProviderProxy@2@PEAVElement@2@@ZXZ=C:/Windows/System32/DUI70.?GetProxyCreator@InvokeProvider@DirectUI@@UEAAP6APEAVProviderProxy@2@PEAVElement@2@@ZXZ @2086
    ?GetProxyCreator@RangeValueProvider@DirectUI@@UEAAP6APEAVProviderProxy@2@PEAVElement@2@@ZXZ=C:/Windows/System32/DUI70.?GetProxyCreator@RangeValueProvider@DirectUI@@UEAAP6APEAVProviderProxy@2@PEAVElement@2@@ZXZ @2087
    ?GetProxyCreator@ScrollItemProvider@DirectUI@@UEAAP6APEAVProviderProxy@2@PEAVElement@2@@ZXZ=C:/Windows/System32/DUI70.?GetProxyCreator@ScrollItemProvider@DirectUI@@UEAAP6APEAVProviderProxy@2@PEAVElement@2@@ZXZ @2088
    ?GetProxyCreator@ScrollProvider@DirectUI@@UEAAP6APEAVProviderProxy@2@PEAVElement@2@@ZXZ=C:/Windows/System32/DUI70.?GetProxyCreator@ScrollProvider@DirectUI@@UEAAP6APEAVProviderProxy@2@PEAVElement@2@@ZXZ @2089
    ?GetProxyCreator@SelectionItemProvider@DirectUI@@UEAAP6APEAVProviderProxy@2@PEAVElement@2@@ZXZ=C:/Windows/System32/DUI70.?GetProxyCreator@SelectionItemProvider@DirectUI@@UEAAP6APEAVProviderProxy@2@PEAVElement@2@@ZXZ @2090
    ?GetProxyCreator@SelectionProvider@DirectUI@@UEAAP6APEAVProviderProxy@2@PEAVElement@2@@ZXZ=C:/Windows/System32/DUI70.?GetProxyCreator@SelectionProvider@DirectUI@@UEAAP6APEAVProviderProxy@2@PEAVElement@2@@ZXZ @2091
    ?GetProxyCreator@TableItemProvider@DirectUI@@UEAAP6APEAVProviderProxy@2@PEAVElement@2@@ZXZ=C:/Windows/System32/DUI70.?GetProxyCreator@TableItemProvider@DirectUI@@UEAAP6APEAVProviderProxy@2@PEAVElement@2@@ZXZ @2092
    ?GetProxyCreator@TableProvider@DirectUI@@UEAAP6APEAVProviderProxy@2@PEAVElement@2@@ZXZ=C:/Windows/System32/DUI70.?GetProxyCreator@TableProvider@DirectUI@@UEAAP6APEAVProviderProxy@2@PEAVElement@2@@ZXZ @2093
    ?GetProxyCreator@ToggleProvider@DirectUI@@UEAAP6APEAVProviderProxy@2@PEAVElement@2@@ZXZ=C:/Windows/System32/DUI70.?GetProxyCreator@ToggleProvider@DirectUI@@UEAAP6APEAVProviderProxy@2@PEAVElement@2@@ZXZ @2094
    ?GetProxyCreator@ValueProvider@DirectUI@@UEAAP6APEAVProviderProxy@2@PEAVElement@2@@ZXZ=C:/Windows/System32/DUI70.?GetProxyCreator@ValueProvider@DirectUI@@UEAAP6APEAVProviderProxy@2@PEAVElement@2@@ZXZ @2095
    ?GetRangeMax@CCTrackBar@DirectUI@@QEAAHXZ=C:/Windows/System32/DUI70.?GetRangeMax@CCTrackBar@DirectUI@@QEAAHXZ @2096
    ?GetRangeMax@TouchSlider@DirectUI@@QEAAHXZ=C:/Windows/System32/DUI70.?GetRangeMax@TouchSlider@DirectUI@@QEAAHXZ @2097
    ?GetRangeMin@CCTrackBar@DirectUI@@QEAAHXZ=C:/Windows/System32/DUI70.?GetRangeMin@CCTrackBar@DirectUI@@QEAAHXZ @2098
    ?GetRangeMin@TouchSlider@DirectUI@@QEAAHXZ=C:/Windows/System32/DUI70.?GetRangeMin@TouchSlider@DirectUI@@QEAAHXZ @2099
    ?GetRawValue@Element@DirectUI@@QEAAPEAVValue@2@PEBUPropertyInfo@2@HPEAUUpdateCache@2@@Z=C:/Windows/System32/DUI70.?GetRawValue@Element@DirectUI@@QEAAPEAVValue@2@PEBUPropertyInfo@2@HPEAUUpdateCache@2@@Z @2100
    ?GetReadOnly@TouchEditBase@DirectUI@@QEAA_NXZ=C:/Windows/System32/DUI70.?GetReadOnly@TouchEditBase@DirectUI@@QEAA_NXZ @2101
    ?GetRect@Value@DirectUI@@QEAAPEBUtagRECT@@XZ=C:/Windows/System32/DUI70.?GetRect@Value@DirectUI@@QEAAPEBUtagRECT@@XZ @2102
    ?GetRectZero@Value@DirectUI@@SAPEAV12@XZ=C:/Windows/System32/DUI70.?GetRectZero@Value@DirectUI@@SAPEAV12@XZ @2103
    ?GetRefCount@Value@DirectUI@@QEBAHXZ=C:/Windows/System32/DUI70.?GetRefCount@Value@DirectUI@@QEBAHXZ @2104
    ?GetReferencePoint@RefPointElement@DirectUI@@QEAAPEBUtagPOINT@@PEAPEAVValue@2@@Z=C:/Windows/System32/DUI70.?GetReferencePoint@RefPointElement@DirectUI@@QEAAPEBUtagPOINT@@PEAPEAVValue@2@@Z @2105
    ?GetRegisteredDefaultButton@DialogElement@DirectUI@@UEAAPEAVElement@2@XZ=C:/Windows/System32/DUI70.?GetRegisteredDefaultButton@DialogElement@DirectUI@@UEAAPEAVElement@2@XZ @2106
    ?GetRenderBorderThickness@Element@DirectUI@@QEAAXPEAUtagRECT@@@Z=C:/Windows/System32/DUI70.?GetRenderBorderThickness@Element@DirectUI@@QEAAXPEAUtagRECT@@@Z @2107
    ?GetRenderEdgeHighlightThickness@Element@DirectUI@@QEAAXPEAUtagRECT@@@Z=C:/Windows/System32/DUI70.?GetRenderEdgeHighlightThickness@Element@DirectUI@@QEAAXPEAUtagRECT@@@Z @2108
    ?GetRenderMargin@Element@DirectUI@@QEAAXPEAUtagRECT@@@Z=C:/Windows/System32/DUI70.?GetRenderMargin@Element@DirectUI@@QEAAXPEAUtagRECT@@@Z @2109
    ?GetRenderMinSize@Element@DirectUI@@QEAAXPEAUtagSIZE@@@Z=C:/Windows/System32/DUI70.?GetRenderMinSize@Element@DirectUI@@QEAAXPEAUtagSIZE@@@Z @2110
    ?GetRenderPadding@Element@DirectUI@@QEAAXPEAUtagRECT@@@Z=C:/Windows/System32/DUI70.?GetRenderPadding@Element@DirectUI@@QEAAXPEAUtagRECT@@@Z @2111
    ?GetRepeat@Movie@DirectUI@@QEAA_NXZ=C:/Windows/System32/DUI70.?GetRepeat@Movie@DirectUI@@QEAA_NXZ @2112
    ?GetResourceHInstance@DUIXmlParser@DirectUI@@QEAAPEAUHINSTANCE__@@XZ=C:/Windows/System32/DUI70.?GetResourceHInstance@DUIXmlParser@DirectUI@@QEAAPEAUHINSTANCE__@@XZ @2113
    ?GetRoot@Element@DirectUI@@QEAAPEAV12@XZ=C:/Windows/System32/DUI70.?GetRoot@Element@DirectUI@@QEAAPEAV12@XZ @2114
    ?GetRoot@XProvider@DirectUI@@IEAAPEAVElement@2@XZ=C:/Windows/System32/DUI70.?GetRoot@XProvider@DirectUI@@IEAAPEAVElement@2@XZ @2115
    ?GetRootRelativeBounds@Element@DirectUI@@QEAAJPEAUtagRECT@@@Z=C:/Windows/System32/DUI70.?GetRootRelativeBounds@Element@DirectUI@@QEAAJPEAUtagRECT@@@Z @2116
    ?GetRow@GridItemProxy@DirectUI@@AEAAJPEAH@Z=C:/Windows/System32/DUI70.?GetRow@GridItemProxy@DirectUI@@AEAAJPEAH@Z @2117
    ?GetRowCount@GridProxy@DirectUI@@AEAAJPEAH@Z=C:/Windows/System32/DUI70.?GetRowCount@GridProxy@DirectUI@@AEAAJPEAH@Z @2118
    ?GetRowHeaderItems@TableItemProvider@DirectUI@@UEAAJPEAPEAUtagSAFEARRAY@@@Z=C:/Windows/System32/DUI70.?GetRowHeaderItems@TableItemProvider@DirectUI@@UEAAJPEAPEAUtagSAFEARRAY@@@Z @2119
    ?GetRowHeaders@TableProvider@DirectUI@@UEAAJPEAPEAUtagSAFEARRAY@@@Z=C:/Windows/System32/DUI70.?GetRowHeaders@TableProvider@DirectUI@@UEAAJPEAPEAUtagSAFEARRAY@@@Z @2120
    ?GetRuntimeId@ElementProvider@DirectUI@@UEAAJPEAPEAUtagSAFEARRAY@@@Z=C:/Windows/System32/DUI70.?GetRuntimeId@ElementProvider@DirectUI@@UEAAJPEAPEAUtagSAFEARRAY@@@Z @2121
    ?GetRuntimeId@ElementProxy@DirectUI@@IEAAJPEAPEAUtagSAFEARRAY@@@Z=C:/Windows/System32/DUI70.?GetRuntimeId@ElementProxy@DirectUI@@IEAAJPEAPEAUtagSAFEARRAY@@@Z @2122
    ?GetScaledFloat@Value@DirectUI@@QEAAMM@Z=C:/Windows/System32/DUI70.?GetScaledFloat@Value@DirectUI@@QEAAMM@Z @2123
    ?GetScaledInt@Value@DirectUI@@QEAAHM@Z=C:/Windows/System32/DUI70.?GetScaledInt@Value@DirectUI@@QEAAHM@Z @2124
    ?GetScaledInt@Value@DirectUI@@QEAAPEBUScaledInt@2@XZ=C:/Windows/System32/DUI70.?GetScaledInt@Value@DirectUI@@QEAAPEBUScaledInt@2@XZ @2125
    ?GetScaledPoint@Value@DirectUI@@QEAAXMPEAUtagPOINT@@@Z=C:/Windows/System32/DUI70.?GetScaledPoint@Value@DirectUI@@QEAAXMPEAUtagPOINT@@@Z @2126
    ?GetScaledRect@Value@DirectUI@@QEAAXMPEAUtagRECT@@@Z=C:/Windows/System32/DUI70.?GetScaledRect@Value@DirectUI@@QEAAXMPEAUtagRECT@@@Z @2127
    ?GetScaledSize@Value@DirectUI@@QEAAXMPEAUtagSIZE@@@Z=C:/Windows/System32/DUI70.?GetScaledSize@Value@DirectUI@@QEAAXMPEAUtagSIZE@@@Z @2128
    ?GetScrollBar@ScrollProxy@DirectUI@@AEAAPEAVBaseScrollBar@2@_N@Z=C:/Windows/System32/DUI70.?GetScrollBar@ScrollProxy@DirectUI@@AEAAPEAVBaseScrollBar@2@_N@Z @2129
    ?GetScrollBarHelper@ScrollProxy@DirectUI@@AEAAPEAVBaseScrollBar@2@PEAVElement@2@_N@Z=C:/Windows/System32/DUI70.?GetScrollBarHelper@ScrollProxy@DirectUI@@AEAAPEAVBaseScrollBar@2@PEAVElement@2@_N@Z @2130
    ?GetScrollPadding@TouchScrollViewer@DirectUI@@QEAAPEBUtagRECT@@PEAPEAVValue@2@@Z=C:/Windows/System32/DUI70.?GetScrollPadding@TouchScrollViewer@DirectUI@@QEAAPEBUtagRECT@@PEAPEAVValue@2@@Z @2131
    ?GetScrollPercent@ScrollProxy@DirectUI@@AEAAJ_NPEAN@Z=C:/Windows/System32/DUI70.?GetScrollPercent@ScrollProxy@DirectUI@@AEAAJ_NPEAN@Z @2132
    ?GetScrollable@ScrollProxy@DirectUI@@AEAAJ_NPEAH@Z=C:/Windows/System32/DUI70.?GetScrollable@ScrollProxy@DirectUI@@AEAAJ_NPEAH@Z @2133
    ?GetSelected@Element@DirectUI@@QEAA_NXZ=C:/Windows/System32/DUI70.?GetSelected@Element@DirectUI@@QEAA_NXZ @2134
    ?GetSelection@BrowserSelectionProxy@DirectUI@@AEAAJPEAPEAUtagSAFEARRAY@@@Z=C:/Windows/System32/DUI70.?GetSelection@BrowserSelectionProxy@DirectUI@@AEAAJPEAPEAUtagSAFEARRAY@@@Z @2135
    ?GetSelection@Combobox@DirectUI@@QEAAHXZ=C:/Windows/System32/DUI70.?GetSelection@Combobox@DirectUI@@QEAAHXZ @2136
    ?GetSelection@SelectionProvider@DirectUI@@UEAAJPEAPEAUtagSAFEARRAY@@@Z=C:/Windows/System32/DUI70.?GetSelection@SelectionProvider@DirectUI@@UEAAJPEAPEAUtagSAFEARRAY@@@Z @2137
    ?GetSelection@Selector@DirectUI@@QEAAPEAVElement@2@XZ=C:/Windows/System32/DUI70.?GetSelection@Selector@DirectUI@@QEAAPEAVElement@2@XZ @2138
    ?GetSelection@TouchEdit2@DirectUI@@QEAAJPEAJ0@Z=C:/Windows/System32/DUI70.?GetSelection@TouchEdit2@DirectUI@@QEAAJPEAJ0@Z @2139
    ?GetSelection@TouchSelect@DirectUI@@QEAAPEAVElement@2@XZ=C:/Windows/System32/DUI70.?GetSelection@TouchSelect@DirectUI@@QEAAPEAVElement@2@XZ @2140
    ?GetSelectionBackgroundColor@TouchEditBase@DirectUI@@QEAAPEAVValue@2@XZ=C:/Windows/System32/DUI70.?GetSelectionBackgroundColor@TouchEditBase@DirectUI@@QEAAPEAVValue@2@XZ @2141
    ?GetSelectionContainer@SelectorSelectionItemProxy@DirectUI@@AEAAJPEAPEAUIRawElementProviderSimple@@@Z=C:/Windows/System32/DUI70.?GetSelectionContainer@SelectorSelectionItemProxy@DirectUI@@AEAAJPEAPEAUIRawElementProviderSimple@@@Z @2142
    ?GetSelectionForegroundColor@TouchEditBase@DirectUI@@QEAAPEAVValue@2@XZ=C:/Windows/System32/DUI70.?GetSelectionForegroundColor@TouchEditBase@DirectUI@@QEAAPEAVValue@2@XZ @2143
    ?GetSelectionIndex@TouchSelect@DirectUI@@QEAAHXZ=C:/Windows/System32/DUI70.?GetSelectionIndex@TouchSelect@DirectUI@@QEAAHXZ @2144
    ?GetShadowIntensity@Element@DirectUI@@QEAAHXZ=C:/Windows/System32/DUI70.?GetShadowIntensity@Element@DirectUI@@QEAAHXZ @2145
    ?GetSheet@DUIXmlParser@DirectUI@@QEAAJPEBGPEAPEAVValue@2@@Z=C:/Windows/System32/DUI70.?GetSheet@DUIXmlParser@DirectUI@@QEAAJPEBGPEAPEAVValue@2@@Z @2146
    ?GetSheet@Element@DirectUI@@QEAAPEAVStyleSheet@2@XZ=C:/Windows/System32/DUI70.?GetSheet@Element@DirectUI@@QEAAPEAVStyleSheet@2@XZ @2147
    ?GetSheetContext@DUIXmlParser@DirectUI@@QEAAPEAXXZ=C:/Windows/System32/DUI70.?GetSheetContext@DUIXmlParser@DirectUI@@QEAAPEAXXZ @2148
    ?GetSheetNull@Value@DirectUI@@SAPEAV12@XZ=C:/Windows/System32/DUI70.?GetSheetNull@Value@DirectUI@@SAPEAV12@XZ @2149
    ?GetShortcut@Element@DirectUI@@QEAAHXZ=C:/Windows/System32/DUI70.?GetShortcut@Element@DirectUI@@QEAAHXZ @2150
    ?GetShortcutChar@Element@DirectUI@@QEAAGXZ=C:/Windows/System32/DUI70.?GetShortcutChar@Element@DirectUI@@QEAAGXZ @2151
    ?GetShortcutChar@RichText@DirectUI@@QEAAGXZ=C:/Windows/System32/DUI70.?GetShortcutChar@RichText@DirectUI@@QEAAGXZ @2152
    ?GetShowClearButtonMinWidth@TouchEdit2@DirectUI@@QEAAHXZ=C:/Windows/System32/DUI70.?GetShowClearButtonMinWidth@TouchEdit2@DirectUI@@QEAAHXZ @2153
    ?GetShowKeyFocus@TouchButton@DirectUI@@QEAA_NXZ=C:/Windows/System32/DUI70.?GetShowKeyFocus@TouchButton@DirectUI@@QEAA_NXZ @2154
    ?GetShowTick@TouchSlider@DirectUI@@QEAA_NXZ=C:/Windows/System32/DUI70.?GetShowTick@TouchSlider@DirectUI@@QEAA_NXZ @2155
    ?GetSinkRect@HWNDHost@DirectUI@@AEAAXPEBUtagRECT@@PEAU3@@Z=C:/Windows/System32/DUI70.?GetSinkRect@HWNDHost@DirectUI@@AEAAXPEBUtagRECT@@PEAU3@@Z @2156
    ?GetSize@Value@DirectUI@@QEAAPEBUtagSIZE@@XZ=C:/Windows/System32/DUI70.?GetSize@Value@DirectUI@@QEAAPEBUtagSIZE@@XZ @2157
    ?GetSizeZero@Value@DirectUI@@SAPEAV12@XZ=C:/Windows/System32/DUI70.?GetSizeZero@Value@DirectUI@@SAPEAV12@XZ @2158
    ?GetSmoothingMode@Movie@DirectUI@@QEAAHXZ=C:/Windows/System32/DUI70.?GetSmoothingMode@Movie@DirectUI@@QEAAHXZ @2159
    ?GetSnapIntervalX@TouchScrollViewer@DirectUI@@QEAAMXZ=C:/Windows/System32/DUI70.?GetSnapIntervalX@TouchScrollViewer@DirectUI@@QEAAMXZ @2160
    ?GetSnapIntervalY@TouchScrollViewer@DirectUI@@QEAAMXZ=C:/Windows/System32/DUI70.?GetSnapIntervalY@TouchScrollViewer@DirectUI@@QEAAMXZ @2161
    ?GetSnapMode@TouchScrollViewer@DirectUI@@QEAAHXZ=C:/Windows/System32/DUI70.?GetSnapMode@TouchScrollViewer@DirectUI@@QEAAHXZ @2162
    ?GetSnapOffsetX@TouchScrollViewer@DirectUI@@QEAAMXZ=C:/Windows/System32/DUI70.?GetSnapOffsetX@TouchScrollViewer@DirectUI@@QEAAMXZ @2163
    ?GetSnapOffsetY@TouchScrollViewer@DirectUI@@QEAAMXZ=C:/Windows/System32/DUI70.?GetSnapOffsetY@TouchScrollViewer@DirectUI@@QEAAMXZ @2164
    ?GetSnapPointCollectionX@TouchScrollViewer@DirectUI@@QEAAPEAV?$DynamicArray@N$0A@@2@PEAPEAVValue@2@@Z=C:/Windows/System32/DUI70.?GetSnapPointCollectionX@TouchScrollViewer@DirectUI@@QEAAPEAV?$DynamicArray@N$0A@@2@PEAPEAVValue@2@@Z @2165
    ?GetSnapPointCollectionY@TouchScrollViewer@DirectUI@@QEAAPEAV?$DynamicArray@N$0A@@2@PEAPEAVValue@2@@Z=C:/Windows/System32/DUI70.?GetSnapPointCollectionY@TouchScrollViewer@DirectUI@@QEAAPEAV?$DynamicArray@N$0A@@2@PEAPEAVValue@2@@Z @2166
    ?GetState@ModernProgressBar@DirectUI@@QEAAHXZ=C:/Windows/System32/DUI70.?GetState@ModernProgressBar@DirectUI@@QEAAHXZ @2167
    ?GetStaticColor@HWNDHost@DirectUI@@IEAA_NPEAUHDC__@@PEAPEAUHBRUSH__@@@Z=C:/Windows/System32/DUI70.?GetStaticColor@HWNDHost@DirectUI@@IEAA_NPEAUHDC__@@PEAPEAUHBRUSH__@@@Z @2168
    ?GetStepCount@TouchSlider@DirectUI@@QEAAHXZ=C:/Windows/System32/DUI70.?GetStepCount@TouchSlider@DirectUI@@QEAAHXZ @2169
    ?GetString@EventManager@DirectUI@@CAJPEAUtagVARIANT@@PEAVValue@2@@Z=C:/Windows/System32/DUI70.?GetString@EventManager@DirectUI@@CAJPEAUtagVARIANT@@PEAVValue@2@@Z @2170
    ?GetString@Value@DirectUI@@QEAAPEBGXZ=C:/Windows/System32/DUI70.?GetString@Value@DirectUI@@QEAAPEBGXZ @2171
    ?GetStringDynamicScaling@Value@DirectUI@@QEAAPEBGXZ=C:/Windows/System32/DUI70.?GetStringDynamicScaling@Value@DirectUI@@QEAAPEBGXZ @2172
    ?GetStringNull@Value@DirectUI@@SAPEAV12@XZ=C:/Windows/System32/DUI70.?GetStringNull@Value@DirectUI@@SAPEAV12@XZ @2173
    ?GetStringRPNull@Value@DirectUI@@SAPEAV12@XZ=C:/Windows/System32/DUI70.?GetStringRPNull@Value@DirectUI@@SAPEAV12@XZ @2174
    ?GetStyle@CCTreeView@DirectUI@@QEAAKXZ=C:/Windows/System32/DUI70.?GetStyle@CCTreeView@DirectUI@@QEAAKXZ @2175
    ?GetStyleSheet@Value@DirectUI@@QEAAPEAVStyleSheet@2@XZ=C:/Windows/System32/DUI70.?GetStyleSheet@Value@DirectUI@@QEAAPEAVStyleSheet@2@XZ @2176
    ?GetSubContent@TouchCommandButton@DirectUI@@QEAAPEBGPEAPEAVValue@2@@Z=C:/Windows/System32/DUI70.?GetSubContent@TouchCommandButton@DirectUI@@QEAAPEBGPEAPEAVValue@2@@Z @2177
    ?GetSuppressClearButton@TouchEdit2@DirectUI@@QEAA_NXZ=C:/Windows/System32/DUI70.?GetSuppressClearButton@TouchEdit2@DirectUI@@QEAA_NXZ @2178
    ?GetSurfaceType@Surface@DirectUI@@SA?AW4EType@12@I@Z=C:/Windows/System32/DUI70.?GetSurfaceType@Surface@DirectUI@@SA?AW4EType@12@I@Z @2179
    ?GetSurfaceType@Surface@DirectUI@@SAIW4EType@12@@Z=C:/Windows/System32/DUI70.?GetSurfaceType@Surface@DirectUI@@SAIW4EType@12@@Z @2180
    ?GetSyncContentWhileIMEComposing@TouchEditBase@DirectUI@@QEAA_NXZ=C:/Windows/System32/DUI70.?GetSyncContentWhileIMEComposing@TouchEditBase@DirectUI@@QEAA_NXZ @2181
    ?GetTargetPage@Navigator@DirectUI@@QEAAPEBGPEAPEAVValue@2@@Z=C:/Windows/System32/DUI70.?GetTargetPage@Navigator@DirectUI@@QEAAPEBGPEAPEAVValue@2@@Z @2182
    ?GetTextContentOverride@TouchSelectItem@DirectUI@@QEAAPEBGPEAPEAVValue@2@@Z=C:/Windows/System32/DUI70.?GetTextContentOverride@TouchSelectItem@DirectUI@@QEAAPEBGPEAPEAVValue@2@@Z @2183
    ?GetTextDocument@TouchEdit2@DirectUI@@UEAAJPEAPEAUITextDocument@@@Z=C:/Windows/System32/DUI70.?GetTextDocument@TouchEdit2@DirectUI@@UEAAJPEAPEAUITextDocument@@@Z @2184
    ?GetTextDocument@TouchEditBase@DirectUI@@UEAAJPEAPEAUITextDocument@@@Z=C:/Windows/System32/DUI70.?GetTextDocument@TouchEditBase@DirectUI@@UEAAJPEAPEAUITextDocument@@@Z @2185
    ?GetTextGlowSize@Element@DirectUI@@QEAAHXZ=C:/Windows/System32/DUI70.?GetTextGlowSize@Element@DirectUI@@QEAAHXZ @2186
    ?GetTextHeight@Edit@DirectUI@@AEAAIXZ=C:/Windows/System32/DUI70.?GetTextHeight@Edit@DirectUI@@AEAAIXZ @2187
    ?GetTextHost@TouchEdit2@DirectUI@@QEAAJPEAPEAVITextHost@@@Z=C:/Windows/System32/DUI70.?GetTextHost@TouchEdit2@DirectUI@@QEAAJPEAPEAVITextHost@@@Z @2188
    ?GetTextMode@TouchEditBase@DirectUI@@QEAA?AW4TouchEditTextMode@2@XZ=C:/Windows/System32/DUI70.?GetTextMode@TouchEditBase@DirectUI@@QEAA?AW4TouchEditTextMode@2@XZ @2189
    ?GetTextSelection@TouchEdit2@DirectUI@@QEAAJPEAPEAUITextSelection@@@Z=C:/Windows/System32/DUI70.?GetTextSelection@TouchEdit2@DirectUI@@QEAAJPEAPEAUITextSelection@@@Z @2190
    ?GetTextServices@TouchEdit2@DirectUI@@UEAAJPEAPEAVITextServices@@@Z=C:/Windows/System32/DUI70.?GetTextServices@TouchEdit2@DirectUI@@UEAAJPEAPEAVITextServices@@@Z @2191
    ?GetTextServices@TouchEditBase@DirectUI@@UEAAJPEAPEAVITextServices@@@Z=C:/Windows/System32/DUI70.?GetTextServices@TouchEditBase@DirectUI@@UEAAJPEAPEAVITextServices@@@Z @2192
    ?GetTheme@Element@DirectUI@@AEAAJPEBGPEAPEAX@Z=C:/Windows/System32/DUI70.?GetTheme@Element@DirectUI@@AEAAJPEBGPEAPEAX@Z @2193
    ?GetThemeChanged@HWNDHost@DirectUI@@IEAAHXZ=C:/Windows/System32/DUI70.?GetThemeChanged@HWNDHost@DirectUI@@IEAAHXZ @2194
    ?GetThemedBorder@Edit@DirectUI@@QEAA_NXZ=C:/Windows/System32/DUI70.?GetThemedBorder@Edit@DirectUI@@QEAA_NXZ @2195
    ?GetThumb@TouchScrollBar@DirectUI@@QEAAPEAVElement@2@XZ=C:/Windows/System32/DUI70.?GetThumb@TouchScrollBar@DirectUI@@QEAAPEAVElement@2@XZ @2196
    ?GetThumbElement@TouchSlider@DirectUI@@QEAAPEAVButton@2@XZ=C:/Windows/System32/DUI70.?GetThumbElement@TouchSlider@DirectUI@@QEAAPEAVButton@2@XZ @2197
    ?GetThumbPosition@CCTrackBar@DirectUI@@QEAAHXZ=C:/Windows/System32/DUI70.?GetThumbPosition@CCTrackBar@DirectUI@@QEAAHXZ @2198
    ?GetThumbValue@TouchSlider@DirectUI@@QEAAHXZ=C:/Windows/System32/DUI70.?GetThumbValue@TouchSlider@DirectUI@@QEAAHXZ @2199
    ?GetTickCount@TouchSlider@DirectUI@@QEAAHXZ=C:/Windows/System32/DUI70.?GetTickCount@TouchSlider@DirectUI@@QEAAHXZ @2200
    ?GetTitleText@TouchSwitch@DirectUI@@QEAAPEBGPEAPEAVValue@2@@Z=C:/Windows/System32/DUI70.?GetTitleText@TouchSwitch@DirectUI@@QEAAPEBGPEAPEAVValue@2@@Z @2201
    ?GetToggleOnClick@TouchCheckBox@DirectUI@@QEAA_NXZ=C:/Windows/System32/DUI70.?GetToggleOnClick@TouchCheckBox@DirectUI@@QEAA_NXZ @2202
    ?GetToggleState@EventManager@DirectUI@@CAXPEAUtagVARIANT@@@Z=C:/Windows/System32/DUI70.?GetToggleState@EventManager@DirectUI@@CAXPEAUtagVARIANT@@@Z @2203
    ?GetToggleState@ToggleProxy@DirectUI@@AEAAJPEAW4ToggleState@@@Z=C:/Windows/System32/DUI70.?GetToggleState@ToggleProxy@DirectUI@@AEAAJPEAW4ToggleState@@@Z @2204
    ?GetToggleValue@TouchSwitch@DirectUI@@QEAAHXZ=C:/Windows/System32/DUI70.?GetToggleValue@TouchSwitch@DirectUI@@QEAAHXZ @2205
    ?GetTooltip@Element@DirectUI@@QEAA_NXZ=C:/Windows/System32/DUI70.?GetTooltip@Element@DirectUI@@QEAA_NXZ @2206
    ?GetTooltipMaxWidth@Element@DirectUI@@QEAAHXZ=C:/Windows/System32/DUI70.?GetTooltipMaxWidth@Element@DirectUI@@QEAAHXZ @2207
    ?GetTooltipMaximumLineCount@TouchHWNDElement@DirectUI@@QEAAHXZ=C:/Windows/System32/DUI70.?GetTooltipMaximumLineCount@TouchHWNDElement@DirectUI@@QEAAHXZ @2208
    ?GetTopLevel@Element@DirectUI@@QEAAPEAV12@XZ=C:/Windows/System32/DUI70.?GetTopLevel@Element@DirectUI@@QEAAPEAV12@XZ @2209
    ?GetTrackElement@TouchSlider@DirectUI@@QEAAPEAVElement@2@XZ=C:/Windows/System32/DUI70.?GetTrackElement@TouchSlider@DirectUI@@QEAAPEAVElement@2@XZ @2210
    ?GetTracking@CCBaseScrollBar@DirectUI@@QEAA_NXZ=C:/Windows/System32/DUI70.?GetTracking@CCBaseScrollBar@DirectUI@@QEAA_NXZ @2211
    ?GetTranslatedTileRects@TouchScrollViewer@DirectUI@@QEAAXPEAUtagRECT@@PEAII@Z=C:/Windows/System32/DUI70.?GetTranslatedTileRects@TouchScrollViewer@DirectUI@@QEAAXPEAUtagRECT@@PEAII@Z @2212
    ?GetTransparent@HWNDHost@DirectUI@@QEAA_NXZ=C:/Windows/System32/DUI70.?GetTransparent@HWNDHost@DirectUI@@QEAA_NXZ @2213
    ?GetTreatRightMouseButtonAsLeft@TouchButton@DirectUI@@QEAA_NXZ=C:/Windows/System32/DUI70.?GetTreatRightMouseButtonAsLeft@TouchButton@DirectUI@@QEAA_NXZ @2214
    ?GetTreeAlphaLevel@Element@DirectUI@@QEAAMXZ=C:/Windows/System32/DUI70.?GetTreeAlphaLevel@Element@DirectUI@@QEAAMXZ @2215
    ?GetTrimmedLineCount@RichText@DirectUI@@QEAAKXZ=C:/Windows/System32/DUI70.?GetTrimmedLineCount@RichText@DirectUI@@QEAAKXZ @2216
    ?GetType@DCSurface@DirectUI@@UEBA?AW4EType@Surface@2@XZ=C:/Windows/System32/DUI70.?GetType@DCSurface@DirectUI@@UEBA?AW4EType@Surface@2@XZ @2217
    ?GetType@Value@DirectUI@@QEBAHXZ=C:/Windows/System32/DUI70.?GetType@Value@DirectUI@@QEBAHXZ @2218
    ?GetTypeInfo@DuiAccessible@DirectUI@@UEAAJIKPEAPEAUITypeInfo@@@Z=C:/Windows/System32/DUI70.?GetTypeInfo@DuiAccessible@DirectUI@@UEAAJIKPEAPEAUITypeInfo@@@Z @2219
    ?GetTypeInfoCount@DuiAccessible@DirectUI@@UEAAJPEAI@Z=C:/Windows/System32/DUI70.?GetTypeInfoCount@DuiAccessible@DirectUI@@UEAAJPEAI@Z @2220
    ?GetUIAElementProvider@Element@DirectUI@@UEAAJAEBU_GUID@@PEAPEAX@Z=C:/Windows/System32/DUI70.?GetUIAElementProvider@Element@DirectUI@@UEAAJAEBU_GUID@@PEAPEAX@Z @2221
    ?GetUIState@HWNDElement@DirectUI@@QEAAGXZ=C:/Windows/System32/DUI70.?GetUIState@HWNDElement@DirectUI@@QEAAGXZ @2222
    ?GetUiaFocusDelegate@Element@DirectUI@@UEAAPEAV12@XZ=C:/Windows/System32/DUI70.?GetUiaFocusDelegate@Element@DirectUI@@UEAAPEAV12@XZ @2223
    ?GetUiaFocusDelegate@TouchEdit2@DirectUI@@UEAAPEAVElement@2@XZ=C:/Windows/System32/DUI70.?GetUiaFocusDelegate@TouchEdit2@DirectUI@@UEAAPEAVElement@2@XZ @2224
    ?GetUnavailable@Value@DirectUI@@SAPEAV12@XZ=C:/Windows/System32/DUI70.?GetUnavailable@Value@DirectUI@@SAPEAV12@XZ @2225
    ?GetUnset@Value@DirectUI@@SAPEAV12@XZ=C:/Windows/System32/DUI70.?GetUnset@Value@DirectUI@@SAPEAV12@XZ @2226
    ?GetVScroll@ScrollViewer@DirectUI@@MEAAPEAVBaseScrollBar@2@XZ=C:/Windows/System32/DUI70.?GetVScroll@ScrollViewer@DirectUI@@MEAAPEAVBaseScrollBar@2@XZ @2227
    ?GetVScroll@StyledScrollViewer@DirectUI@@MEAAPEAVBaseScrollBar@2@XZ=C:/Windows/System32/DUI70.?GetVScroll@StyledScrollViewer@DirectUI@@MEAAPEAVBaseScrollBar@2@XZ @2228
    ?GetVScrollbar@TouchScrollViewer@DirectUI@@QEAAJPEAPEAVElement@2@@Z=C:/Windows/System32/DUI70.?GetVScrollbar@TouchScrollViewer@DirectUI@@QEAAJPEAPEAVElement@2@@Z @2229
    ?GetValue@Element@DirectUI@@QEAAPEAVValue@2@P6APEBUPropertyInfo@2@XZHPEAUUpdateCache@2@@Z=C:/Windows/System32/DUI70.?GetValue@Element@DirectUI@@QEAAPEAVValue@2@P6APEBUPropertyInfo@2@XZHPEAUUpdateCache@2@@Z @2230
    ?GetValue@Element@DirectUI@@QEAAPEAVValue@2@PEBUPropertyInfo@2@HPEAUUpdateCache@2@@Z=C:/Windows/System32/DUI70.?GetValue@Element@DirectUI@@QEAAPEAVValue@2@PEBUPropertyInfo@2@HPEAUUpdateCache@2@@Z @2231
    ?GetValue@ValueProxy@DirectUI@@AEAAJPEAPEAG@Z=C:/Windows/System32/DUI70.?GetValue@ValueProxy@DirectUI@@AEAAJPEAPEAG@Z @2232
    ?GetValueList@Value@DirectUI@@QEAAPEAV?$DynamicArray@PEAVValue@DirectUI@@$0A@@2@XZ=C:/Windows/System32/DUI70.?GetValueList@Value@DirectUI@@QEAAPEAV?$DynamicArray@PEAVValue@DirectUI@@$0A@@2@XZ @2233
    ?GetValueParser@DUIXmlParser@DirectUI@@IEAAJPEAPEAVValueParser@ParserTools@2@@Z=C:/Windows/System32/DUI70.?GetValueParser@DUIXmlParser@DirectUI@@IEAAJPEAPEAVValueParser@ParserTools@2@@Z @2234
    ?GetVertical@ScrollBar@DirectUI@@QEAA_NXZ=C:/Windows/System32/DUI70.?GetVertical@ScrollBar@DirectUI@@QEAA_NXZ @2235
    ?GetViewSize@ScrollProxy@DirectUI@@AEAAJ_NPEAN@Z=C:/Windows/System32/DUI70.?GetViewSize@ScrollProxy@DirectUI@@AEAAJ_NPEAN@Z @2236
    ?GetViewer@ScrollProxy@DirectUI@@AEAAJPEAPEAVViewer@2@@Z=C:/Windows/System32/DUI70.?GetViewer@ScrollProxy@DirectUI@@AEAAJPEAPEAVViewer@2@@Z @2237
    ?GetVisible@Element@DirectUI@@QEAA_NXZ=C:/Windows/System32/DUI70.?GetVisible@Element@DirectUI@@QEAA_NXZ @2238
    ?GetVisibleRect@TouchScrollViewer@DirectUI@@QEAAXPEAUtagRECT@@@Z=C:/Windows/System32/DUI70.?GetVisibleRect@TouchScrollViewer@DirectUI@@QEAAXPEAUtagRECT@@@Z @2239
    ?GetVisited@TouchHyperLink@DirectUI@@QEAA_NXZ=C:/Windows/System32/DUI70.?GetVisited@TouchHyperLink@DirectUI@@QEAA_NXZ @2240
    ?GetVisualState@TouchSlider@DirectUI@@QEAAHXZ=C:/Windows/System32/DUI70.?GetVisualState@TouchSlider@DirectUI@@QEAAHXZ @2241
    ?GetWantTabs@Edit@DirectUI@@QEAA_NXZ=C:/Windows/System32/DUI70.?GetWantTabs@Edit@DirectUI@@QEAA_NXZ @2242
    ?GetWidth@Element@DirectUI@@QEAAHXZ=C:/Windows/System32/DUI70.?GetWidth@Element@DirectUI@@QEAAHXZ @2243
    ?GetWinStyle@CCBase@DirectUI@@QEAAHXZ=C:/Windows/System32/DUI70.?GetWinStyle@CCBase@DirectUI@@QEAAHXZ @2244
    ?GetWindow@DuiAccessible@DirectUI@@UEAAJPEAPEAUHWND__@@@Z=C:/Windows/System32/DUI70.?GetWindow@DuiAccessible@DirectUI@@UEAAJPEAPEAUHWND__@@@Z @2245
    ?GetWindow@HWNDHostAccessible@DirectUI@@UEAAJPEAPEAUHWND__@@@Z=C:/Windows/System32/DUI70.?GetWindow@HWNDHostAccessible@DirectUI@@UEAAJPEAPEAUHWND__@@@Z @2246
    ?GetWindowAccessGradientColor@TouchHWNDElement@DirectUI@@QEAAPEAVValue@2@XZ=C:/Windows/System32/DUI70.?GetWindowAccessGradientColor@TouchHWNDElement@DirectUI@@QEAAPEAVValue@2@XZ @2247
    ?GetWindowActive@Element@DirectUI@@QEAA_NXZ=C:/Windows/System32/DUI70.?GetWindowActive@Element@DirectUI@@QEAA_NXZ @2248
    ?GetWindowClassNameAndStyle@HWNDElement@DirectUI@@UEAAXPEAPEBGPEAI@Z=C:/Windows/System32/DUI70.?GetWindowClassNameAndStyle@HWNDElement@DirectUI@@UEAAXPEAPEBGPEAI@Z @2249
    ?GetWrapKeyboardNavigate@HWNDElement@DirectUI@@QEAA_NXZ=C:/Windows/System32/DUI70.?GetWrapKeyboardNavigate@HWNDElement@DirectUI@@QEAA_NXZ @2250
    ?GetX@Element@DirectUI@@QEAAHXZ=C:/Windows/System32/DUI70.?GetX@Element@DirectUI@@QEAAHXZ @2251
    ?GetXBabyElement@XBaby@DirectUI@@UEAAPEAVHWNDElement@2@XZ=C:/Windows/System32/DUI70.?GetXBabyElement@XBaby@DirectUI@@UEAAPEAVHWNDElement@2@XZ @2252
    ?GetXBarVisibility@BaseScrollViewer@DirectUI@@QEAAHXZ=C:/Windows/System32/DUI70.?GetXBarVisibility@BaseScrollViewer@DirectUI@@QEAAHXZ @2253
    ?GetXOffset@BaseScrollViewer@DirectUI@@QEAAHXZ=C:/Windows/System32/DUI70.?GetXOffset@BaseScrollViewer@DirectUI@@QEAAHXZ @2254
    ?GetXOffset@Viewer@DirectUI@@QEAAHXZ=C:/Windows/System32/DUI70.?GetXOffset@Viewer@DirectUI@@QEAAHXZ @2255
    ?GetXScrollHeight@BaseScrollViewer@DirectUI@@QEAAHXZ=C:/Windows/System32/DUI70.?GetXScrollHeight@BaseScrollViewer@DirectUI@@QEAAHXZ @2256
    ?GetXScrollable@BaseScrollViewer@DirectUI@@QEAA_NXZ=C:/Windows/System32/DUI70.?GetXScrollable@BaseScrollViewer@DirectUI@@QEAA_NXZ @2257
    ?GetXScrollable@Viewer@DirectUI@@QEAA_NXZ=C:/Windows/System32/DUI70.?GetXScrollable@Viewer@DirectUI@@QEAA_NXZ @2258
    ?GetXmlLiteDll@DUIXmlParser@DirectUI@@KAJPEAPEAUHINSTANCE__@@@Z=C:/Windows/System32/DUI70.?GetXmlLiteDll@DUIXmlParser@DirectUI@@KAJPEAPEAUHINSTANCE__@@@Z @2259
    ?GetY@Element@DirectUI@@QEAAHXZ=C:/Windows/System32/DUI70.?GetY@Element@DirectUI@@QEAAHXZ @2260
    ?GetYBarVisibility@BaseScrollViewer@DirectUI@@QEAAHXZ=C:/Windows/System32/DUI70.?GetYBarVisibility@BaseScrollViewer@DirectUI@@QEAAHXZ @2261
    ?GetYOffset@BaseScrollViewer@DirectUI@@QEAAHXZ=C:/Windows/System32/DUI70.?GetYOffset@BaseScrollViewer@DirectUI@@QEAAHXZ @2262
    ?GetYOffset@Viewer@DirectUI@@QEAAHXZ=C:/Windows/System32/DUI70.?GetYOffset@Viewer@DirectUI@@QEAAHXZ @2263
    ?GetYScrollWidth@BaseScrollViewer@DirectUI@@QEAAHXZ=C:/Windows/System32/DUI70.?GetYScrollWidth@BaseScrollViewer@DirectUI@@QEAAHXZ @2264
    ?GetYScrollable@BaseScrollViewer@DirectUI@@QEAA_NXZ=C:/Windows/System32/DUI70.?GetYScrollable@BaseScrollViewer@DirectUI@@QEAA_NXZ @2265
    ?GetYScrollable@Viewer@DirectUI@@QEAA_NXZ=C:/Windows/System32/DUI70.?GetYScrollable@Viewer@DirectUI@@QEAA_NXZ @2266
    ?GetZoomMaximum@TouchScrollViewer@DirectUI@@QEAAMXZ=C:/Windows/System32/DUI70.?GetZoomMaximum@TouchScrollViewer@DirectUI@@QEAAMXZ @2267
    ?GetZoomMinimum@TouchScrollViewer@DirectUI@@QEAAMXZ=C:/Windows/System32/DUI70.?GetZoomMinimum@TouchScrollViewer@DirectUI@@QEAAMXZ @2268
    ?GridItemPattern@Schema@DirectUI@@2HA=C:/Windows/System32/DUI70.?GridItemPattern@Schema@DirectUI@@2HA @2269
    ?GridItem_ColumnSpan_Property@Schema@DirectUI@@2HA=C:/Windows/System32/DUI70.?GridItem_ColumnSpan_Property@Schema@DirectUI@@2HA @2270
    ?GridItem_Column_Property@Schema@DirectUI@@2HA=C:/Windows/System32/DUI70.?GridItem_Column_Property@Schema@DirectUI@@2HA @2271
    ?GridItem_Parent_Property@Schema@DirectUI@@2HA=C:/Windows/System32/DUI70.?GridItem_Parent_Property@Schema@DirectUI@@2HA @2272
    ?GridItem_RowSpan_Property@Schema@DirectUI@@2HA=C:/Windows/System32/DUI70.?GridItem_RowSpan_Property@Schema@DirectUI@@2HA @2273
    ?GridItem_Row_Property@Schema@DirectUI@@2HA=C:/Windows/System32/DUI70.?GridItem_Row_Property@Schema@DirectUI@@2HA @2274
    ?GridPattern@Schema@DirectUI@@2HA=C:/Windows/System32/DUI70.?GridPattern@Schema@DirectUI@@2HA @2275
    ?Grid_ColumnCount_Property@Schema@DirectUI@@2HA=C:/Windows/System32/DUI70.?Grid_ColumnCount_Property@Schema@DirectUI@@2HA @2276
    ?Grid_RowCount_Property@Schema@DirectUI@@2HA=C:/Windows/System32/DUI70.?Grid_RowCount_Property@Schema@DirectUI@@2HA @2277
    ?GroupControlType@Schema@DirectUI@@2HA=C:/Windows/System32/DUI70.?GroupControlType@Schema@DirectUI@@2HA @2278
    ?HandleAccChange@EventManager@DirectUI@@CAJPEAVElement@2@PEAUIRawElementProviderSimple@@PEAVValue@2@2@Z=C:/Windows/System32/DUI70.?HandleAccChange@EventManager@DirectUI@@CAJPEAVElement@2@PEAUIRawElementProviderSimple@@PEAVValue@2@2@Z @2279
    ?HandleAccDesc@EventManager@DirectUI@@CAJPEAVElement@2@PEAUIRawElementProviderSimple@@PEAVValue@2@2@Z=C:/Windows/System32/DUI70.?HandleAccDesc@EventManager@DirectUI@@CAJPEAVElement@2@PEAUIRawElementProviderSimple@@PEAVValue@2@2@Z @2280
    ?HandleAccPatternChange@EventManager@DirectUI@@CAJPEAVElement@2@PEAUIRawElementProviderSimple@@IIHPEAUtagVARIANT@@2P6AX2@Z@Z=C:/Windows/System32/DUI70.?HandleAccPatternChange@EventManager@DirectUI@@CAJPEAVElement@2@PEAUIRawElementProviderSimple@@IIHPEAUtagVARIANT@@2P6AX2@Z@Z @2281
    ?HandleAccRoleEvent@EventManager@DirectUI@@CAJPEAUIRawElementProviderSimple@@PEAVValue@2@1@Z=C:/Windows/System32/DUI70.?HandleAccRoleEvent@EventManager@DirectUI@@CAJPEAUIRawElementProviderSimple@@PEAVValue@2@1@Z @2282
    ?HandleAccStateChange@EventManager@DirectUI@@CAJPEAUIRawElementProviderSimple@@IIHPEAUtagVARIANT@@1_N@Z=C:/Windows/System32/DUI70.?HandleAccStateChange@EventManager@DirectUI@@CAJPEAUIRawElementProviderSimple@@IIHPEAUtagVARIANT@@1_N@Z @2283
    ?HandleBoolProp@EventManager@DirectUI@@CAJPEAVElement@2@P6A_N0@ZPEAUIRawElementProviderSimple@@HPEAVValue@2@3@Z=C:/Windows/System32/DUI70.?HandleBoolProp@EventManager@DirectUI@@CAJPEAVElement@2@P6A_N0@ZPEAUIRawElementProviderSimple@@HPEAVValue@2@3@Z @2284
    ?HandleChildrenEvent@EventManager@DirectUI@@CAJPEAVElement@2@PEAVValue@2@1@Z=C:/Windows/System32/DUI70.?HandleChildrenEvent@EventManager@DirectUI@@CAJPEAVElement@2@PEAVValue@2@1@Z @2285
    ?HandleEnterKeyProp@DialogElement@DirectUI@@SAPEBUPropertyInfo@2@XZ=C:/Windows/System32/DUI70.?HandleEnterKeyProp@DialogElement@DirectUI@@SAPEBUPropertyInfo@2@XZ @2286
    ?HandleEnterProp@TouchButton@DirectUI@@SAPEBUPropertyInfo@2@XZ=C:/Windows/System32/DUI70.?HandleEnterProp@TouchButton@DirectUI@@SAPEBUPropertyInfo@2@XZ @2287
    ?HandleGlobalEnterProp@TouchButton@DirectUI@@SAPEBUPropertyInfo@2@XZ=C:/Windows/System32/DUI70.?HandleGlobalEnterProp@TouchButton@DirectUI@@SAPEBUPropertyInfo@2@XZ @2288
    ?HandleRangeValue@EventManager@DirectUI@@CAJPEAVElement@2@PEAUIRawElementProviderSimple@@PEAVValue@2@2@Z=C:/Windows/System32/DUI70.?HandleRangeValue@EventManager@DirectUI@@CAJPEAVElement@2@PEAUIRawElementProviderSimple@@PEAVValue@2@2@Z @2289
    ?HandleScrollPos@EventManager@DirectUI@@CAJPEAVElement@2@PEAUIRawElementProviderSimple@@PEAVValue@2@2@Z=C:/Windows/System32/DUI70.?HandleScrollPos@EventManager@DirectUI@@CAJPEAVElement@2@PEAUIRawElementProviderSimple@@PEAVValue@2@2@Z @2290
    ?HandleSelectedChange@EventManager@DirectUI@@CAJPEAUIRawElementProviderSimple@@PEAVValue@2@@Z=C:/Windows/System32/DUI70.?HandleSelectedChange@EventManager@DirectUI@@CAJPEAUIRawElementProviderSimple@@PEAVValue@2@@Z @2291
    ?HandleStringProp@EventManager@DirectUI@@CAJPEAUIRawElementProviderSimple@@HPEAVValue@2@1@Z=C:/Windows/System32/DUI70.?HandleStringProp@EventManager@DirectUI@@CAJPEAUIRawElementProviderSimple@@HPEAVValue@2@1@Z @2292
    ?HandleToggleValue@EventManager@DirectUI@@CAJPEAVElement@2@PEAUIRawElementProviderSimple@@PEAVValue@2@2@Z=C:/Windows/System32/DUI70.?HandleToggleValue@EventManager@DirectUI@@CAJPEAVElement@2@PEAUIRawElementProviderSimple@@PEAVValue@2@2@Z @2293
    ?HandleUiaDestroyListener@Element@DirectUI@@UEAAXXZ=C:/Windows/System32/DUI70.?HandleUiaDestroyListener@Element@DirectUI@@UEAAXXZ @2294
    ?HandleUiaEventListener@Element@DirectUI@@UEAAXPEAUEvent@2@@Z=C:/Windows/System32/DUI70.?HandleUiaEventListener@Element@DirectUI@@UEAAXPEAUEvent@2@@Z @2295
    ?HandleUiaPropertyChangingListener@Element@DirectUI@@UEAAXPEBUPropertyInfo@2@@Z=C:/Windows/System32/DUI70.?HandleUiaPropertyChangingListener@Element@DirectUI@@UEAAXPEBUPropertyInfo@2@@Z @2296
    ?HandleUiaPropertyListener@Element@DirectUI@@UEAAXPEBUPropertyInfo@2@HPEAVValue@2@1@Z=C:/Windows/System32/DUI70.?HandleUiaPropertyListener@Element@DirectUI@@UEAAXPEBUPropertyInfo@2@HPEAVValue@2@1@Z @2297
    ?HandleVisibilityChange@EventManager@DirectUI@@CAJPEAVElement@2@I@Z=C:/Windows/System32/DUI70.?HandleVisibilityChange@EventManager@DirectUI@@CAJPEAVElement@2@I@Z @2298
    ?HasAnimation@Element@DirectUI@@QEAA_NXZ=C:/Windows/System32/DUI70.?HasAnimation@Element@DirectUI@@QEAA_NXZ @2299
    ?HasBorder@Element@DirectUI@@QEAA_NXZ=C:/Windows/System32/DUI70.?HasBorder@Element@DirectUI@@QEAA_NXZ @2300
    ?HasChildren@Element@DirectUI@@QEAA_NXZ=C:/Windows/System32/DUI70.?HasChildren@Element@DirectUI@@QEAA_NXZ @2301
    ?HasContent@Element@DirectUI@@QEAA_NXZ=C:/Windows/System32/DUI70.?HasContent@Element@DirectUI@@QEAA_NXZ @2302
    ?HasEdgeHighlight@Element@DirectUI@@QEAA_NXZ=C:/Windows/System32/DUI70.?HasEdgeHighlight@Element@DirectUI@@QEAA_NXZ @2303
    ?HasKeyboardFocusProperty@Schema@DirectUI@@2HA=C:/Windows/System32/DUI70.?HasKeyboardFocusProperty@Schema@DirectUI@@2HA @2304
    ?HasLayout@Element@DirectUI@@QEAA_NXZ=C:/Windows/System32/DUI70.?HasLayout@Element@DirectUI@@QEAA_NXZ @2305
    ?HasMargin@Element@DirectUI@@QEAA_NXZ=C:/Windows/System32/DUI70.?HasMargin@Element@DirectUI@@QEAA_NXZ @2306
    ?HasPVLAnimationState@Element@DirectUI@@QEAA_NI@Z=C:/Windows/System32/DUI70.?HasPVLAnimationState@Element@DirectUI@@QEAA_NI@Z @2307
    ?HasPadding@Element@DirectUI@@QEAA_NXZ=C:/Windows/System32/DUI70.?HasPadding@Element@DirectUI@@QEAA_NXZ @2308
    ?HasSelection@TouchEdit2@DirectUI@@QEAA_NXZ=C:/Windows/System32/DUI70.?HasSelection@TouchEdit2@DirectUI@@QEAA_NXZ @2309
    ?HasShieldProp@CCPushButton@DirectUI@@SAPEBUPropertyInfo@2@XZ=C:/Windows/System32/DUI70.?HasShieldProp@CCPushButton@DirectUI@@SAPEBUPropertyInfo@2@XZ @2310
    ?HaveWin32Focus@HWNDHost@DirectUI@@AEAA_NXZ=C:/Windows/System32/DUI70.?HaveWin32Focus@HWNDHost@DirectUI@@AEAA_NXZ @2311
    ?HeaderControlType@Schema@DirectUI@@2HA=C:/Windows/System32/DUI70.?HeaderControlType@Schema@DirectUI@@2HA @2312
    ?HeaderItemControlType@Schema@DirectUI@@2HA=C:/Windows/System32/DUI70.?HeaderItemControlType@Schema@DirectUI@@2HA @2313
    ?HeightProp@Element@DirectUI@@SAPEBUPropertyInfo@2@XZ=C:/Windows/System32/DUI70.?HeightProp@Element@DirectUI@@SAPEBUPropertyInfo@2@XZ @2314
    ?HelpTextProperty@Schema@DirectUI@@2HA=C:/Windows/System32/DUI70.?HelpTextProperty@Schema@DirectUI@@2HA @2315
    ?HideTouchTooltip@TouchHWNDElement@DirectUI@@QEAAJXZ=C:/Windows/System32/DUI70.?HideTouchTooltip@TouchHWNDElement@DirectUI@@QEAAJXZ @2316
    ?HideWindow@NativeHWNDHost@DirectUI@@QEAAXXZ=C:/Windows/System32/DUI70.?HideWindow@NativeHWNDHost@DirectUI@@QEAAXXZ @2317
    ?HideWindow@XHost@DirectUI@@QEAAXXZ=C:/Windows/System32/DUI70.?HideWindow@XHost@DirectUI@@QEAAXXZ @2318
    ?HighDPIProp@Element@DirectUI@@SAPEBUPropertyInfo@2@XZ=C:/Windows/System32/DUI70.?HighDPIProp@Element@DirectUI@@SAPEBUPropertyInfo@2@XZ @2319
    ?Home@BaseScrollBar@DirectUI@@UEAAXXZ=C:/Windows/System32/DUI70.?Home@BaseScrollBar@DirectUI@@UEAAXXZ @2320
    ?Host@NativeHWNDHost@DirectUI@@QEAAXPEAVElement@2@@Z=C:/Windows/System32/DUI70.?Host@NativeHWNDHost@DirectUI@@QEAAXPEAVElement@2@@Z @2321
    ?Host@XHost@DirectUI@@QEAAXPEAVElement@2@@Z=C:/Windows/System32/DUI70.?Host@XHost@DirectUI@@QEAAXPEAVElement@2@@Z @2322
    ?Hosted@PushButton@DirectUI@@SA?AVUID@@XZ=C:/Windows/System32/DUI70.?Hosted@PushButton@DirectUI@@SA?AVUID@@XZ @2323
    ?HyperlinkControlType@Schema@DirectUI@@2HA=C:/Windows/System32/DUI70.?HyperlinkControlType@Schema@DirectUI@@2HA @2324
    ?IDProp@Element@DirectUI@@SAPEBUPropertyInfo@2@XZ=C:/Windows/System32/DUI70.?IDProp@Element@DirectUI@@SAPEBUPropertyInfo@2@XZ @2325
    ?IHMNotify@TouchHWNDElement@DirectUI@@SA?AVUID@@XZ=C:/Windows/System32/DUI70.?IHMNotify@TouchHWNDElement@DirectUI@@SA?AVUID@@XZ @2326
    ?IMEComposingProp@TouchEditBase@DirectUI@@SAPEBUPropertyInfo@2@XZ=C:/Windows/System32/DUI70.?IMEComposingProp@TouchEditBase@DirectUI@@SAPEBUPropertyInfo@2@XZ @2327
    ?INITIALSTACKSKIP@CallstackTracker@DirectUI@@0HB=C:/Windows/System32/DUI70.?INITIALSTACKSKIP@CallstackTracker@DirectUI@@0HB @2328
    ?IgnoredKeyCombosProp@TouchEditBase@DirectUI@@SAPEBUPropertyInfo@2@XZ=C:/Windows/System32/DUI70.?IgnoredKeyCombosProp@TouchEditBase@DirectUI@@SAPEBUPropertyInfo@2@XZ @2329
    ?ImageControlType@Schema@DirectUI@@2HA=C:/Windows/System32/DUI70.?ImageControlType@Schema@DirectUI@@2HA @2330
    ?ImmersiveColorSchemeChange@HWNDElement@DirectUI@@SA?AVUID@@XZ=C:/Windows/System32/DUI70.?ImmersiveColorSchemeChange@HWNDElement@DirectUI@@SA?AVUID@@XZ @2331
    ?Init@?$PatternProvider@VExpandCollapseProvider@DirectUI@@UIExpandCollapseProvider@@$00@DirectUI@@UEAAXPEAVElementProvider@2@@Z=C:/Windows/System32/DUI70.?Init@?$PatternProvider@VExpandCollapseProvider@DirectUI@@UIExpandCollapseProvider@@$00@DirectUI@@UEAAXPEAVElementProvider@2@@Z @2332
    ?Init@?$PatternProvider@VGridItemProvider@DirectUI@@UIGridItemProvider@@$01@DirectUI@@UEAAXPEAVElementProvider@2@@Z=C:/Windows/System32/DUI70.?Init@?$PatternProvider@VGridItemProvider@DirectUI@@UIGridItemProvider@@$01@DirectUI@@UEAAXPEAVElementProvider@2@@Z @2333
    ?Init@?$PatternProvider@VGridProvider@DirectUI@@UIGridProvider@@$02@DirectUI@@UEAAXPEAVElementProvider@2@@Z=C:/Windows/System32/DUI70.?Init@?$PatternProvider@VGridProvider@DirectUI@@UIGridProvider@@$02@DirectUI@@UEAAXPEAVElementProvider@2@@Z @2334
    ?Init@?$PatternProvider@VInvokeProvider@DirectUI@@UIInvokeProvider@@$0A@@DirectUI@@UEAAXPEAVElementProvider@2@@Z=C:/Windows/System32/DUI70.?Init@?$PatternProvider@VInvokeProvider@DirectUI@@UIInvokeProvider@@$0A@@DirectUI@@UEAAXPEAVElementProvider@2@@Z @2335
    ?Init@?$PatternProvider@VRangeValueProvider@DirectUI@@UIRangeValueProvider@@$03@DirectUI@@UEAAXPEAVElementProvider@2@@Z=C:/Windows/System32/DUI70.?Init@?$PatternProvider@VRangeValueProvider@DirectUI@@UIRangeValueProvider@@$03@DirectUI@@UEAAXPEAVElementProvider@2@@Z @2336
    ?Init@?$PatternProvider@VScrollItemProvider@DirectUI@@UIScrollItemProvider@@$05@DirectUI@@UEAAXPEAVElementProvider@2@@Z=C:/Windows/System32/DUI70.?Init@?$PatternProvider@VScrollItemProvider@DirectUI@@UIScrollItemProvider@@$05@DirectUI@@UEAAXPEAVElementProvider@2@@Z @2337
    ?Init@?$PatternProvider@VScrollProvider@DirectUI@@UIScrollProvider@@$04@DirectUI@@UEAAXPEAVElementProvider@2@@Z=C:/Windows/System32/DUI70.?Init@?$PatternProvider@VScrollProvider@DirectUI@@UIScrollProvider@@$04@DirectUI@@UEAAXPEAVElementProvider@2@@Z @2338
    ?Init@?$PatternProvider@VSelectionItemProvider@DirectUI@@UISelectionItemProvider@@$06@DirectUI@@UEAAXPEAVElementProvider@2@@Z=C:/Windows/System32/DUI70.?Init@?$PatternProvider@VSelectionItemProvider@DirectUI@@UISelectionItemProvider@@$06@DirectUI@@UEAAXPEAVElementProvider@2@@Z @2339
    ?Init@?$PatternProvider@VSelectionProvider@DirectUI@@UISelectionProvider@@$07@DirectUI@@UEAAXPEAVElementProvider@2@@Z=C:/Windows/System32/DUI70.?Init@?$PatternProvider@VSelectionProvider@DirectUI@@UISelectionProvider@@$07@DirectUI@@UEAAXPEAVElementProvider@2@@Z @2340
    ?Init@?$PatternProvider@VTableItemProvider@DirectUI@@UITableItemProvider@@$09@DirectUI@@UEAAXPEAVElementProvider@2@@Z=C:/Windows/System32/DUI70.?Init@?$PatternProvider@VTableItemProvider@DirectUI@@UITableItemProvider@@$09@DirectUI@@UEAAXPEAVElementProvider@2@@Z @2341
    ?Init@?$PatternProvider@VTableProvider@DirectUI@@UITableProvider@@$08@DirectUI@@UEAAXPEAVElementProvider@2@@Z=C:/Windows/System32/DUI70.?Init@?$PatternProvider@VTableProvider@DirectUI@@UITableProvider@@$08@DirectUI@@UEAAXPEAVElementProvider@2@@Z @2342
    ?Init@?$PatternProvider@VToggleProvider@DirectUI@@UIToggleProvider@@$0L@@DirectUI@@UEAAXPEAVElementProvider@2@@Z=C:/Windows/System32/DUI70.?Init@?$PatternProvider@VToggleProvider@DirectUI@@UIToggleProvider@@$0L@@DirectUI@@UEAAXPEAVElementProvider@2@@Z @2343
    ?Init@?$PatternProvider@VValueProvider@DirectUI@@UIValueProvider@@$0M@@DirectUI@@UEAAXPEAVElementProvider@2@@Z=C:/Windows/System32/DUI70.?Init@?$PatternProvider@VValueProvider@DirectUI@@UIValueProvider@@$0M@@DirectUI@@UEAAXPEAVElementProvider@2@@Z @2344
    ?Init@AutoThread@DirectUI@@QEAAJXZ=C:/Windows/System32/DUI70.?Init@AutoThread@DirectUI@@QEAAJXZ @2345
    ?Init@BrowserSelectionProxy@DirectUI@@MEAAXPEAVElement@2@@Z=C:/Windows/System32/DUI70.?Init@BrowserSelectionProxy@DirectUI@@MEAAXPEAVElement@2@@Z @2346
    ?Init@CallstackTracker@DirectUI@@SAHXZ=C:/Windows/System32/DUI70.?Init@CallstackTracker@DirectUI@@SAHXZ @2347
    ?Init@ElementProvider@DirectUI@@MEAAJPEAVElement@2@PEAVInvokeHelper@2@@Z=C:/Windows/System32/DUI70.?Init@ElementProvider@DirectUI@@MEAAJPEAVElement@2@PEAVInvokeHelper@2@@Z @2348
    ?Init@ElementProviderManager@DirectUI@@SAJXZ=C:/Windows/System32/DUI70.?Init@ElementProviderManager@DirectUI@@SAJXZ @2349
    ?Init@ElementProxy@DirectUI@@MEAAXPEAVElement@2@@Z=C:/Windows/System32/DUI70.?Init@ElementProxy@DirectUI@@MEAAXPEAVElement@2@@Z @2350
    ?Init@EventManager@DirectUI@@SAJXZ=C:/Windows/System32/DUI70.?Init@EventManager@DirectUI@@SAJXZ @2351
    ?Init@ExpandCollapseProxy@DirectUI@@MEAAXPEAVElement@2@@Z=C:/Windows/System32/DUI70.?Init@ExpandCollapseProxy@DirectUI@@MEAAXPEAVElement@2@@Z @2352
    ?Init@GridItemProxy@DirectUI@@MEAAXPEAVElement@2@@Z=C:/Windows/System32/DUI70.?Init@GridItemProxy@DirectUI@@MEAAXPEAVElement@2@@Z @2353
    ?Init@GridProxy@DirectUI@@MEAAXPEAVElement@2@@Z=C:/Windows/System32/DUI70.?Init@GridProxy@DirectUI@@MEAAXPEAVElement@2@@Z @2354
    ?Init@HWNDElementProvider@DirectUI@@MEAAJPEAVHWNDElement@2@PEAVInvokeHelper@2@@Z=C:/Windows/System32/DUI70.?Init@HWNDElementProvider@DirectUI@@MEAAJPEAVHWNDElement@2@PEAVInvokeHelper@2@@Z @2355
    ?Init@HWNDElementProxy@DirectUI@@UEAAXPEAVHWNDElement@2@@Z=C:/Windows/System32/DUI70.?Init@HWNDElementProxy@DirectUI@@UEAAXPEAVHWNDElement@2@@Z @2356
    ?Init@InvokeHelper@DirectUI@@QEAAHK@Z=C:/Windows/System32/DUI70.?Init@InvokeHelper@DirectUI@@QEAAHK@Z @2357
    ?Init@InvokeManager@DirectUI@@SAJXZ=C:/Windows/System32/DUI70.?Init@InvokeManager@DirectUI@@SAJXZ @2358
    ?Init@InvokeProxy@DirectUI@@MEAAXPEAVElement@2@@Z=C:/Windows/System32/DUI70.?Init@InvokeProxy@DirectUI@@MEAAXPEAVElement@2@@Z @2359
    ?Init@ModernProgressBarRangeValueProxy@DirectUI@@MEAAXPEAVElement@2@@Z=C:/Windows/System32/DUI70.?Init@ModernProgressBarRangeValueProxy@DirectUI@@MEAAXPEAVElement@2@@Z @2360
    ?Init@NavReference@DirectUI@@QEAAXPEAVElement@2@PEAUtagRECT@@@Z=C:/Windows/System32/DUI70.?Init@NavReference@DirectUI@@QEAAXPEAVElement@2@PEAUtagRECT@@@Z @2361
    ?Init@NavScoring@DirectUI@@QEAAXPEAVElement@2@HPEBUNavReference@2@@Z=C:/Windows/System32/DUI70.?Init@NavScoring@DirectUI@@QEAAXPEAVElement@2@HPEBUNavReference@2@@Z @2362
    ?Init@NavigatorSelectionItemProxy@DirectUI@@MEAAXPEAVElement@2@@Z=C:/Windows/System32/DUI70.?Init@NavigatorSelectionItemProxy@DirectUI@@MEAAXPEAVElement@2@@Z @2363
    ?Init@ProgressRangeValueProxy@DirectUI@@MEAAXPEAVElement@2@@Z=C:/Windows/System32/DUI70.?Init@ProgressRangeValueProxy@DirectUI@@MEAAXPEAVElement@2@@Z @2364
    ?Init@ProviderProxy@DirectUI@@MEAAXPEAVElement@2@@Z=C:/Windows/System32/DUI70.?Init@ProviderProxy@DirectUI@@MEAAXPEAVElement@2@@Z @2365
    ?Init@RangeValueProxy@DirectUI@@MEAAXPEAVElement@2@@Z=C:/Windows/System32/DUI70.?Init@RangeValueProxy@DirectUI@@MEAAXPEAVElement@2@@Z @2366
    ?Init@Schema@DirectUI@@SAJXZ=C:/Windows/System32/DUI70.?Init@Schema@DirectUI@@SAJXZ @2367
    ?Init@ScrollBarRangeValueProxy@DirectUI@@MEAAXPEAVElement@2@@Z=C:/Windows/System32/DUI70.?Init@ScrollBarRangeValueProxy@DirectUI@@MEAAXPEAVElement@2@@Z @2368
    ?Init@ScrollItemProxy@DirectUI@@MEAAXPEAVElement@2@@Z=C:/Windows/System32/DUI70.?Init@ScrollItemProxy@DirectUI@@MEAAXPEAVElement@2@@Z @2369
    ?Init@ScrollProxy@DirectUI@@MEAAXPEAVElement@2@@Z=C:/Windows/System32/DUI70.?Init@ScrollProxy@DirectUI@@MEAAXPEAVElement@2@@Z @2370
    ?Init@SelectionItemProxy@DirectUI@@MEAAXPEAVElement@2@@Z=C:/Windows/System32/DUI70.?Init@SelectionItemProxy@DirectUI@@MEAAXPEAVElement@2@@Z @2371
    ?Init@SelectionProxy@DirectUI@@MEAAXPEAVElement@2@@Z=C:/Windows/System32/DUI70.?Init@SelectionProxy@DirectUI@@MEAAXPEAVElement@2@@Z @2372
    ?Init@SelectorSelectionItemProxy@DirectUI@@MEAAXPEAVElement@2@@Z=C:/Windows/System32/DUI70.?Init@SelectorSelectionItemProxy@DirectUI@@MEAAXPEAVElement@2@@Z @2373
    ?Init@SelectorSelectionProxy@DirectUI@@MEAAXPEAVElement@2@@Z=C:/Windows/System32/DUI70.?Init@SelectorSelectionProxy@DirectUI@@MEAAXPEAVElement@2@@Z @2374
    ?Init@TableItemProxy@DirectUI@@MEAAXPEAVElement@2@@Z=C:/Windows/System32/DUI70.?Init@TableItemProxy@DirectUI@@MEAAXPEAVElement@2@@Z @2375
    ?Init@TableProxy@DirectUI@@MEAAXPEAVElement@2@@Z=C:/Windows/System32/DUI70.?Init@TableProxy@DirectUI@@MEAAXPEAVElement@2@@Z @2376
    ?Init@ToggleProxy@DirectUI@@MEAAXPEAVElement@2@@Z=C:/Windows/System32/DUI70.?Init@ToggleProxy@DirectUI@@MEAAXPEAVElement@2@@Z @2377
    ?Init@ValueProxy@DirectUI@@MEAAXPEAVElement@2@@Z=C:/Windows/System32/DUI70.?Init@ValueProxy@DirectUI@@MEAAXPEAVElement@2@@Z @2378
    ?InitOnceCallback@CallstackTracker@DirectUI@@CAHPEAT_RTL_RUN_ONCE@@PEAXPEAPEAX@Z=C:/Windows/System32/DUI70.?InitOnceCallback@CallstackTracker@DirectUI@@CAHPEAT_RTL_RUN_ONCE@@PEAXPEAPEAX@Z @2379
    ?InitProcess@FontCache@DirectUI@@SAJXZ=C:/Windows/System32/DUI70.?InitProcess@FontCache@DirectUI@@SAJXZ @2380
    ?InitPropSheetPage@TaskPage@DirectUI@@MEAAXPEAU_PROPSHEETPAGEW@@@Z=C:/Windows/System32/DUI70.?InitPropSheetPage@TaskPage@DirectUI@@MEAAXPEAU_PROPSHEETPAGEW@@@Z @2381
    ?InitThread@FontCache@DirectUI@@SAJXZ=C:/Windows/System32/DUI70.?InitThread@FontCache@DirectUI@@SAJXZ @2382
    ?Initialize@AccessibleButton@DirectUI@@QEAAJPEAVElement@2@PEAK@Z=C:/Windows/System32/DUI70.?Initialize@AccessibleButton@DirectUI@@QEAAJPEAVElement@2@PEAK@Z @2383
    ?Initialize@AnimationStrip@DirectUI@@QEAAJIPEAVElement@2@PEAK@Z=C:/Windows/System32/DUI70.?Initialize@AnimationStrip@DirectUI@@QEAAJIPEAVElement@2@PEAK@Z @2384
    ?Initialize@AutoButton@DirectUI@@QEAAJPEAVElement@2@PEAK@Z=C:/Windows/System32/DUI70.?Initialize@AutoButton@DirectUI@@QEAAJPEAVElement@2@PEAK@Z @2385
    ?Initialize@BaseScrollViewer@DirectUI@@QEAAJPEAVElement@2@PEAK@Z=C:/Windows/System32/DUI70.?Initialize@BaseScrollViewer@DirectUI@@QEAAJPEAVElement@2@PEAK@Z @2386
    ?Initialize@Bind@DirectUI@@QEAAJPEAVElement@2@PEAK@Z=C:/Windows/System32/DUI70.?Initialize@Bind@DirectUI@@QEAAJPEAVElement@2@PEAK@Z @2387
    ?Initialize@BorderLayout@DirectUI@@QEAAXXZ=C:/Windows/System32/DUI70.?Initialize@BorderLayout@DirectUI@@QEAAXXZ @2388
    ?Initialize@Browser@DirectUI@@QEAAJPEAVElement@2@PEAK@Z=C:/Windows/System32/DUI70.?Initialize@Browser@DirectUI@@QEAAJPEAVElement@2@PEAK@Z @2389
    ?Initialize@Button@DirectUI@@QEAAJIPEAVElement@2@PEAK@Z=C:/Windows/System32/DUI70.?Initialize@Button@DirectUI@@QEAAJIPEAVElement@2@PEAK@Z @2390
    ?Initialize@CCBase@DirectUI@@QEAAJIPEAVElement@2@PEAK@Z=C:/Windows/System32/DUI70.?Initialize@CCBase@DirectUI@@QEAAJIPEAVElement@2@PEAK@Z @2391
    ?Initialize@CCBaseScrollBar@DirectUI@@QEAAJIPEAVElement@2@PEAK@Z=C:/Windows/System32/DUI70.?Initialize@CCBaseScrollBar@DirectUI@@QEAAJIPEAVElement@2@PEAK@Z @2392
    ?Initialize@CCListView@DirectUI@@QEAAJIPEAVElement@2@PEAK@Z=C:/Windows/System32/DUI70.?Initialize@CCListView@DirectUI@@QEAAJIPEAVElement@2@PEAK@Z @2393
    ?Initialize@CCProgressBar@DirectUI@@QEAAJIPEAVElement@2@PEAK@Z=C:/Windows/System32/DUI70.?Initialize@CCProgressBar@DirectUI@@QEAAJIPEAVElement@2@PEAK@Z @2394
    ?Initialize@CSafeElementProxy@@IEAAJPEAVElement@DirectUI@@@Z=C:/Windows/System32/DUI70.?Initialize@CSafeElementProxy@@IEAAJPEAVElement@DirectUI@@@Z @2395
    ?Initialize@CheckBoxGlyph@DirectUI@@QEAAJIPEAVElement@2@PEAK@Z=C:/Windows/System32/DUI70.?Initialize@CheckBoxGlyph@DirectUI@@QEAAJIPEAVElement@2@PEAK@Z @2396
    ?Initialize@ClassInfoBase@DirectUI@@QEAAJPEAUHINSTANCE__@@PEBG_NPEBQEBUPropertyInfo@2@I@Z=C:/Windows/System32/DUI70.?Initialize@ClassInfoBase@DirectUI@@QEAAJPEAUHINSTANCE__@@PEBG_NPEBQEBUPropertyInfo@2@I@Z @2397
    ?Initialize@Clipper@DirectUI@@QEAAJPEAVElement@2@PEAK@Z=C:/Windows/System32/DUI70.?Initialize@Clipper@DirectUI@@QEAAJPEAVElement@2@PEAK@Z @2398
    ?Initialize@Combobox@DirectUI@@QEAAJIPEAVElement@2@PEAK@Z=C:/Windows/System32/DUI70.?Initialize@Combobox@DirectUI@@QEAAJIPEAVElement@2@PEAK@Z @2399
    ?Initialize@DUIXmlParser@DirectUI@@IEAAJXZ=C:/Windows/System32/DUI70.?Initialize@DUIXmlParser@DirectUI@@IEAAJXZ @2400
    ?Initialize@DialogElementCore@DirectUI@@QEAAXPEAUIDialogElement@2@PEAUIElementListener@2@@Z=C:/Windows/System32/DUI70.?Initialize@DialogElementCore@DirectUI@@QEAAXPEAUIDialogElement@2@PEAUIElementListener@2@@Z @2401
    ?Initialize@DuiAccessible@DirectUI@@QEAAXPEAVElement@2@@Z=C:/Windows/System32/DUI70.?Initialize@DuiAccessible@DirectUI@@QEAAXPEAVElement@2@@Z @2402
    ?Initialize@Edit@DirectUI@@QEAAJIPEAVElement@2@PEAK@Z=C:/Windows/System32/DUI70.?Initialize@Edit@DirectUI@@QEAAJIPEAVElement@2@PEAK@Z @2403
    ?Initialize@Element@DirectUI@@QEAAJIPEAV12@PEAK@Z=C:/Windows/System32/DUI70.?Initialize@Element@DirectUI@@QEAAJIPEAV12@PEAK@Z @2404
    ?Initialize@Expando@DirectUI@@QEAAJPEAVElement@2@PEAK@Z=C:/Windows/System32/DUI70.?Initialize@Expando@DirectUI@@QEAAJPEAVElement@2@PEAK@Z @2405
    ?Initialize@ExpandoButtonGlyph@DirectUI@@QEAAJIPEAVElement@2@PEAK@Z=C:/Windows/System32/DUI70.?Initialize@ExpandoButtonGlyph@DirectUI@@QEAAJIPEAVElement@2@PEAK@Z @2406
    ?Initialize@FillLayout@DirectUI@@QEAAXXZ=C:/Windows/System32/DUI70.?Initialize@FillLayout@DirectUI@@QEAAXXZ @2407
    ?Initialize@FlowLayout@DirectUI@@QEAAX_NIII@Z=C:/Windows/System32/DUI70.?Initialize@FlowLayout@DirectUI@@QEAAX_NIII@Z @2408
    ?Initialize@GridLayout@DirectUI@@QEAAXHH@Z=C:/Windows/System32/DUI70.?Initialize@GridLayout@DirectUI@@QEAAXHH@Z @2409
    ?Initialize@HWNDElement@DirectUI@@QEAAJPEAUHWND__@@_NIPEAVElement@2@PEAK@Z=C:/Windows/System32/DUI70.?Initialize@HWNDElement@DirectUI@@QEAAJPEAUHWND__@@_NIPEAVElement@2@PEAK@Z @2410
    ?Initialize@HWNDElementAccessible@DirectUI@@QEAAJPEAVHWNDElement@2@@Z=C:/Windows/System32/DUI70.?Initialize@HWNDElementAccessible@DirectUI@@QEAAJPEAVHWNDElement@2@@Z @2411
    ?Initialize@HWNDHost@DirectUI@@QEAAJIIPEAVElement@2@PEAK@Z=C:/Windows/System32/DUI70.?Initialize@HWNDHost@DirectUI@@QEAAJIIPEAVElement@2@PEAK@Z @2412
    ?Initialize@HWNDHostAccessible@DirectUI@@QEAAJPEAVElement@2@PEAUIAccessible@@@Z=C:/Windows/System32/DUI70.?Initialize@HWNDHostAccessible@DirectUI@@QEAAJPEAVElement@2@PEAUIAccessible@@@Z @2413
    ?Initialize@Layout@DirectUI@@QEAAXXZ=C:/Windows/System32/DUI70.?Initialize@Layout@DirectUI@@QEAAXXZ @2414
    ?Initialize@Macro@DirectUI@@QEAAJPEAVElement@2@PEAK@Z=C:/Windows/System32/DUI70.?Initialize@Macro@DirectUI@@QEAAJPEAVElement@2@PEAK@Z @2415
    ?Initialize@NativeHWNDHost@DirectUI@@QEAAJPEBG0PEAUHWND__@@PEAUHICON__@@HHHHHHPEAUHINSTANCE__@@I@Z=C:/Windows/System32/DUI70.?Initialize@NativeHWNDHost@DirectUI@@QEAAJPEBG0PEAUHWND__@@PEAUHICON__@@HHHHHHPEAUHINSTANCE__@@I@Z @2416
    ?Initialize@NativeHWNDHost@DirectUI@@QEAAJPEBGPEAUHWND__@@PEAUHICON__@@HHHHHHI@Z=C:/Windows/System32/DUI70.?Initialize@NativeHWNDHost@DirectUI@@QEAAJPEBGPEAUHWND__@@PEAUHICON__@@HHHHHHI@Z @2417
    ?Initialize@Navigator@DirectUI@@QEAAJPEAVElement@2@PEAK@Z=C:/Windows/System32/DUI70.?Initialize@Navigator@DirectUI@@QEAAJPEAVElement@2@PEAK@Z @2418
    ?Initialize@NineGridLayout@DirectUI@@QEAAXXZ=C:/Windows/System32/DUI70.?Initialize@NineGridLayout@DirectUI@@QEAAXXZ @2419
    ?Initialize@PText@DirectUI@@QEAAJPEAVElement@2@PEAK@Z=C:/Windows/System32/DUI70.?Initialize@PText@DirectUI@@QEAAJPEAVElement@2@PEAK@Z @2420
    ?Initialize@Page@DirectUI@@QEAAJPEAVElement@2@PEAK@Z=C:/Windows/System32/DUI70.?Initialize@Page@DirectUI@@QEAAJPEAVElement@2@PEAK@Z @2421
    ?Initialize@Pages@DirectUI@@QEAAJPEAVElement@2@PEAK@Z=C:/Windows/System32/DUI70.?Initialize@Pages@DirectUI@@QEAAJPEAVElement@2@PEAK@Z @2422
    ?Initialize@Progress@DirectUI@@QEAAJPEAVElement@2@PEAK@Z=C:/Windows/System32/DUI70.?Initialize@Progress@DirectUI@@QEAAJPEAVElement@2@PEAK@Z @2423
    ?Initialize@RadioButtonGlyph@DirectUI@@QEAAJIPEAVElement@2@PEAK@Z=C:/Windows/System32/DUI70.?Initialize@RadioButtonGlyph@DirectUI@@QEAAJIPEAVElement@2@PEAK@Z @2424
    ?Initialize@RefPointElement@DirectUI@@QEAAJIPEAVElement@2@PEAK@Z=C:/Windows/System32/DUI70.?Initialize@RefPointElement@DirectUI@@QEAAJIPEAVElement@2@PEAK@Z @2425
    ?Initialize@RepeatButton@DirectUI@@QEAAJIPEAVElement@2@PEAK@Z=C:/Windows/System32/DUI70.?Initialize@RepeatButton@DirectUI@@QEAAJIPEAVElement@2@PEAK@Z @2426
    ?Initialize@Repeater@DirectUI@@QEAAJPEAVElement@2@PEAK@Z=C:/Windows/System32/DUI70.?Initialize@Repeater@DirectUI@@QEAAJPEAVElement@2@PEAK@Z @2427
    ?Initialize@RichText@DirectUI@@QEAAJPEAVElement@2@PEAK@Z=C:/Windows/System32/DUI70.?Initialize@RichText@DirectUI@@QEAAJPEAVElement@2@PEAK@Z @2428
    ?Initialize@RowLayout@DirectUI@@QEAAJHII@Z=C:/Windows/System32/DUI70.?Initialize@RowLayout@DirectUI@@QEAAJHII@Z @2429
    ?Initialize@ScrollBar@DirectUI@@QEAAJ_NPEAVElement@2@PEAK@Z=C:/Windows/System32/DUI70.?Initialize@ScrollBar@DirectUI@@QEAAJ_NPEAVElement@2@PEAK@Z @2430
    ?Initialize@Selector@DirectUI@@QEAAJPEAVElement@2@PEAK@Z=C:/Windows/System32/DUI70.?Initialize@Selector@DirectUI@@QEAAJPEAVElement@2@PEAK@Z @2431
    ?Initialize@SelectorNoDefault@DirectUI@@QEAAJPEAVElement@2@PEAK@Z=C:/Windows/System32/DUI70.?Initialize@SelectorNoDefault@DirectUI@@QEAAJPEAVElement@2@PEAK@Z @2432
    ?Initialize@SemanticZoomToggle@DirectUI@@QEAAJPEAVElement@2@PEAK@Z=C:/Windows/System32/DUI70.?Initialize@SemanticZoomToggle@DirectUI@@QEAAJPEAVElement@2@PEAK@Z @2433
    ?Initialize@TableLayout@DirectUI@@QEAAXHHHPEAH@Z=C:/Windows/System32/DUI70.?Initialize@TableLayout@DirectUI@@QEAAXHHHPEAH@Z @2434
    ?Initialize@TextGraphic@DirectUI@@QEAAJPEAVElement@2@PEAK@Z=C:/Windows/System32/DUI70.?Initialize@TextGraphic@DirectUI@@QEAAJPEAVElement@2@PEAK@Z @2435
    ?Initialize@Thumb@DirectUI@@QEAAJIPEAVElement@2@PEAK@Z=C:/Windows/System32/DUI70.?Initialize@Thumb@DirectUI@@QEAAJIPEAVElement@2@PEAK@Z @2436
    ?Initialize@TouchButton@DirectUI@@QEAAJIPEAVElement@2@PEAK@Z=C:/Windows/System32/DUI70.?Initialize@TouchButton@DirectUI@@QEAAJIPEAVElement@2@PEAK@Z @2437
    ?Initialize@TouchCheckBox@DirectUI@@QEAAJIPEAVElement@2@PEAK@Z=C:/Windows/System32/DUI70.?Initialize@TouchCheckBox@DirectUI@@QEAAJIPEAVElement@2@PEAK@Z @2438
    ?Initialize@TouchCheckBoxGlyph@DirectUI@@QEAAJPEAVElement@2@PEAK@Z=C:/Windows/System32/DUI70.?Initialize@TouchCheckBoxGlyph@DirectUI@@QEAAJPEAVElement@2@PEAK@Z @2439
    ?Initialize@TouchCommandButton@DirectUI@@QEAAJIPEAVElement@2@PEAK@Z=C:/Windows/System32/DUI70.?Initialize@TouchCommandButton@DirectUI@@QEAAJIPEAVElement@2@PEAK@Z @2440
    ?Initialize@TouchEdit2@DirectUI@@QEAAJPEAVElement@2@PEAK@Z=C:/Windows/System32/DUI70.?Initialize@TouchEdit2@DirectUI@@QEAAJPEAVElement@2@PEAK@Z @2441
    ?Initialize@TouchHWNDElement@DirectUI@@QEAAJPEAUHWND__@@_NIPEAVElement@2@PEAK@Z=C:/Windows/System32/DUI70.?Initialize@TouchHWNDElement@DirectUI@@QEAAJPEAUHWND__@@_NIPEAVElement@2@PEAK@Z @2442
    ?Initialize@TouchRepeatButton@DirectUI@@QEAAJIPEAVElement@2@PEAK@Z=C:/Windows/System32/DUI70.?Initialize@TouchRepeatButton@DirectUI@@QEAAJIPEAVElement@2@PEAK@Z @2443
    ?Initialize@TouchScrollBar@DirectUI@@QEAAJ_NPEAVElement@2@PEAK@Z=C:/Windows/System32/DUI70.?Initialize@TouchScrollBar@DirectUI@@QEAAJ_NPEAVElement@2@PEAK@Z @2444
    ?Initialize@TouchSelect@DirectUI@@QEAAJPEAVElement@2@PEAK@Z=C:/Windows/System32/DUI70.?Initialize@TouchSelect@DirectUI@@QEAAJPEAVElement@2@PEAK@Z @2445
    ?Initialize@TouchSlider@DirectUI@@QEAAJPEAVElement@2@PEAK@Z=C:/Windows/System32/DUI70.?Initialize@TouchSlider@DirectUI@@QEAAJPEAVElement@2@PEAK@Z @2446
    ?Initialize@TouchSwitch@DirectUI@@QEAAJPEAVElement@2@PEAK@Z=C:/Windows/System32/DUI70.?Initialize@TouchSwitch@DirectUI@@QEAAJPEAVElement@2@PEAK@Z @2447
    ?Initialize@UnknownElement@DirectUI@@QEAAJIPEAVElement@2@PEAK@Z=C:/Windows/System32/DUI70.?Initialize@UnknownElement@DirectUI@@QEAAJIPEAVElement@2@PEAK@Z @2448
    ?Initialize@VerticalFlowLayout@DirectUI@@QEAAX_NIII@Z=C:/Windows/System32/DUI70.?Initialize@VerticalFlowLayout@DirectUI@@QEAAX_NIII@Z @2449
    ?Initialize@Viewer@DirectUI@@QEAAJPEAVElement@2@PEAK@Z=C:/Windows/System32/DUI70.?Initialize@Viewer@DirectUI@@QEAAJPEAVElement@2@PEAK@Z @2450
    ?Initialize@XBaby@DirectUI@@IEAAJPEAVIXElementCP@2@PEAVXProvider@2@PEAUHWND__@@PEAVElement@2@PEAK@Z=C:/Windows/System32/DUI70.?Initialize@XBaby@DirectUI@@IEAAJPEAVIXElementCP@2@PEAVXProvider@2@PEAUHWND__@@PEAVElement@2@PEAK@Z @2451
    ?Initialize@XElement@DirectUI@@QEAAJIPEAVElement@2@PEAK@Z=C:/Windows/System32/DUI70.?Initialize@XElement@DirectUI@@QEAAJIPEAVElement@2@PEAK@Z @2452
    ?Initialize@XHost@DirectUI@@QEAAJPEAVIXElementCP@2@@Z=C:/Windows/System32/DUI70.?Initialize@XHost@DirectUI@@QEAAJPEAVIXElementCP@2@@Z @2453
    ?Initialize@XProvider@DirectUI@@QEAAJPEAVElement@2@PEAVIXProviderCP@2@@Z=C:/Windows/System32/DUI70.?Initialize@XProvider@DirectUI@@QEAAJPEAVElement@2@PEAVIXProviderCP@2@@Z @2454
    ?Initialize@XResourceProvider@DirectUI@@QEAAJPEAUHINSTANCE__@@PEBG11@Z=C:/Windows/System32/DUI70.?Initialize@XResourceProvider@DirectUI@@QEAAJPEAUHINSTANCE__@@PEBG11@Z @2455
    ?InitializeDllInfo@CallstackTracker@DirectUI@@CAHXZ=C:/Windows/System32/DUI70.?InitializeDllInfo@CallstackTracker@DirectUI@@CAHXZ @2456
    ?InitializeParserFromXmlReader@DUIXmlParser@DirectUI@@IEAAJPEAUIXmlReader@@PEAUHINSTANCE__@@1@Z=C:/Windows/System32/DUI70.?InitializeParserFromXmlReader@DUIXmlParser@DirectUI@@IEAAJPEAUIXmlReader@@PEAUHINSTANCE__@@1@Z @2457
    ?InitializeSymbols@CallstackTracker@DirectUI@@CAHXZ=C:/Windows/System32/DUI70.?InitializeSymbols@CallstackTracker@DirectUI@@CAHXZ @2458
    ?InnerBorderThicknessProp@TouchEdit2@DirectUI@@SAPEBUPropertyInfo@2@XZ=C:/Windows/System32/DUI70.?InnerBorderThicknessProp@TouchEdit2@DirectUI@@SAPEBUPropertyInfo@2@XZ @2459
    ?Insert@Element@DirectUI@@QEAAJPEAV12@I@Z=C:/Windows/System32/DUI70.?Insert@Element@DirectUI@@QEAAJPEAV12@I@Z @2460
    ?Insert@Element@DirectUI@@UEAAJPEAPEAV12@II@Z=C:/Windows/System32/DUI70.?Insert@Element@DirectUI@@UEAAJPEAPEAV12@II@Z @2461
    ?Insert@TouchCheckBox@DirectUI@@UEAAJPEAPEAVElement@2@II@Z=C:/Windows/System32/DUI70.?Insert@TouchCheckBox@DirectUI@@UEAAJPEAPEAVElement@2@II@Z @2462
    ?Insert@TouchCheckBoxGlyph@DirectUI@@UEAAJPEAPEAVElement@2@II@Z=C:/Windows/System32/DUI70.?Insert@TouchCheckBoxGlyph@DirectUI@@UEAAJPEAPEAVElement@2@II@Z @2463
    ?Insert@TouchCommandButton@DirectUI@@UEAAJPEAPEAVElement@2@II@Z=C:/Windows/System32/DUI70.?Insert@TouchCommandButton@DirectUI@@UEAAJPEAPEAVElement@2@II@Z @2464
    ?Insert@TouchEditBase@DirectUI@@UEAAJPEAPEAVElement@2@II@Z=C:/Windows/System32/DUI70.?Insert@TouchEditBase@DirectUI@@UEAAJPEAPEAVElement@2@II@Z @2465
    ?Insert@TouchSelect@DirectUI@@UEAAJPEAPEAVElement@2@II@Z=C:/Windows/System32/DUI70.?Insert@TouchSelect@DirectUI@@UEAAJPEAPEAVElement@2@II@Z @2466
    ?InsertItem@CCTreeView@DirectUI@@QEAAPEAU_TREEITEM@@PEAGIQEAU3@1@Z=C:/Windows/System32/DUI70.?InsertItem@CCTreeView@DirectUI@@QEAAPEAU_TREEITEM@@PEAGIQEAU3@1@Z @2467
    ?InsertItem@CCTreeView@DirectUI@@QEAAPEAU_TREEITEM@@PEBUtagTVINSERTSTRUCTW@@@Z=C:/Windows/System32/DUI70.?InsertItem@CCTreeView@DirectUI@@QEAAPEAU_TREEITEM@@PEBUtagTVINSERTSTRUCTW@@@Z @2468
    ?IntegrateIMECandidateListProp@TouchEditBase@DirectUI@@SAPEBUPropertyInfo@2@XZ=C:/Windows/System32/DUI70.?IntegrateIMECandidateListProp@TouchEditBase@DirectUI@@SAPEBUPropertyInfo@2@XZ @2469
    ?InteractionEnd@TouchScrollBar@DirectUI@@SA?AVUID@@XZ=C:/Windows/System32/DUI70.?InteractionEnd@TouchScrollBar@DirectUI@@SA?AVUID@@XZ @2470
    ?InteractionStart@TouchScrollBar@DirectUI@@SA?AVUID@@XZ=C:/Windows/System32/DUI70.?InteractionStart@TouchScrollBar@DirectUI@@SA?AVUID@@XZ @2471
    ?InternalCreate@TableLayout@DirectUI@@SAJHHHPEAHPEAPEAVLayout@2@@Z=C:/Windows/System32/DUI70.?InternalCreate@TableLayout@DirectUI@@SAJHHHPEAHPEAPEAVLayout@2@@Z @2472
    ?InterpolationModeProp@Movie@DirectUI@@SAPEBUPropertyInfo@2@XZ=C:/Windows/System32/DUI70.?InterpolationModeProp@Movie@DirectUI@@SAPEBUPropertyInfo@2@XZ @2473
    ?Invoke@DuiAccessible@DirectUI@@UEAAJJAEBU_GUID@@KGPEAUtagDISPPARAMS@@PEAUtagVARIANT@@PEAUtagEXCEPINFO@@PEAI@Z=C:/Windows/System32/DUI70.?Invoke@DuiAccessible@DirectUI@@UEAAJJAEBU_GUID@@KGPEAUtagDISPPARAMS@@PEAUtagVARIANT@@PEAUtagEXCEPINFO@@PEAI@Z @2474
    ?Invoke@InvokeProvider@DirectUI@@UEAAJXZ=C:/Windows/System32/DUI70.?Invoke@InvokeProvider@DirectUI@@UEAAJXZ @2475
    ?Invoke@Proxy@DirectUI@@IEAAXIPEAX@Z=C:/Windows/System32/DUI70.?Invoke@Proxy@DirectUI@@IEAAXIPEAX@Z @2476
    ?InvokeAnimation@Element@DirectUI@@QEAAXHI@Z=C:/Windows/System32/DUI70.?InvokeAnimation@Element@DirectUI@@QEAAXHI@Z @2477
    ?InvokeAnimation@Element@DirectUI@@QEAAXIIMM_N@Z=C:/Windows/System32/DUI70.?InvokeAnimation@Element@DirectUI@@QEAAXIIMM_N@Z @2478
    ?InvokeInvokedEvent@Schema@DirectUI@@2HA=C:/Windows/System32/DUI70.?InvokeInvokedEvent@Schema@DirectUI@@2HA @2479
    ?InvokePattern@Schema@DirectUI@@2HA=C:/Windows/System32/DUI70.?InvokePattern@Schema@DirectUI@@2HA @2480
    ?IsActivityOccuring@ModernProgressBar@DirectUI@@QEAA_NXZ=C:/Windows/System32/DUI70.?IsActivityOccuring@ModernProgressBar@DirectUI@@QEAA_NXZ @2481
    ?IsActivityOccuring@ModernProgressRing@DirectUI@@QEAA_NXZ=C:/Windows/System32/DUI70.?IsActivityOccuring@ModernProgressRing@DirectUI@@QEAA_NXZ @2482
    ?IsAddLayeredRef@ModernProgressBar@DirectUI@@QEAA_NXZ=C:/Windows/System32/DUI70.?IsAddLayeredRef@ModernProgressBar@DirectUI@@QEAA_NXZ @2483
    ?IsAddLayeredRef@ModernProgressRing@DirectUI@@QEAA_NXZ=C:/Windows/System32/DUI70.?IsAddLayeredRef@ModernProgressRing@DirectUI@@QEAA_NXZ @2484
    ?IsAutoHeight@ModernProgressBar@DirectUI@@QEAA_NXZ=C:/Windows/System32/DUI70.?IsAutoHeight@ModernProgressBar@DirectUI@@QEAA_NXZ @2485
    ?IsBehaviorLayout@Element@DirectUI@@QEBA_NXZ=C:/Windows/System32/DUI70.?IsBehaviorLayout@Element@DirectUI@@QEBA_NXZ @2486
    ?IsButtonEnabledAndVisible@DialogElementCore@DirectUI@@KA_NPEAVElement@2@@Z=C:/Windows/System32/DUI70.?IsButtonEnabledAndVisible@DialogElementCore@DirectUI@@KA_NPEAVElement@2@@Z @2487
    ?IsCacheDirty@Layout@DirectUI@@IEAA_NXZ=C:/Windows/System32/DUI70.?IsCacheDirty@Layout@DirectUI@@IEAA_NXZ @2488
    ?IsCompositedText@Element@DirectUI@@QEAA_NXZ=C:/Windows/System32/DUI70.?IsCompositedText@Element@DirectUI@@QEAA_NXZ @2489
    ?IsContentElementProperty@Schema@DirectUI@@2HA=C:/Windows/System32/DUI70.?IsContentElementProperty@Schema@DirectUI@@2HA @2490
    ?IsContentProtected@Edit@DirectUI@@UEAA_NXZ=C:/Windows/System32/DUI70.?IsContentProtected@Edit@DirectUI@@UEAA_NXZ @2491
    ?IsContentProtected@Element@DirectUI@@UEAA_NXZ=C:/Windows/System32/DUI70.?IsContentProtected@Element@DirectUI@@UEAA_NXZ @2492
    ?IsContentProtected@TouchEditBase@DirectUI@@UEAA_NXZ=C:/Windows/System32/DUI70.?IsContentProtected@TouchEditBase@DirectUI@@UEAA_NXZ @2493
    ?IsContinuousProp@TouchSlider@DirectUI@@SAPEBUPropertyInfo@2@XZ=C:/Windows/System32/DUI70.?IsContinuousProp@TouchSlider@DirectUI@@SAPEBUPropertyInfo@2@XZ @2494
    ?IsControlElementProperty@Schema@DirectUI@@2HA=C:/Windows/System32/DUI70.?IsControlElementProperty@Schema@DirectUI@@2HA @2495
    ?IsCorrectImageHlpVersion@CallstackTracker@DirectUI@@CAHXZ=C:/Windows/System32/DUI70.?IsCorrectImageHlpVersion@CallstackTracker@DirectUI@@CAHXZ @2496
    ?IsCrossfadeInProgress@TouchScrollViewer@DirectUI@@QEAA_NXZ=C:/Windows/System32/DUI70.?IsCrossfadeInProgress@TouchScrollViewer@DirectUI@@QEAA_NXZ @2497
    ?IsDefaultCAlign@Element@DirectUI@@QEAA_NXZ=C:/Windows/System32/DUI70.?IsDefaultCAlign@Element@DirectUI@@QEAA_NXZ @2498
    ?IsDefaultCursor@Element@DirectUI@@QEAA_NXZ=C:/Windows/System32/DUI70.?IsDefaultCursor@Element@DirectUI@@QEAA_NXZ @2499
    ?IsDescendent@Element@DirectUI@@QEAA_NPEAV12@@Z=C:/Windows/System32/DUI70.?IsDescendent@Element@DirectUI@@QEAA_NPEAV12@@Z @2500
    ?IsDescendent@XElement@DirectUI@@QEAA_NPEAVElement@2@@Z=C:/Windows/System32/DUI70.?IsDescendent@XElement@DirectUI@@QEAA_NPEAVElement@2@@Z @2501
    ?IsDescendent@XProvider@DirectUI@@UEAAJPEAVElement@2@PEA_N@Z=C:/Windows/System32/DUI70.?IsDescendent@XProvider@DirectUI@@UEAAJPEAVElement@2@PEA_N@Z @2502
    ?IsDestroyed@Element@DirectUI@@QEAA_NXZ=C:/Windows/System32/DUI70.?IsDestroyed@Element@DirectUI@@QEAA_NXZ @2503
    ?IsDeterminate@ModernProgressBar@DirectUI@@QEAA_NXZ=C:/Windows/System32/DUI70.?IsDeterminate@ModernProgressBar@DirectUI@@QEAA_NXZ @2504
    ?IsDynamicScaled@Value@DirectUI@@QEAA_NXZ=C:/Windows/System32/DUI70.?IsDynamicScaled@Value@DirectUI@@QEAA_NXZ @2505
    ?IsDynamicScaling@DUIXmlParser@DirectUI@@QEAA_NXZ=C:/Windows/System32/DUI70.?IsDynamicScaling@DUIXmlParser@DirectUI@@QEAA_NXZ @2506
    ?IsEnabledProperty@Schema@DirectUI@@2HA=C:/Windows/System32/DUI70.?IsEnabledProperty@Schema@DirectUI@@2HA @2507
    ?IsEqual@Value@DirectUI@@QEAA_NPEAV12@@Z=C:/Windows/System32/DUI70.?IsEqual@Value@DirectUI@@QEAA_NPEAV12@@Z @2508
    ?IsFirstElement@HWNDElement@DirectUI@@QEAA_NPEAVElement@2@@Z=C:/Windows/System32/DUI70.?IsFirstElement@HWNDElement@DirectUI@@QEAA_NPEAVElement@2@@Z @2509
    ?IsGlobal@ClassInfoBase@DirectUI@@UEBA_NXZ=C:/Windows/System32/DUI70.?IsGlobal@ClassInfoBase@DirectUI@@UEBA_NXZ @2510
    ?IsHosted@Element@DirectUI@@QEAA_NXZ=C:/Windows/System32/DUI70.?IsHosted@Element@DirectUI@@QEAA_NXZ @2511
    ?IsIndependentAnimations@ModernProgressBar@DirectUI@@QEAA_NXZ=C:/Windows/System32/DUI70.?IsIndependentAnimations@ModernProgressBar@DirectUI@@QEAA_NXZ @2512
    ?IsKeyboardFocusableProperty@Schema@DirectUI@@2HA=C:/Windows/System32/DUI70.?IsKeyboardFocusableProperty@Schema@DirectUI@@2HA @2513
    ?IsLastElement@HWNDElement@DirectUI@@QEAA_NPEAVElement@2@@Z=C:/Windows/System32/DUI70.?IsLastElement@HWNDElement@DirectUI@@QEAA_NPEAVElement@2@@Z @2514
    ?IsMSAAEnabled@HWNDElement@DirectUI@@UEAA_NXZ=C:/Windows/System32/DUI70.?IsMSAAEnabled@HWNDElement@DirectUI@@UEAA_NXZ @2515
    ?IsMSAAEnabled@TouchHWNDElement@DirectUI@@UEAA_NXZ=C:/Windows/System32/DUI70.?IsMSAAEnabled@TouchHWNDElement@DirectUI@@UEAA_NXZ @2516
    ?IsManualVisualSwapInProgress@TouchScrollViewer@DirectUI@@QEAA_NXZ=C:/Windows/System32/DUI70.?IsManualVisualSwapInProgress@TouchScrollViewer@DirectUI@@QEAA_NXZ @2517
    ?IsMoveDeferred@HWNDHost@DirectUI@@IEAA_NXZ=C:/Windows/System32/DUI70.?IsMoveDeferred@HWNDHost@DirectUI@@IEAA_NXZ @2518
    ?IsOffscreen@Schema@DirectUI@@2HA=C:/Windows/System32/DUI70.?IsOffscreen@Schema@DirectUI@@2HA @2519
    ?IsPasswordProperty@Schema@DirectUI@@2HA=C:/Windows/System32/DUI70.?IsPasswordProperty@Schema@DirectUI@@2HA @2520
    ?IsPatternSupported@ElementProxy@DirectUI@@IEAAJW4Pattern@Schema@2@PEA_N@Z=C:/Windows/System32/DUI70.?IsPatternSupported@ElementProxy@DirectUI@@IEAAJW4Pattern@Schema@2@PEA_N@Z @2521
    ?IsPatternSupported@ExpandCollapseProxy@DirectUI@@SA_NPEAVElement@2@@Z=C:/Windows/System32/DUI70.?IsPatternSupported@ExpandCollapseProxy@DirectUI@@SA_NPEAVElement@2@@Z @2522
    ?IsPatternSupported@GridItemProxy@DirectUI@@SA_NPEAVElement@2@@Z=C:/Windows/System32/DUI70.?IsPatternSupported@GridItemProxy@DirectUI@@SA_NPEAVElement@2@@Z @2523
    ?IsPatternSupported@GridProxy@DirectUI@@SA_NPEAVElement@2@@Z=C:/Windows/System32/DUI70.?IsPatternSupported@GridProxy@DirectUI@@SA_NPEAVElement@2@@Z @2524
    ?IsPatternSupported@InvokeProxy@DirectUI@@SA_NPEAVElement@2@@Z=C:/Windows/System32/DUI70.?IsPatternSupported@InvokeProxy@DirectUI@@SA_NPEAVElement@2@@Z @2525
    ?IsPatternSupported@RangeValueProxy@DirectUI@@SA_NPEAVElement@2@@Z=C:/Windows/System32/DUI70.?IsPatternSupported@RangeValueProxy@DirectUI@@SA_NPEAVElement@2@@Z @2526
    ?IsPatternSupported@ScrollItemProxy@DirectUI@@SA_NPEAVElement@2@@Z=C:/Windows/System32/DUI70.?IsPatternSupported@ScrollItemProxy@DirectUI@@SA_NPEAVElement@2@@Z @2527
    ?IsPatternSupported@ScrollProxy@DirectUI@@SA_NPEAVElement@2@@Z=C:/Windows/System32/DUI70.?IsPatternSupported@ScrollProxy@DirectUI@@SA_NPEAVElement@2@@Z @2528
    ?IsPatternSupported@SelectionItemProxy@DirectUI@@SA_NPEAVElement@2@@Z=C:/Windows/System32/DUI70.?IsPatternSupported@SelectionItemProxy@DirectUI@@SA_NPEAVElement@2@@Z @2529
    ?IsPatternSupported@SelectionProxy@DirectUI@@SA_NPEAVElement@2@@Z=C:/Windows/System32/DUI70.?IsPatternSupported@SelectionProxy@DirectUI@@SA_NPEAVElement@2@@Z @2530
    ?IsPatternSupported@TableItemProxy@DirectUI@@SA_NPEAVElement@2@@Z=C:/Windows/System32/DUI70.?IsPatternSupported@TableItemProxy@DirectUI@@SA_NPEAVElement@2@@Z @2531
    ?IsPatternSupported@TableProxy@DirectUI@@SA_NPEAVElement@2@@Z=C:/Windows/System32/DUI70.?IsPatternSupported@TableProxy@DirectUI@@SA_NPEAVElement@2@@Z @2532
    ?IsPatternSupported@ToggleProxy@DirectUI@@SA_NPEAVElement@2@@Z=C:/Windows/System32/DUI70.?IsPatternSupported@ToggleProxy@DirectUI@@SA_NPEAVElement@2@@Z @2533
    ?IsPatternSupported@ValueProxy@DirectUI@@SA_NPEAVElement@2@@Z=C:/Windows/System32/DUI70.?IsPatternSupported@ValueProxy@DirectUI@@SA_NPEAVElement@2@@Z @2534
    ?IsPeripheral@Schema@DirectUI@@2HA=C:/Windows/System32/DUI70.?IsPeripheral@Schema@DirectUI@@2HA @2535
    ?IsPinned@BaseScrollBar@DirectUI@@QEAA_NXZ=C:/Windows/System32/DUI70.?IsPinned@BaseScrollBar@DirectUI@@QEAA_NXZ @2536
    ?IsPointValid@Element@DirectUI@@AEAA_NNN@Z=C:/Windows/System32/DUI70.?IsPointValid@Element@DirectUI@@AEAA_NNN@Z @2537
    ?IsPopupOpen@TouchSelect@DirectUI@@QEAA_NXZ=C:/Windows/System32/DUI70.?IsPopupOpen@TouchSelect@DirectUI@@QEAA_NXZ @2538
    ?IsPressedProp@TouchSlider@DirectUI@@SAPEBUPropertyInfo@2@XZ=C:/Windows/System32/DUI70.?IsPressedProp@TouchSlider@DirectUI@@SAPEBUPropertyInfo@2@XZ @2539
    ?IsRTL@Element@DirectUI@@QEAA_NXZ=C:/Windows/System32/DUI70.?IsRTL@Element@DirectUI@@QEAA_NXZ @2540
    ?IsRTLReading@Element@DirectUI@@UEAA_NXZ=C:/Windows/System32/DUI70.?IsRTLReading@Element@DirectUI@@UEAA_NXZ @2541
    ?IsRegisteredForAnimationStatusChanges@TouchHWNDElement@DirectUI@@QEAA_NXZ=C:/Windows/System32/DUI70.?IsRegisteredForAnimationStatusChanges@TouchHWNDElement@DirectUI@@QEAA_NXZ @2542
    ?IsReorderable@ItemList@DirectUI@@QEAA_NXZ=C:/Windows/System32/DUI70.?IsReorderable@ItemList@DirectUI@@QEAA_NXZ @2543
    ?IsRoot@Element@DirectUI@@QEAAHXZ=C:/Windows/System32/DUI70.?IsRoot@Element@DirectUI@@QEAAHXZ @2544
    ?IsScrollable@BaseScrollBar@DirectUI@@QEAA_NXZ=C:/Windows/System32/DUI70.?IsScrollable@BaseScrollBar@DirectUI@@QEAA_NXZ @2545
    ?IsSelfLayout@Element@DirectUI@@QEAA_NXZ=C:/Windows/System32/DUI70.?IsSelfLayout@Element@DirectUI@@QEAA_NXZ @2546
    ?IsShowOnOffFeedbackProp@TouchSlider@DirectUI@@SAPEBUPropertyInfo@2@XZ=C:/Windows/System32/DUI70.?IsShowOnOffFeedbackProp@TouchSlider@DirectUI@@SAPEBUPropertyInfo@2@XZ @2547
    ?IsSmoothFillAnimation@ModernProgressBar@DirectUI@@QEAA_NXZ=C:/Windows/System32/DUI70.?IsSmoothFillAnimation@ModernProgressBar@DirectUI@@QEAA_NXZ @2548
    ?IsSubclassOf@ClassInfoBase@DirectUI@@UEBA_NPEAUIClassInfo@2@@Z=C:/Windows/System32/DUI70.?IsSubclassOf@ClassInfoBase@DirectUI@@UEBA_NPEAUIClassInfo@2@@Z @2549
    ?IsThemeClassName@DUIXmlParser@DirectUI@@KA_NPEBUExprNode@ParserTools@2@@Z=C:/Windows/System32/DUI70.?IsThemeClassName@DUIXmlParser@DirectUI@@KA_NPEBUExprNode@ParserTools@2@@Z @2550
    ?IsThumbActive@TouchScrollBar@DirectUI@@QEAA_NXZ=C:/Windows/System32/DUI70.?IsThumbActive@TouchScrollBar@DirectUI@@QEAA_NXZ @2551
    ?IsTileMember@TouchScrollViewer@DirectUI@@QEAA_NIPEAVElement@2@@Z=C:/Windows/System32/DUI70.?IsTileMember@TouchScrollViewer@DirectUI@@QEAA_NIPEAVElement@2@@Z @2552
    ?IsValidAccessor@Element@DirectUI@@QEAA_NPEBUPropertyInfo@2@H_N@Z=C:/Windows/System32/DUI70.?IsValidAccessor@Element@DirectUI@@QEAA_NPEBUPropertyInfo@2@H_N@Z @2553
    ?IsValidProperty@ClassInfoBase@DirectUI@@UEBA_NPEBUPropertyInfo@2@@Z=C:/Windows/System32/DUI70.?IsValidProperty@ClassInfoBase@DirectUI@@UEBA_NPEBUPropertyInfo@2@@Z @2554
    ?IsValidValue@Element@DirectUI@@SA_NPEBUPropertyInfo@2@PEAVValue@2@@Z=C:/Windows/System32/DUI70.?IsValidValue@Element@DirectUI@@SA_NPEBUPropertyInfo@2@PEAVValue@2@@Z @2555
    ?IsVerticalProp@TouchSlider@DirectUI@@SAPEBUPropertyInfo@2@XZ=C:/Windows/System32/DUI70.?IsVerticalProp@TouchSlider@DirectUI@@SAPEBUPropertyInfo@2@XZ @2556
    ?IsWordWrap@Element@DirectUI@@QEAA_NXZ=C:/Windows/System32/DUI70.?IsWordWrap@Element@DirectUI@@QEAA_NXZ @2557
    ?ItemContainerPattern@Schema@DirectUI@@2HA=C:/Windows/System32/DUI70.?ItemContainerPattern@Schema@DirectUI@@2HA @2558
    ?ItemHeightInPopupProp@TouchSelect@DirectUI@@SAPEBUPropertyInfo@2@XZ=C:/Windows/System32/DUI70.?ItemHeightInPopupProp@TouchSelect@DirectUI@@SAPEBUPropertyInfo@2@XZ @2559
    ?ItemStatusProperty@Schema@DirectUI@@2HA=C:/Windows/System32/DUI70.?ItemStatusProperty@Schema@DirectUI@@2HA @2560
    ?ItemTypeProperty@Schema@DirectUI@@2HA=C:/Windows/System32/DUI70.?ItemTypeProperty@Schema@DirectUI@@2HA @2561
    ?KeyFocusedProp@Element@DirectUI@@SAPEBUPropertyInfo@2@XZ=C:/Windows/System32/DUI70.?KeyFocusedProp@Element@DirectUI@@SAPEBUPropertyInfo@2@XZ @2562
    ?KeyWithinProp@Element@DirectUI@@SAPEBUPropertyInfo@2@XZ=C:/Windows/System32/DUI70.?KeyWithinProp@Element@DirectUI@@SAPEBUPropertyInfo@2@XZ @2563
    ?KeyboardNavigate@Element@DirectUI@@SA?AVUID@@XZ=C:/Windows/System32/DUI70.?KeyboardNavigate@Element@DirectUI@@SA?AVUID@@XZ @2564
    ?KeyboardNavigationCaptureProp@TouchEditBase@DirectUI@@SAPEBUPropertyInfo@2@XZ=C:/Windows/System32/DUI70.?KeyboardNavigationCaptureProp@TouchEditBase@DirectUI@@SAPEBUPropertyInfo@2@XZ @2565
    ?LabeledByProperty@Schema@DirectUI@@2HA=C:/Windows/System32/DUI70.?LabeledByProperty@Schema@DirectUI@@2HA @2566
    ?LastDSConstProp@Element@DirectUI@@SAPEBUPropertyInfo@2@XZ=C:/Windows/System32/DUI70.?LastDSConstProp@Element@DirectUI@@SAPEBUPropertyInfo@2@XZ @2567
    ?LayoutInvalidatedEvent@Schema@DirectUI@@2HA=C:/Windows/System32/DUI70.?LayoutInvalidatedEvent@Schema@DirectUI@@2HA @2568
    ?LayoutPosProp@Element@DirectUI@@SAPEBUPropertyInfo@2@XZ=C:/Windows/System32/DUI70.?LayoutPosProp@Element@DirectUI@@SAPEBUPropertyInfo@2@XZ @2569
    ?LayoutProp@Element@DirectUI@@SAPEBUPropertyInfo@2@XZ=C:/Windows/System32/DUI70.?LayoutProp@Element@DirectUI@@SAPEBUPropertyInfo@2@XZ @2570
    ?Leaving@Browser@DirectUI@@SA?AVUID@@XZ=C:/Windows/System32/DUI70.?Leaving@Browser@DirectUI@@SA?AVUID@@XZ @2571
    ?LightDismissIHMProp@TouchHWNDElement@DirectUI@@SAPEBUPropertyInfo@2@XZ=C:/Windows/System32/DUI70.?LightDismissIHMProp@TouchHWNDElement@DirectUI@@SAPEBUPropertyInfo@2@XZ @2572
    ?LineDown@BaseScrollBar@DirectUI@@UEAAXI@Z=C:/Windows/System32/DUI70.?LineDown@BaseScrollBar@DirectUI@@UEAAXI@Z @2573
    ?LineDown@TouchScrollBar@DirectUI@@UEAAXI@Z=C:/Windows/System32/DUI70.?LineDown@TouchScrollBar@DirectUI@@UEAAXI@Z @2574
    ?LineProp@CCBaseScrollBar@DirectUI@@SAPEBUPropertyInfo@2@XZ=C:/Windows/System32/DUI70.?LineProp@CCBaseScrollBar@DirectUI@@SAPEBUPropertyInfo@2@XZ @2575
    ?LineProp@ScrollBar@DirectUI@@SAPEBUPropertyInfo@2@XZ=C:/Windows/System32/DUI70.?LineProp@ScrollBar@DirectUI@@SAPEBUPropertyInfo@2@XZ @2576
    ?LineSizeProp@CCTrackBar@DirectUI@@SAPEBUPropertyInfo@2@XZ=C:/Windows/System32/DUI70.?LineSizeProp@CCTrackBar@DirectUI@@SAPEBUPropertyInfo@2@XZ @2577
    ?LineSpacingProp@RichText@DirectUI@@SAPEBUPropertyInfo@2@XZ=C:/Windows/System32/DUI70.?LineSpacingProp@RichText@DirectUI@@SAPEBUPropertyInfo@2@XZ @2578
    ?LineUp@BaseScrollBar@DirectUI@@UEAAXI@Z=C:/Windows/System32/DUI70.?LineUp@BaseScrollBar@DirectUI@@UEAAXI@Z @2579
    ?LineUp@TouchScrollBar@DirectUI@@UEAAXI@Z=C:/Windows/System32/DUI70.?LineUp@TouchScrollBar@DirectUI@@UEAAXI@Z @2580
    ?ListControlType@Schema@DirectUI@@2HA=C:/Windows/System32/DUI70.?ListControlType@Schema@DirectUI@@2HA @2581
    ?ListItemControlType@Schema@DirectUI@@2HA=C:/Windows/System32/DUI70.?ListItemControlType@Schema@DirectUI@@2HA @2582
    ?LoadComCtl32@TaskPage@DirectUI@@AEAAJXZ=C:/Windows/System32/DUI70.?LoadComCtl32@TaskPage@DirectUI@@AEAAJXZ @2583
    ?LoadCommonControlExports@AnimationStrip@DirectUI@@AEAAJXZ=C:/Windows/System32/DUI70.?LoadCommonControlExports@AnimationStrip@DirectUI@@AEAAJXZ @2584
    ?LoadFromBuffer@DUIFactory@DirectUI@@QEAAJPEBG_K0PEAVElement@2@PEAKPEAPEAV32@@Z=C:/Windows/System32/DUI70.?LoadFromBuffer@DUIFactory@DirectUI@@QEAAJPEBG_K0PEAVElement@2@PEAKPEAPEAV32@@Z @2585
    ?LoadFromFile@DUIFactory@DirectUI@@QEAAJPEBG0PEAVElement@2@PEAKPEAPEAV32@@Z=C:/Windows/System32/DUI70.?LoadFromFile@DUIFactory@DirectUI@@QEAAJPEBG0PEAVElement@2@PEAKPEAPEAV32@@Z @2586
    ?LoadFromPath@Movie@DirectUI@@QEAAJPEBG@Z=C:/Windows/System32/DUI70.?LoadFromPath@Movie@DirectUI@@QEAAJPEBG@Z @2587
    ?LoadFromResource@DUIFactory@DirectUI@@QEAAJPEAUHINSTANCE__@@PEBG1PEAVElement@2@PEAKPEAPEAV42@1@Z=C:/Windows/System32/DUI70.?LoadFromResource@DUIFactory@DirectUI@@QEAAJPEAUHINSTANCE__@@PEBG1PEAVElement@2@PEAKPEAPEAV42@1@Z @2588
    ?LoadFromResource@Movie@DirectUI@@QEAAJPEAUHINSTANCE__@@H@Z=C:/Windows/System32/DUI70.?LoadFromResource@Movie@DirectUI@@QEAAJPEAUHINSTANCE__@@H@Z @2589
    ?LoadImagesIntoAnimationStrip@AnimationStrip@DirectUI@@IEAAJXZ=C:/Windows/System32/DUI70.?LoadImagesIntoAnimationStrip@AnimationStrip@DirectUI@@IEAAJXZ @2590
    ?LoadPage@TaskPage@DirectUI@@AEAAJPEAPEAVElement@2@PEAV32@PEAPEAVDUIXmlParser@2@@Z=C:/Windows/System32/DUI70.?LoadPage@TaskPage@DirectUI@@AEAAJPEAPEAVElement@2@PEAV32@PEAPEAVDUIXmlParser@2@@Z @2591
    ?LoadPage@TaskPage@DirectUI@@MEAAJPEAVHWNDElement@2@PEAUHINSTANCE__@@PEAPEAVElement@2@PEAPEAVDUIXmlParser@2@@Z=C:/Windows/System32/DUI70.?LoadPage@TaskPage@DirectUI@@MEAAJPEAVHWNDElement@2@PEAUHINSTANCE__@@PEAPEAVElement@2@PEAPEAVDUIXmlParser@2@@Z @2592
    ?LoadParser@TaskPage@DirectUI@@MEAAJPEAPEAVDUIXmlParser@2@@Z=C:/Windows/System32/DUI70.?LoadParser@TaskPage@DirectUI@@MEAAJPEAPEAVDUIXmlParser@2@@Z @2593
    ?LocaleProp@RichText@DirectUI@@SAPEBUPropertyInfo@2@XZ=C:/Windows/System32/DUI70.?LocaleProp@RichText@DirectUI@@SAPEBUPropertyInfo@2@XZ @2594
    ?LocalizedControlTypeProperty@Schema@DirectUI@@2HA=C:/Windows/System32/DUI70.?LocalizedControlTypeProperty@Schema@DirectUI@@2HA @2595
    ?Locate@RefPointElement@DirectUI@@SAPEAV12@PEAVElement@2@@Z=C:/Windows/System32/DUI70.?Locate@RefPointElement@DirectUI@@SAPEAV12@PEAVElement@2@@Z @2596
    ?LocationProp@Element@DirectUI@@SAPEBUPropertyInfo@2@XZ=C:/Windows/System32/DUI70.?LocationProp@Element@DirectUI@@SAPEBUPropertyInfo@2@XZ @2597
    ?LookupAccessibleRole@Schema@DirectUI@@SAHHPEA_N@Z=C:/Windows/System32/DUI70.?LookupAccessibleRole@Schema@DirectUI@@SAHHPEA_N@Z @2598
    ?LookupControlInfos@Schema@DirectUI@@CAJXZ=C:/Windows/System32/DUI70.?LookupControlInfos@Schema@DirectUI@@CAJXZ @2599
    ?LookupElement@DUIXmlParser@DirectUI@@QEAAJPEAUIXmlReader@@PEBGPEAUHINSTANCE__@@PEAPEAUIClassInfo@2@@Z=C:/Windows/System32/DUI70.?LookupElement@DUIXmlParser@DirectUI@@QEAAJPEAUIXmlReader@@PEBGPEAUHINSTANCE__@@PEAPEAUIClassInfo@2@@Z @2600
    ?LookupElement@DUIXmlParser@DirectUI@@QEAAJULINEINFO@2@PEBGPEAUHINSTANCE__@@PEAPEAUIClassInfo@2@@Z=C:/Windows/System32/DUI70.?LookupElement@DUIXmlParser@DirectUI@@QEAAJULINEINFO@2@PEBGPEAUHINSTANCE__@@PEAPEAUIClassInfo@2@@Z @2601
    ?LookupEventInfos@Schema@DirectUI@@CAJXZ=C:/Windows/System32/DUI70.?LookupEventInfos@Schema@DirectUI@@CAJXZ @2602
    ?LookupPatternInfos@Schema@DirectUI@@CAJXZ=C:/Windows/System32/DUI70.?LookupPatternInfos@Schema@DirectUI@@CAJXZ @2603
    ?LookupPropertyInfos@Schema@DirectUI@@CAJXZ=C:/Windows/System32/DUI70.?LookupPropertyInfos@Schema@DirectUI@@CAJXZ @2604
    ?ManipulationCompleted@TouchScrollViewer@DirectUI@@SA?AVUID@@XZ=C:/Windows/System32/DUI70.?ManipulationCompleted@TouchScrollViewer@DirectUI@@SA?AVUID@@XZ @2605
    ?ManipulationDelta@TouchScrollViewer@DirectUI@@SA?AVUID@@XZ=C:/Windows/System32/DUI70.?ManipulationDelta@TouchScrollViewer@DirectUI@@SA?AVUID@@XZ @2606
    ?ManipulationHorizontalAlignmentProp@TouchScrollViewer@DirectUI@@SAPEBUPropertyInfo@2@XZ=C:/Windows/System32/DUI70.?ManipulationHorizontalAlignmentProp@TouchScrollViewer@DirectUI@@SAPEBUPropertyInfo@2@XZ @2607
    ?ManipulationStarted@TouchScrollViewer@DirectUI@@SA?AVUID@@XZ=C:/Windows/System32/DUI70.?ManipulationStarted@TouchScrollViewer@DirectUI@@SA?AVUID@@XZ @2608
    ?ManipulationStarting@TouchScrollViewer@DirectUI@@SA?AVUID@@XZ=C:/Windows/System32/DUI70.?ManipulationStarting@TouchScrollViewer@DirectUI@@SA?AVUID@@XZ @2609
    ?ManipulationVerticalAlignmentProp@TouchScrollViewer@DirectUI@@SAPEBUPropertyInfo@2@XZ=C:/Windows/System32/DUI70.?ManipulationVerticalAlignmentProp@TouchScrollViewer@DirectUI@@SAPEBUPropertyInfo@2@XZ @2610
    ?ManualStoryboardVerify@PVLAnimation@DirectUI@@SA?AVUID@@XZ=C:/Windows/System32/DUI70.?ManualStoryboardVerify@PVLAnimation@DirectUI@@SA?AVUID@@XZ @2611
    ?MapContentVisuals@TouchScrollViewer@DirectUI@@SA?AVUID@@XZ=C:/Windows/System32/DUI70.?MapContentVisuals@TouchScrollViewer@DirectUI@@SA?AVUID@@XZ @2612
    ?MapElementPoint@Element@DirectUI@@QEAAXPEAV12@PEBUtagPOINT@@PEAU3@@Z=C:/Windows/System32/DUI70.?MapElementPoint@Element@DirectUI@@QEAAXPEAV12@PEBUtagPOINT@@PEAU3@@Z @2613
    ?MapPropertyEnumValue@DUIXmlParser@DirectUI@@IEAAJPEBUEnumMap@2@PEBGPEAH@Z=C:/Windows/System32/DUI70.?MapPropertyEnumValue@DUIXmlParser@DirectUI@@IEAAJPEBUEnumMap@2@PEBGPEAH@Z @2614
    ?MapPropertyNameToPropertyInfo@DUIXmlParser@DirectUI@@IEAAJULINEINFO@2@PEAUIClassInfo@2@PEBGPEAPEBUPropertyInfo@2@@Z=C:/Windows/System32/DUI70.?MapPropertyNameToPropertyInfo@DUIXmlParser@DirectUI@@IEAAJULINEINFO@2@PEAUIClassInfo@2@PEBGPEAPEBUPropertyInfo@2@@Z @2615
    ?MapRunsToClustersProp@RichText@DirectUI@@SAPEBUPropertyInfo@2@XZ=C:/Windows/System32/DUI70.?MapRunsToClustersProp@RichText@DirectUI@@SAPEBUPropertyInfo@2@XZ @2616
    ?MarginProp@Element@DirectUI@@SAPEBUPropertyInfo@2@XZ=C:/Windows/System32/DUI70.?MarginProp@Element@DirectUI@@SAPEBUPropertyInfo@2@XZ @2617
    ?MarkHosted@Element@DirectUI@@IEAAXXZ=C:/Windows/System32/DUI70.?MarkHosted@Element@DirectUI@@IEAAXXZ @2618
    ?MarkNeedsDSUpdate@Element@DirectUI@@QEAAXXZ=C:/Windows/System32/DUI70.?MarkNeedsDSUpdate@Element@DirectUI@@QEAAXXZ @2619
    ?MarkSelfLayout@Element@DirectUI@@IEAAXXZ=C:/Windows/System32/DUI70.?MarkSelfLayout@Element@DirectUI@@IEAAXXZ @2620
    ?MaxLengthProp@Edit@DirectUI@@SAPEBUPropertyInfo@2@XZ=C:/Windows/System32/DUI70.?MaxLengthProp@Edit@DirectUI@@SAPEBUPropertyInfo@2@XZ @2621
    ?MaxLengthProp@TouchEditBase@DirectUI@@SAPEBUPropertyInfo@2@XZ=C:/Windows/System32/DUI70.?MaxLengthProp@TouchEditBase@DirectUI@@SAPEBUPropertyInfo@2@XZ @2622
    ?MaximumProp@CCBaseScrollBar@DirectUI@@SAPEBUPropertyInfo@2@XZ=C:/Windows/System32/DUI70.?MaximumProp@CCBaseScrollBar@DirectUI@@SAPEBUPropertyInfo@2@XZ @2623
    ?MaximumProp@ModernProgressBar@DirectUI@@SAPEBUPropertyInfo@2@XZ=C:/Windows/System32/DUI70.?MaximumProp@ModernProgressBar@DirectUI@@SAPEBUPropertyInfo@2@XZ @2624
    ?MaximumProp@Progress@DirectUI@@SAPEBUPropertyInfo@2@XZ=C:/Windows/System32/DUI70.?MaximumProp@Progress@DirectUI@@SAPEBUPropertyInfo@2@XZ @2625
    ?MaximumProp@ScrollBar@DirectUI@@SAPEBUPropertyInfo@2@XZ=C:/Windows/System32/DUI70.?MaximumProp@ScrollBar@DirectUI@@SAPEBUPropertyInfo@2@XZ @2626
    ?MenuBarControlType@Schema@DirectUI@@2HA=C:/Windows/System32/DUI70.?MenuBarControlType@Schema@DirectUI@@2HA @2627
    ?MenuClosedEvent@Schema@DirectUI@@2HA=C:/Windows/System32/DUI70.?MenuClosedEvent@Schema@DirectUI@@2HA @2628
    ?MenuControlType@Schema@DirectUI@@2HA=C:/Windows/System32/DUI70.?MenuControlType@Schema@DirectUI@@2HA @2629
    ?MenuItemControlType@Schema@DirectUI@@2HA=C:/Windows/System32/DUI70.?MenuItemControlType@Schema@DirectUI@@2HA @2630
    ?MenuOpenedEvent@Schema@DirectUI@@2HA=C:/Windows/System32/DUI70.?MenuOpenedEvent@Schema@DirectUI@@2HA @2631
    ?MessageCallback@Edit@DirectUI@@UEAAIPEAUtagGMSG@@@Z=C:/Windows/System32/DUI70.?MessageCallback@Edit@DirectUI@@UEAAIPEAUtagGMSG@@@Z @2632
    ?MessageCallback@Element@DirectUI@@UEAAIPEAUtagGMSG@@@Z=C:/Windows/System32/DUI70.?MessageCallback@Element@DirectUI@@UEAAIPEAUtagGMSG@@@Z @2633
    ?MessageCallback@HWNDHost@DirectUI@@UEAAIPEAUtagGMSG@@@Z=C:/Windows/System32/DUI70.?MessageCallback@HWNDHost@DirectUI@@UEAAIPEAUtagGMSG@@@Z @2634
    ?MessageCallback@TouchHWNDElement@DirectUI@@UEAAIPEAUtagGMSG@@@Z=C:/Windows/System32/DUI70.?MessageCallback@TouchHWNDElement@DirectUI@@UEAAIPEAUtagGMSG@@@Z @2635
    ?MeteringProp@TouchSlider@DirectUI@@SAPEBUPropertyInfo@2@XZ=C:/Windows/System32/DUI70.?MeteringProp@TouchSlider@DirectUI@@SAPEBUPropertyInfo@2@XZ @2636
    ?MinSizeProp@Element@DirectUI@@SAPEBUPropertyInfo@2@XZ=C:/Windows/System32/DUI70.?MinSizeProp@Element@DirectUI@@SAPEBUPropertyInfo@2@XZ @2637
    ?MinimumProp@CCBaseScrollBar@DirectUI@@SAPEBUPropertyInfo@2@XZ=C:/Windows/System32/DUI70.?MinimumProp@CCBaseScrollBar@DirectUI@@SAPEBUPropertyInfo@2@XZ @2638
    ?MinimumProp@ModernProgressBar@DirectUI@@SAPEBUPropertyInfo@2@XZ=C:/Windows/System32/DUI70.?MinimumProp@ModernProgressBar@DirectUI@@SAPEBUPropertyInfo@2@XZ @2639
    ?MinimumProp@Progress@DirectUI@@SAPEBUPropertyInfo@2@XZ=C:/Windows/System32/DUI70.?MinimumProp@Progress@DirectUI@@SAPEBUPropertyInfo@2@XZ @2640
    ?MinimumProp@ScrollBar@DirectUI@@SAPEBUPropertyInfo@2@XZ=C:/Windows/System32/DUI70.?MinimumProp@ScrollBar@DirectUI@@SAPEBUPropertyInfo@2@XZ @2641
    ?MonitorPowerSettingsChange@TouchHWNDElement@DirectUI@@SA?AVUID@@XZ=C:/Windows/System32/DUI70.?MonitorPowerSettingsChange@TouchHWNDElement@DirectUI@@SA?AVUID@@XZ @2642
    ?MouseFocusedProp@Element@DirectUI@@SAPEBUPropertyInfo@2@XZ=C:/Windows/System32/DUI70.?MouseFocusedProp@Element@DirectUI@@SAPEBUPropertyInfo@2@XZ @2643
    ?MouseOrPointerReleased@TouchSlider@DirectUI@@SA?AVUID@@XZ=C:/Windows/System32/DUI70.?MouseOrPointerReleased@TouchSlider@DirectUI@@SA?AVUID@@XZ @2644
    ?MouseWithinProp@Element@DirectUI@@SAPEBUPropertyInfo@2@XZ=C:/Windows/System32/DUI70.?MouseWithinProp@Element@DirectUI@@SAPEBUPropertyInfo@2@XZ @2645
    ?MoveCaretToEndOnSyncContentProp@TouchEditBase@DirectUI@@SAPEBUPropertyInfo@2@XZ=C:/Windows/System32/DUI70.?MoveCaretToEndOnSyncContentProp@TouchEditBase@DirectUI@@SAPEBUPropertyInfo@2@XZ @2646
    ?MultilineProp@Edit@DirectUI@@SAPEBUPropertyInfo@2@XZ=C:/Windows/System32/DUI70.?MultilineProp@Edit@DirectUI@@SAPEBUPropertyInfo@2@XZ @2647
    ?MultilineProp@TouchEditBase@DirectUI@@SAPEBUPropertyInfo@2@XZ=C:/Windows/System32/DUI70.?MultilineProp@TouchEditBase@DirectUI@@SAPEBUPropertyInfo@2@XZ @2648
    ?MultipleClick@TouchButton@DirectUI@@SA?AVUID@@XZ=C:/Windows/System32/DUI70.?MultipleClick@TouchButton@DirectUI@@SA?AVUID@@XZ @2649
    ?MultipleViewPattern@Schema@DirectUI@@2HA=C:/Windows/System32/DUI70.?MultipleViewPattern@Schema@DirectUI@@2HA @2650
    ?NameProperty@Schema@DirectUI@@2HA=C:/Windows/System32/DUI70.?NameProperty@Schema@DirectUI@@2HA @2651
    ?Navigate@DuiNavigate@DirectUI@@SAPEAVElement@2@PEAV32@PEAV?$DynamicArray@PEAVElement@DirectUI@@$0A@@2@H@Z=C:/Windows/System32/DUI70.?Navigate@DuiNavigate@DirectUI@@SAPEAVElement@2@PEAV32@PEAV?$DynamicArray@PEAVElement@DirectUI@@$0A@@2@H@Z @2652
    ?Navigate@ElementProvider@DirectUI@@UEAAJW4NavigateDirection@@PEAPEAUIRawElementProviderFragment@@@Z=C:/Windows/System32/DUI70.?Navigate@ElementProvider@DirectUI@@UEAAJW4NavigateDirection@@PEAPEAUIRawElementProviderFragment@@@Z @2653
    ?Navigate@ElementProxy@DirectUI@@IEAAJW4NavigateDirection@@PEAPEAUIRawElementProviderFragment@@@Z=C:/Windows/System32/DUI70.?Navigate@ElementProxy@DirectUI@@IEAAJW4NavigateDirection@@PEAPEAUIRawElementProviderFragment@@@Z @2654
    ?Navigate@XProvider@DirectUI@@UEAAJHPEA_N@Z=C:/Windows/System32/DUI70.?Navigate@XProvider@DirectUI@@UEAAJHPEA_N@Z @2655
    ?NeedsDSUpdate@Element@DirectUI@@QEAA_NXZ=C:/Windows/System32/DUI70.?NeedsDSUpdate@Element@DirectUI@@QEAA_NXZ @2656
    ?NewChildElementsAdded@TouchScrollViewer@DirectUI@@QEAAXXZ=C:/Windows/System32/DUI70.?NewChildElementsAdded@TouchScrollViewer@DirectUI@@QEAAXXZ @2657
    ?NewNativeWindowHandleProperty@Schema@DirectUI@@2HA=C:/Windows/System32/DUI70.?NewNativeWindowHandleProperty@Schema@DirectUI@@2HA @2658
    ?Next@DuiAccessible@DirectUI@@UEAAJKPEAUtagVARIANT@@PEAK@Z=C:/Windows/System32/DUI70.?Next@DuiAccessible@DirectUI@@UEAAJKPEAUtagVARIANT@@PEAK@Z @2659
    ?Next@HWNDHostAccessible@DirectUI@@UEAAJKPEAUtagVARIANT@@PEAK@Z=C:/Windows/System32/DUI70.?Next@HWNDHostAccessible@DirectUI@@UEAAJKPEAUtagVARIANT@@PEAK@Z @2660
    ?NoteProp@CCCommandLink@DirectUI@@SAPEBUPropertyInfo@2@XZ=C:/Windows/System32/DUI70.?NoteProp@CCCommandLink@DirectUI@@SAPEBUPropertyInfo@2@XZ @2661
    ?NotifyComplete@PVLAnimation@DirectUI@@SA?AVUID@@XZ=C:/Windows/System32/DUI70.?NotifyComplete@PVLAnimation@DirectUI@@SA?AVUID@@XZ @2662
    ?NotifyImplicit@PVLAnimation@DirectUI@@SA?AVUID@@XZ=C:/Windows/System32/DUI70.?NotifyImplicit@PVLAnimation@DirectUI@@SA?AVUID@@XZ @2663
    ?NotifyStart@PVLAnimation@DirectUI@@SA?AVUID@@XZ=C:/Windows/System32/DUI70.?NotifyStart@PVLAnimation@DirectUI@@SA?AVUID@@XZ @2664
    ?NotifyStoryboardComplete@PVLAnimation@DirectUI@@SA?AVUID@@XZ=C:/Windows/System32/DUI70.?NotifyStoryboardComplete@PVLAnimation@DirectUI@@SA?AVUID@@XZ @2665
    ?NullControlType@Schema@DirectUI@@2HA=C:/Windows/System32/DUI70.?NullControlType@Schema@DirectUI@@2HA @2666
    ?OffTextProp@TouchSwitch@DirectUI@@SAPEBUPropertyInfo@2@XZ=C:/Windows/System32/DUI70.?OffTextProp@TouchSwitch@DirectUI@@SAPEBUPropertyInfo@2@XZ @2667
    ?OnAction@AnimationStrip@DirectUI@@IEAAXPEAUGMA_ACTIONINFO@@@Z=C:/Windows/System32/DUI70.?OnAction@AnimationStrip@DirectUI@@IEAAXPEAUGMA_ACTIONINFO@@@Z @2668
    ?OnAdd@BorderLayout@DirectUI@@UEAAXPEAVElement@2@PEAPEAV32@I@Z=C:/Windows/System32/DUI70.?OnAdd@BorderLayout@DirectUI@@UEAAXPEAVElement@2@PEAPEAV32@I@Z @2669
    ?OnAdd@Layout@DirectUI@@UEAAXPEAVElement@2@PEAPEAV32@I@Z=C:/Windows/System32/DUI70.?OnAdd@Layout@DirectUI@@UEAAXPEAVElement@2@PEAPEAV32@I@Z @2670
    ?OnAdd@NineGridLayout@DirectUI@@UEAAXPEAVElement@2@PEAPEAV32@I@Z=C:/Windows/System32/DUI70.?OnAdd@NineGridLayout@DirectUI@@UEAAXPEAVElement@2@PEAPEAV32@I@Z @2671
    ?OnAdd@ShellBorderLayout@DirectUI@@UEAAXPEAVElement@2@PEAPEAV32@I@Z=C:/Windows/System32/DUI70.?OnAdd@ShellBorderLayout@DirectUI@@UEAAXPEAVElement@2@PEAPEAV32@I@Z @2672
    ?OnAdjustWindowSize@Combobox@DirectUI@@UEAAHHHI@Z=C:/Windows/System32/DUI70.?OnAdjustWindowSize@Combobox@DirectUI@@UEAAHHHI@Z @2673
    ?OnAdjustWindowSize@HWNDHost@DirectUI@@UEAAHHHI@Z=C:/Windows/System32/DUI70.?OnAdjustWindowSize@HWNDHost@DirectUI@@UEAAHHHI@Z @2674
    ?OnChildLostFocus@DialogElement@DirectUI@@UEAA_NPEAVElement@2@@Z=C:/Windows/System32/DUI70.?OnChildLostFocus@DialogElement@DirectUI@@UEAA_NPEAVElement@2@@Z @2675
    ?OnChildLostFocus@DialogElementCore@DirectUI@@QEAA_NPEAVElement@2@@Z=C:/Windows/System32/DUI70.?OnChildLostFocus@DialogElementCore@DirectUI@@QEAA_NPEAVElement@2@@Z @2676
    ?OnChildLostFocus@XBaby@DirectUI@@UEAA_NPEAVElement@2@@Z=C:/Windows/System32/DUI70.?OnChildLostFocus@XBaby@DirectUI@@UEAA_NPEAVElement@2@@Z @2677
    ?OnChildReceivedFocus@DialogElement@DirectUI@@UEAA_NPEAVElement@2@@Z=C:/Windows/System32/DUI70.?OnChildReceivedFocus@DialogElement@DirectUI@@UEAA_NPEAVElement@2@@Z @2678
    ?OnChildReceivedFocus@DialogElementCore@DirectUI@@QEAA_NPEAVElement@2@@Z=C:/Windows/System32/DUI70.?OnChildReceivedFocus@DialogElementCore@DirectUI@@QEAA_NPEAVElement@2@@Z @2679
    ?OnChildReceivedFocus@XBaby@DirectUI@@UEAA_NPEAVElement@2@@Z=C:/Windows/System32/DUI70.?OnChildReceivedFocus@XBaby@DirectUI@@UEAA_NPEAVElement@2@@Z @2680
    ?OnCompositionChanged@HWNDElement@DirectUI@@UEAAXXZ=C:/Windows/System32/DUI70.?OnCompositionChanged@HWNDElement@DirectUI@@UEAAXXZ @2681
    ?OnCtrlThemeChanged@HWNDHost@DirectUI@@UEAA_NI_K_JPEA_J@Z=C:/Windows/System32/DUI70.?OnCtrlThemeChanged@HWNDHost@DirectUI@@UEAA_NI_K_JPEA_J@Z @2682
    ?OnCustomDraw@CCBase@DirectUI@@UEAA_NPEAUtagNMCUSTOMDRAWINFO@@PEA_J@Z=C:/Windows/System32/DUI70.?OnCustomDraw@CCBase@DirectUI@@UEAA_NPEAUtagNMCUSTOMDRAWINFO@@PEA_J@Z @2683
    ?OnDefaultButtonTrackingChanged@DialogElementCore@DirectUI@@QEAAXPEAVValue@2@@Z=C:/Windows/System32/DUI70.?OnDefaultButtonTrackingChanged@DialogElementCore@DirectUI@@QEAAXPEAVValue@2@@Z @2684
    ?OnDestroy@AnimationStrip@DirectUI@@MEAAXXZ=C:/Windows/System32/DUI70.?OnDestroy@AnimationStrip@DirectUI@@MEAAXXZ @2685
    ?OnDestroy@DialogElement@DirectUI@@UEAAXXZ=C:/Windows/System32/DUI70.?OnDestroy@DialogElement@DirectUI@@UEAAXXZ @2686
    ?OnDestroy@DialogElementCore@DirectUI@@QEAAXXZ=C:/Windows/System32/DUI70.?OnDestroy@DialogElementCore@DirectUI@@QEAAXXZ @2687
    ?OnDestroy@Element@DirectUI@@UEAAXXZ=C:/Windows/System32/DUI70.?OnDestroy@Element@DirectUI@@UEAAXXZ @2688
    ?OnDestroy@HWNDElement@DirectUI@@UEAAXXZ=C:/Windows/System32/DUI70.?OnDestroy@HWNDElement@DirectUI@@UEAAXXZ @2689
    ?OnDestroy@HWNDHost@DirectUI@@UEAAXXZ=C:/Windows/System32/DUI70.?OnDestroy@HWNDHost@DirectUI@@UEAAXXZ @2690
    ?OnDestroy@ModernProgressBar@DirectUI@@MEAAXXZ=C:/Windows/System32/DUI70.?OnDestroy@ModernProgressBar@DirectUI@@MEAAXXZ @2691
    ?OnDestroy@ModernProgressRing@DirectUI@@MEAAXXZ=C:/Windows/System32/DUI70.?OnDestroy@ModernProgressRing@DirectUI@@MEAAXXZ @2692
    ?OnDestroy@Movie@DirectUI@@UEAAXXZ=C:/Windows/System32/DUI70.?OnDestroy@Movie@DirectUI@@UEAAXXZ @2693
    ?OnDestroy@TouchHWNDElement@DirectUI@@UEAAXXZ=C:/Windows/System32/DUI70.?OnDestroy@TouchHWNDElement@DirectUI@@UEAAXXZ @2694
    ?OnEvent@AutoButton@DirectUI@@UEAAXPEAUEvent@2@@Z=C:/Windows/System32/DUI70.?OnEvent@AutoButton@DirectUI@@UEAAXPEAUEvent@2@@Z @2695
    ?OnEvent@BaseScrollViewer@DirectUI@@UEAAXPEAUEvent@2@@Z=C:/Windows/System32/DUI70.?OnEvent@BaseScrollViewer@DirectUI@@UEAAXPEAUEvent@2@@Z @2696
    ?OnEvent@Browser@DirectUI@@UEAAXPEAUEvent@2@@Z=C:/Windows/System32/DUI70.?OnEvent@Browser@DirectUI@@UEAAXPEAUEvent@2@@Z @2697
    ?OnEvent@Element@DirectUI@@UEAAXPEAUEvent@2@@Z=C:/Windows/System32/DUI70.?OnEvent@Element@DirectUI@@UEAAXPEAUEvent@2@@Z @2698
    ?OnEvent@Expando@DirectUI@@UEAAXPEAUEvent@2@@Z=C:/Windows/System32/DUI70.?OnEvent@Expando@DirectUI@@UEAAXPEAUEvent@2@@Z @2699
    ?OnEvent@HWNDElement@DirectUI@@UEAAXPEAUEvent@2@@Z=C:/Windows/System32/DUI70.?OnEvent@HWNDElement@DirectUI@@UEAAXPEAUEvent@2@@Z @2700
    ?OnEvent@HWNDHost@DirectUI@@UEAAXPEAUEvent@2@@Z=C:/Windows/System32/DUI70.?OnEvent@HWNDHost@DirectUI@@UEAAXPEAUEvent@2@@Z @2701
    ?OnEvent@Movie@DirectUI@@UEAAXPEAUEvent@2@@Z=C:/Windows/System32/DUI70.?OnEvent@Movie@DirectUI@@UEAAXPEAUEvent@2@@Z @2702
    ?OnEvent@Navigator@DirectUI@@UEAAXPEAUEvent@2@@Z=C:/Windows/System32/DUI70.?OnEvent@Navigator@DirectUI@@UEAAXPEAUEvent@2@@Z @2703
    ?OnEvent@RichText@DirectUI@@UEAAXPEAUEvent@2@@Z=C:/Windows/System32/DUI70.?OnEvent@RichText@DirectUI@@UEAAXPEAUEvent@2@@Z @2704
    ?OnEvent@ScrollBar@DirectUI@@UEAAXPEAUEvent@2@@Z=C:/Windows/System32/DUI70.?OnEvent@ScrollBar@DirectUI@@UEAAXPEAUEvent@2@@Z @2705
    ?OnEvent@Selector@DirectUI@@UEAAXPEAUEvent@2@@Z=C:/Windows/System32/DUI70.?OnEvent@Selector@DirectUI@@UEAAXPEAUEvent@2@@Z @2706
    ?OnEvent@SelectorNoDefault@DirectUI@@UEAAXPEAUEvent@2@@Z=C:/Windows/System32/DUI70.?OnEvent@SelectorNoDefault@DirectUI@@UEAAXPEAUEvent@2@@Z @2707
    ?OnEvent@TouchButton@DirectUI@@UEAAXPEAUEvent@2@@Z=C:/Windows/System32/DUI70.?OnEvent@TouchButton@DirectUI@@UEAAXPEAUEvent@2@@Z @2708
    ?OnEvent@TouchCheckBox@DirectUI@@UEAAXPEAUEvent@2@@Z=C:/Windows/System32/DUI70.?OnEvent@TouchCheckBox@DirectUI@@UEAAXPEAUEvent@2@@Z @2709
    ?OnEvent@TouchEdit2@DirectUI@@UEAAXPEAUEvent@2@@Z=C:/Windows/System32/DUI70.?OnEvent@TouchEdit2@DirectUI@@UEAAXPEAUEvent@2@@Z @2710
    ?OnEvent@TouchHWNDElement@DirectUI@@UEAAXPEAUEvent@2@@Z=C:/Windows/System32/DUI70.?OnEvent@TouchHWNDElement@DirectUI@@UEAAXPEAUEvent@2@@Z @2711
    ?OnEvent@TouchScrollBar@DirectUI@@UEAAXPEAUEvent@2@@Z=C:/Windows/System32/DUI70.?OnEvent@TouchScrollBar@DirectUI@@UEAAXPEAUEvent@2@@Z @2712
    ?OnEvent@TouchSelect@DirectUI@@UEAAXPEAUEvent@2@@Z=C:/Windows/System32/DUI70.?OnEvent@TouchSelect@DirectUI@@UEAAXPEAUEvent@2@@Z @2713
    ?OnEvent@Viewer@DirectUI@@UEAAXPEAUEvent@2@@Z=C:/Windows/System32/DUI70.?OnEvent@Viewer@DirectUI@@UEAAXPEAUEvent@2@@Z @2714
    ?OnEvent@XBaby@DirectUI@@UEAAXPEAUEvent@2@@Z=C:/Windows/System32/DUI70.?OnEvent@XBaby@DirectUI@@UEAAXPEAUEvent@2@@Z @2715
    ?OnEvent@XElement@DirectUI@@UEAAXPEAUEvent@2@@Z=C:/Windows/System32/DUI70.?OnEvent@XElement@DirectUI@@UEAAXPEAUEvent@2@@Z @2716
    ?OnGetDlgCode@DialogElement@DirectUI@@UEAAXPEAUtagMSG@@PEA_J@Z=C:/Windows/System32/DUI70.?OnGetDlgCode@DialogElement@DirectUI@@UEAAXPEAUtagMSG@@PEA_J@Z @2717
    ?OnGetDlgCode@DialogElementCore@DirectUI@@QEAAXPEAUtagMSG@@PEA_J@Z=C:/Windows/System32/DUI70.?OnGetDlgCode@DialogElementCore@DirectUI@@QEAAXPEAUtagMSG@@PEA_J@Z @2718
    ?OnGetDlgCode@HWNDElement@DirectUI@@UEAAXPEAUtagMSG@@PEA_J@Z=C:/Windows/System32/DUI70.?OnGetDlgCode@HWNDElement@DirectUI@@UEAAXPEAUtagMSG@@PEA_J@Z @2719
    ?OnGroupChanged@Element@DirectUI@@UEAAXH_N@Z=C:/Windows/System32/DUI70.?OnGroupChanged@Element@DirectUI@@UEAAXH_N@Z @2720
    ?OnGroupChanged@HWNDElement@DirectUI@@UEAAXH_N@Z=C:/Windows/System32/DUI70.?OnGroupChanged@HWNDElement@DirectUI@@UEAAXH_N@Z @2721
    ?OnHosted@Combobox@DirectUI@@UEAAXPEAVElement@2@@Z=C:/Windows/System32/DUI70.?OnHosted@Combobox@DirectUI@@UEAAXPEAVElement@2@@Z @2722
    ?OnHosted@Element@DirectUI@@MEAAXPEAV12@@Z=C:/Windows/System32/DUI70.?OnHosted@Element@DirectUI@@MEAAXPEAV12@@Z @2723
    ?OnHosted@HWNDHost@DirectUI@@MEAAXPEAVElement@2@@Z=C:/Windows/System32/DUI70.?OnHosted@HWNDHost@DirectUI@@MEAAXPEAVElement@2@@Z @2724
    ?OnHosted@ModernProgressBar@DirectUI@@MEAAXPEAVElement@2@@Z=C:/Windows/System32/DUI70.?OnHosted@ModernProgressBar@DirectUI@@MEAAXPEAVElement@2@@Z @2725
    ?OnHosted@ModernProgressRing@DirectUI@@MEAAXPEAVElement@2@@Z=C:/Windows/System32/DUI70.?OnHosted@ModernProgressRing@DirectUI@@MEAAXPEAVElement@2@@Z @2726
    ?OnHosted@Movie@DirectUI@@UEAAXPEAVElement@2@@Z=C:/Windows/System32/DUI70.?OnHosted@Movie@DirectUI@@UEAAXPEAVElement@2@@Z @2727
    ?OnHosted@PushButton@DirectUI@@UEAAXPEAVElement@2@@Z=C:/Windows/System32/DUI70.?OnHosted@PushButton@DirectUI@@UEAAXPEAVElement@2@@Z @2728
    ?OnHosted@RichText@DirectUI@@UEAAXPEAVElement@2@@Z=C:/Windows/System32/DUI70.?OnHosted@RichText@DirectUI@@UEAAXPEAVElement@2@@Z @2729
    ?OnHosted@TouchButton@DirectUI@@UEAAXPEAVElement@2@@Z=C:/Windows/System32/DUI70.?OnHosted@TouchButton@DirectUI@@UEAAXPEAVElement@2@@Z @2730
    ?OnHosted@TouchEdit2@DirectUI@@UEAAXPEAVElement@2@@Z=C:/Windows/System32/DUI70.?OnHosted@TouchEdit2@DirectUI@@UEAAXPEAVElement@2@@Z @2731
    ?OnHosted@TouchScrollBar@DirectUI@@UEAAXPEAVElement@2@@Z=C:/Windows/System32/DUI70.?OnHosted@TouchScrollBar@DirectUI@@UEAAXPEAVElement@2@@Z @2732
    ?OnHosted@TouchSelect@DirectUI@@UEAAXPEAVElement@2@@Z=C:/Windows/System32/DUI70.?OnHosted@TouchSelect@DirectUI@@UEAAXPEAVElement@2@@Z @2733
    ?OnImmersiveColorSchemeChanged@HWNDElement@DirectUI@@UEAAXXZ=C:/Windows/System32/DUI70.?OnImmersiveColorSchemeChanged@HWNDElement@DirectUI@@UEAAXXZ @2734
    ?OnInput@BaseScrollViewer@DirectUI@@UEAAXPEAUInputEvent@2@@Z=C:/Windows/System32/DUI70.?OnInput@BaseScrollViewer@DirectUI@@UEAAXPEAUInputEvent@2@@Z @2735
    ?OnInput@Button@DirectUI@@UEAAXPEAUInputEvent@2@@Z=C:/Windows/System32/DUI70.?OnInput@Button@DirectUI@@UEAAXPEAUInputEvent@2@@Z @2736
    ?OnInput@CCBase@DirectUI@@UEAAXPEAUInputEvent@2@@Z=C:/Windows/System32/DUI70.?OnInput@CCBase@DirectUI@@UEAAXPEAUInputEvent@2@@Z @2737
    ?OnInput@CCCheckBox@DirectUI@@UEAAXPEAUInputEvent@2@@Z=C:/Windows/System32/DUI70.?OnInput@CCCheckBox@DirectUI@@UEAAXPEAUInputEvent@2@@Z @2738
    ?OnInput@CCProgressBar@DirectUI@@UEAAXPEAUInputEvent@2@@Z=C:/Windows/System32/DUI70.?OnInput@CCProgressBar@DirectUI@@UEAAXPEAUInputEvent@2@@Z @2739
    ?OnInput@CCPushButton@DirectUI@@UEAAXPEAUInputEvent@2@@Z=C:/Windows/System32/DUI70.?OnInput@CCPushButton@DirectUI@@UEAAXPEAUInputEvent@2@@Z @2740
    ?OnInput@CCRadioButton@DirectUI@@UEAAXPEAUInputEvent@2@@Z=C:/Windows/System32/DUI70.?OnInput@CCRadioButton@DirectUI@@UEAAXPEAUInputEvent@2@@Z @2741
    ?OnInput@CCSysLink@DirectUI@@UEAAXPEAUInputEvent@2@@Z=C:/Windows/System32/DUI70.?OnInput@CCSysLink@DirectUI@@UEAAXPEAUInputEvent@2@@Z @2742
    ?OnInput@Combobox@DirectUI@@UEAAXPEAUInputEvent@2@@Z=C:/Windows/System32/DUI70.?OnInput@Combobox@DirectUI@@UEAAXPEAUInputEvent@2@@Z @2743
    ?OnInput@DialogElement@DirectUI@@UEAAXPEAUInputEvent@2@@Z=C:/Windows/System32/DUI70.?OnInput@DialogElement@DirectUI@@UEAAXPEAUInputEvent@2@@Z @2744
    ?OnInput@DialogElementCore@DirectUI@@QEAAXPEAUInputEvent@2@@Z=C:/Windows/System32/DUI70.?OnInput@DialogElementCore@DirectUI@@QEAAXPEAUInputEvent@2@@Z @2745
    ?OnInput@Edit@DirectUI@@UEAAXPEAUInputEvent@2@@Z=C:/Windows/System32/DUI70.?OnInput@Edit@DirectUI@@UEAAXPEAUInputEvent@2@@Z @2746
    ?OnInput@Element@DirectUI@@UEAAXPEAUInputEvent@2@@Z=C:/Windows/System32/DUI70.?OnInput@Element@DirectUI@@UEAAXPEAUInputEvent@2@@Z @2747
    ?OnInput@HWNDElement@DirectUI@@UEAAXPEAUInputEvent@2@@Z=C:/Windows/System32/DUI70.?OnInput@HWNDElement@DirectUI@@UEAAXPEAUInputEvent@2@@Z @2748
    ?OnInput@HWNDHost@DirectUI@@UEAAXPEAUInputEvent@2@@Z=C:/Windows/System32/DUI70.?OnInput@HWNDHost@DirectUI@@UEAAXPEAUInputEvent@2@@Z @2749
    ?OnInput@RepeatButton@DirectUI@@UEAAXPEAUInputEvent@2@@Z=C:/Windows/System32/DUI70.?OnInput@RepeatButton@DirectUI@@UEAAXPEAUInputEvent@2@@Z @2750
    ?OnInput@Selector@DirectUI@@UEAAXPEAUInputEvent@2@@Z=C:/Windows/System32/DUI70.?OnInput@Selector@DirectUI@@UEAAXPEAUInputEvent@2@@Z @2751
    ?OnInput@Thumb@DirectUI@@UEAAXPEAUInputEvent@2@@Z=C:/Windows/System32/DUI70.?OnInput@Thumb@DirectUI@@UEAAXPEAUInputEvent@2@@Z @2752
    ?OnInput@TouchButton@DirectUI@@UEAAXPEAUInputEvent@2@@Z=C:/Windows/System32/DUI70.?OnInput@TouchButton@DirectUI@@UEAAXPEAUInputEvent@2@@Z @2753
    ?OnInput@TouchEdit2@DirectUI@@UEAAXPEAUInputEvent@2@@Z=C:/Windows/System32/DUI70.?OnInput@TouchEdit2@DirectUI@@UEAAXPEAUInputEvent@2@@Z @2754
    ?OnInput@TouchHWNDElement@DirectUI@@UEAAXPEAUInputEvent@2@@Z=C:/Windows/System32/DUI70.?OnInput@TouchHWNDElement@DirectUI@@UEAAXPEAUInputEvent@2@@Z @2755
    ?OnInput@TouchScrollBar@DirectUI@@UEAAXPEAUInputEvent@2@@Z=C:/Windows/System32/DUI70.?OnInput@TouchScrollBar@DirectUI@@UEAAXPEAUInputEvent@2@@Z @2756
    ?OnInput@TouchSelect@DirectUI@@UEAAXPEAUInputEvent@2@@Z=C:/Windows/System32/DUI70.?OnInput@TouchSelect@DirectUI@@UEAAXPEAUInputEvent@2@@Z @2757
    ?OnInput@Viewer@DirectUI@@UEAAXPEAUInputEvent@2@@Z=C:/Windows/System32/DUI70.?OnInput@Viewer@DirectUI@@UEAAXPEAUInputEvent@2@@Z @2758
    ?OnInput@XElement@DirectUI@@UEAAXPEAUInputEvent@2@@Z=C:/Windows/System32/DUI70.?OnInput@XElement@DirectUI@@UEAAXPEAUInputEvent@2@@Z @2759
    ?OnInvoke@InvokeHelper@DirectUI@@AEAAXPEAUInvokeArgs@12@@Z=C:/Windows/System32/DUI70.?OnInvoke@InvokeHelper@DirectUI@@AEAAXPEAUInvokeArgs@12@@Z @2760
    ?OnInvoke@Proxy@DirectUI@@MEAAXIPEAX@Z=C:/Windows/System32/DUI70.?OnInvoke@Proxy@DirectUI@@MEAAXIPEAX@Z @2761
    ?OnKeyFocusMoved@DialogElement@DirectUI@@UEAAXPEAVElement@2@0@Z=C:/Windows/System32/DUI70.?OnKeyFocusMoved@DialogElement@DirectUI@@UEAAXPEAVElement@2@0@Z @2762
    ?OnKeyFocusMoved@DialogElementCore@DirectUI@@QEAAXPEAVElement@2@0@Z=C:/Windows/System32/DUI70.?OnKeyFocusMoved@DialogElementCore@DirectUI@@QEAAXPEAVElement@2@0@Z @2763
    ?OnKeyFocusMoved@Element@DirectUI@@UEAAXPEAV12@0@Z=C:/Windows/System32/DUI70.?OnKeyFocusMoved@Element@DirectUI@@UEAAXPEAV12@0@Z @2764
    ?OnKeyFocusMoved@Selector@DirectUI@@UEAAXPEAVElement@2@0@Z=C:/Windows/System32/DUI70.?OnKeyFocusMoved@Selector@DirectUI@@UEAAXPEAVElement@2@0@Z @2765
    ?OnKeyFocusMoved@SelectorNoDefault@DirectUI@@UEAAXPEAVElement@2@0@Z=C:/Windows/System32/DUI70.?OnKeyFocusMoved@SelectorNoDefault@DirectUI@@UEAAXPEAVElement@2@0@Z @2766
    ?OnKeyFocusMoved@TouchHWNDElement@DirectUI@@UEAAXPEAVElement@2@0@Z=C:/Windows/System32/DUI70.?OnKeyFocusMoved@TouchHWNDElement@DirectUI@@UEAAXPEAVElement@2@0@Z @2767
    ?OnKillActive@TaskPage@DirectUI@@MEAA_JXZ=C:/Windows/System32/DUI70.?OnKillActive@TaskPage@DirectUI@@MEAA_JXZ @2768
    ?OnLayoutPosChanged@BorderLayout@DirectUI@@UEAAXPEAVElement@2@0HH@Z=C:/Windows/System32/DUI70.?OnLayoutPosChanged@BorderLayout@DirectUI@@UEAAXPEAVElement@2@0HH@Z @2769
    ?OnLayoutPosChanged@Layout@DirectUI@@UEAAXPEAVElement@2@0HH@Z=C:/Windows/System32/DUI70.?OnLayoutPosChanged@Layout@DirectUI@@UEAAXPEAVElement@2@0HH@Z @2770
    ?OnLayoutPosChanged@NineGridLayout@DirectUI@@UEAAXPEAVElement@2@0HH@Z=C:/Windows/System32/DUI70.?OnLayoutPosChanged@NineGridLayout@DirectUI@@UEAAXPEAVElement@2@0HH@Z @2771
    ?OnLayoutPosChanged@ShellBorderLayout@DirectUI@@UEAAXPEAVElement@2@0HH@Z=C:/Windows/System32/DUI70.?OnLayoutPosChanged@ShellBorderLayout@DirectUI@@UEAAXPEAVElement@2@0HH@Z @2772
    ?OnListenedEvent@BaseScrollViewer@DirectUI@@UEAAXPEAVElement@2@PEAUEvent@2@@Z=C:/Windows/System32/DUI70.?OnListenedEvent@BaseScrollViewer@DirectUI@@UEAAXPEAVElement@2@PEAUEvent@2@@Z @2773
    ?OnListenedEvent@DialogElement@DirectUI@@UEAAXPEAVElement@2@PEAUEvent@2@@Z=C:/Windows/System32/DUI70.?OnListenedEvent@DialogElement@DirectUI@@UEAAXPEAVElement@2@PEAUEvent@2@@Z @2774
    ?OnListenedEvent@TaskPage@DirectUI@@MEAAXPEAVElement@2@PEAUEvent@2@@Z=C:/Windows/System32/DUI70.?OnListenedEvent@TaskPage@DirectUI@@MEAAXPEAVElement@2@PEAUEvent@2@@Z @2775
    ?OnListenedInput@BaseScrollViewer@DirectUI@@UEAAXPEAVElement@2@PEAUInputEvent@2@@Z=C:/Windows/System32/DUI70.?OnListenedInput@BaseScrollViewer@DirectUI@@UEAAXPEAVElement@2@PEAUInputEvent@2@@Z @2776
    ?OnListenedInput@DialogElement@DirectUI@@UEAAXPEAVElement@2@PEAUInputEvent@2@@Z=C:/Windows/System32/DUI70.?OnListenedInput@DialogElement@DirectUI@@UEAAXPEAVElement@2@PEAUInputEvent@2@@Z @2777
    ?OnListenedInput@TaskPage@DirectUI@@MEAAXPEAVElement@2@PEAUInputEvent@2@@Z=C:/Windows/System32/DUI70.?OnListenedInput@TaskPage@DirectUI@@MEAAXPEAVElement@2@PEAUInputEvent@2@@Z @2778
    ?OnListenedPropertyChanged@BaseScrollViewer@DirectUI@@UEAAXPEAVElement@2@PEBUPropertyInfo@2@HPEAVValue@2@2@Z=C:/Windows/System32/DUI70.?OnListenedPropertyChanged@BaseScrollViewer@DirectUI@@UEAAXPEAVElement@2@PEBUPropertyInfo@2@HPEAVValue@2@2@Z @2779
    ?OnListenedPropertyChanged@DialogElement@DirectUI@@UEAAXPEAVElement@2@PEBUPropertyInfo@2@HPEAVValue@2@2@Z=C:/Windows/System32/DUI70.?OnListenedPropertyChanged@DialogElement@DirectUI@@UEAAXPEAVElement@2@PEBUPropertyInfo@2@HPEAVValue@2@2@Z @2780
    ?OnListenedPropertyChanged@ScrollViewer@DirectUI@@UEAAXPEAVElement@2@PEBUPropertyInfo@2@HPEAVValue@2@2@Z=C:/Windows/System32/DUI70.?OnListenedPropertyChanged@ScrollViewer@DirectUI@@UEAAXPEAVElement@2@PEBUPropertyInfo@2@HPEAVValue@2@2@Z @2781
    ?OnListenedPropertyChanged@StyledScrollViewer@DirectUI@@UEAAXPEAVElement@2@PEBUPropertyInfo@2@HPEAVValue@2@2@Z=C:/Windows/System32/DUI70.?OnListenedPropertyChanged@StyledScrollViewer@DirectUI@@UEAAXPEAVElement@2@PEBUPropertyInfo@2@HPEAVValue@2@2@Z @2782
    ?OnListenedPropertyChanged@TaskPage@DirectUI@@MEAAXPEAVElement@2@PEBUPropertyInfo@2@HPEAVValue@2@2@Z=C:/Windows/System32/DUI70.?OnListenedPropertyChanged@TaskPage@DirectUI@@MEAAXPEAVElement@2@PEBUPropertyInfo@2@HPEAVValue@2@2@Z @2783
    ?OnListenedPropertyChanged@TouchEdit2@DirectUI@@EEAAXPEAVElement@2@PEBUPropertyInfo@2@HPEAVValue@2@2@Z=C:/Windows/System32/DUI70.?OnListenedPropertyChanged@TouchEdit2@DirectUI@@EEAAXPEAVElement@2@PEBUPropertyInfo@2@HPEAVValue@2@2@Z @2784
    ?OnListenedPropertyChanging@BaseScrollViewer@DirectUI@@UEAA_NPEAVElement@2@PEBUPropertyInfo@2@HPEAVValue@2@2@Z=C:/Windows/System32/DUI70.?OnListenedPropertyChanging@BaseScrollViewer@DirectUI@@UEAA_NPEAVElement@2@PEBUPropertyInfo@2@HPEAVValue@2@2@Z @2785
    ?OnListenedPropertyChanging@DialogElement@DirectUI@@UEAA_NPEAVElement@2@PEBUPropertyInfo@2@HPEAVValue@2@2@Z=C:/Windows/System32/DUI70.?OnListenedPropertyChanging@DialogElement@DirectUI@@UEAA_NPEAVElement@2@PEBUPropertyInfo@2@HPEAVValue@2@2@Z @2786
    ?OnListenedPropertyChanging@TaskPage@DirectUI@@MEAA_NPEAVElement@2@PEBUPropertyInfo@2@HPEAVValue@2@2@Z=C:/Windows/System32/DUI70.?OnListenedPropertyChanging@TaskPage@DirectUI@@MEAA_NPEAVElement@2@PEBUPropertyInfo@2@HPEAVValue@2@2@Z @2787
    ?OnListenerAttach@BaseScrollViewer@DirectUI@@UEAAXPEAVElement@2@@Z=C:/Windows/System32/DUI70.?OnListenerAttach@BaseScrollViewer@DirectUI@@UEAAXPEAVElement@2@@Z @2788
    ?OnListenerAttach@DialogElement@DirectUI@@UEAAXPEAVElement@2@@Z=C:/Windows/System32/DUI70.?OnListenerAttach@DialogElement@DirectUI@@UEAAXPEAVElement@2@@Z @2789
    ?OnListenerAttach@TaskPage@DirectUI@@MEAAXPEAVElement@2@@Z=C:/Windows/System32/DUI70.?OnListenerAttach@TaskPage@DirectUI@@MEAAXPEAVElement@2@@Z @2790
    ?OnListenerDetach@BaseScrollViewer@DirectUI@@UEAAXPEAVElement@2@@Z=C:/Windows/System32/DUI70.?OnListenerDetach@BaseScrollViewer@DirectUI@@UEAAXPEAVElement@2@@Z @2791
    ?OnListenerDetach@DialogElement@DirectUI@@UEAAXPEAVElement@2@@Z=C:/Windows/System32/DUI70.?OnListenerDetach@DialogElement@DirectUI@@UEAAXPEAVElement@2@@Z @2792
    ?OnListenerDetach@DialogElementCore@DirectUI@@QEAAXPEAVElement@2@@Z=C:/Windows/System32/DUI70.?OnListenerDetach@DialogElementCore@DirectUI@@QEAAXPEAVElement@2@@Z @2793
    ?OnListenerDetach@TaskPage@DirectUI@@MEAAXPEAVElement@2@@Z=C:/Windows/System32/DUI70.?OnListenerDetach@TaskPage@DirectUI@@MEAAXPEAVElement@2@@Z @2794
    ?OnListenerDetach@TouchEdit2@DirectUI@@EEAAXPEAVElement@2@@Z=C:/Windows/System32/DUI70.?OnListenerDetach@TouchEdit2@DirectUI@@EEAAXPEAVElement@2@@Z @2795
    ?OnLostDialogFocus@Button@DirectUI@@UEAA_NPEAUIDialogElement@2@@Z=C:/Windows/System32/DUI70.?OnLostDialogFocus@Button@DirectUI@@UEAA_NPEAUIDialogElement@2@@Z @2796
    ?OnLostDialogFocus@CCBase@DirectUI@@UEAA_NPEAUIDialogElement@2@@Z=C:/Windows/System32/DUI70.?OnLostDialogFocus@CCBase@DirectUI@@UEAA_NPEAUIDialogElement@2@@Z @2797
    ?OnLostDialogFocus@CCBaseCheckRadioButton@DirectUI@@UEAA_NPEAUIDialogElement@2@@Z=C:/Windows/System32/DUI70.?OnLostDialogFocus@CCBaseCheckRadioButton@DirectUI@@UEAA_NPEAUIDialogElement@2@@Z @2798
    ?OnLostDialogFocus@CCPushButton@DirectUI@@UEAA_NPEAUIDialogElement@2@@Z=C:/Windows/System32/DUI70.?OnLostDialogFocus@CCPushButton@DirectUI@@UEAA_NPEAUIDialogElement@2@@Z @2799
    ?OnLostDialogFocus@CCSysLink@DirectUI@@UEAA_NPEAUIDialogElement@2@@Z=C:/Windows/System32/DUI70.?OnLostDialogFocus@CCSysLink@DirectUI@@UEAA_NPEAUIDialogElement@2@@Z @2800
    ?OnLostDialogFocus@CheckBoxGlyph@DirectUI@@UEAA_NPEAUIDialogElement@2@@Z=C:/Windows/System32/DUI70.?OnLostDialogFocus@CheckBoxGlyph@DirectUI@@UEAA_NPEAUIDialogElement@2@@Z @2801
    ?OnLostDialogFocus@ExpandoButtonGlyph@DirectUI@@UEAA_NPEAUIDialogElement@2@@Z=C:/Windows/System32/DUI70.?OnLostDialogFocus@ExpandoButtonGlyph@DirectUI@@UEAA_NPEAUIDialogElement@2@@Z @2802
    ?OnLostDialogFocus@RadioButtonGlyph@DirectUI@@UEAA_NPEAUIDialogElement@2@@Z=C:/Windows/System32/DUI70.?OnLostDialogFocus@RadioButtonGlyph@DirectUI@@UEAA_NPEAUIDialogElement@2@@Z @2803
    ?OnMaximumChanged@BaseScrollBar@DirectUI@@QEAAXPEAVValue@2@@Z=C:/Windows/System32/DUI70.?OnMaximumChanged@BaseScrollBar@DirectUI@@QEAAXPEAVValue@2@@Z @2804
    ?OnMessage@CCBaseScrollBar@DirectUI@@UEAA_NI_K_JPEA_J@Z=C:/Windows/System32/DUI70.?OnMessage@CCBaseScrollBar@DirectUI@@UEAA_NI_K_JPEA_J@Z @2805
    ?OnMessage@CCPushButton@DirectUI@@UEAA_NI_K_JPEA_J@Z=C:/Windows/System32/DUI70.?OnMessage@CCPushButton@DirectUI@@UEAA_NI_K_JPEA_J@Z @2806
    ?OnMessage@CCTrackBar@DirectUI@@UEAA_NI_K_JPEA_J@Z=C:/Windows/System32/DUI70.?OnMessage@CCTrackBar@DirectUI@@UEAA_NI_K_JPEA_J@Z @2807
    ?OnMessage@HWNDHost@DirectUI@@UEAA_NI_K_JPEA_J@Z=C:/Windows/System32/DUI70.?OnMessage@HWNDHost@DirectUI@@UEAA_NI_K_JPEA_J@Z @2808
    ?OnMessage@NativeHWNDHost@DirectUI@@UEAAJI_K_JPEA_J@Z=C:/Windows/System32/DUI70.?OnMessage@NativeHWNDHost@DirectUI@@UEAAJI_K_JPEA_J@Z @2809
    ?OnMessage@TaskPage@DirectUI@@MEAA_NI_K_JPEA_J@Z=C:/Windows/System32/DUI70.?OnMessage@TaskPage@DirectUI@@MEAA_NI_K_JPEA_J@Z @2810
    ?OnMessage@XElement@DirectUI@@UEAA_NI_K_JPEA_J@Z=C:/Windows/System32/DUI70.?OnMessage@XElement@DirectUI@@UEAA_NI_K_JPEA_J@Z @2811
    ?OnMinimumChanged@BaseScrollBar@DirectUI@@QEAAXPEAVValue@2@@Z=C:/Windows/System32/DUI70.?OnMinimumChanged@BaseScrollBar@DirectUI@@QEAAXPEAVValue@2@@Z @2812
    ?OnMouseFocusMoved@Element@DirectUI@@UEAAXPEAV12@0@Z=C:/Windows/System32/DUI70.?OnMouseFocusMoved@Element@DirectUI@@UEAAXPEAV12@0@Z @2813
    ?OnNoChildWithShortcutFound@HWNDElement@DirectUI@@UEAAXPEAUKeyboardEvent@2@@Z=C:/Windows/System32/DUI70.?OnNoChildWithShortcutFound@HWNDElement@DirectUI@@UEAAXPEAUKeyboardEvent@2@@Z @2814
    ?OnNoChildWithShortcutFound@XBaby@DirectUI@@UEAAXPEAUKeyboardEvent@2@@Z=C:/Windows/System32/DUI70.?OnNoChildWithShortcutFound@XBaby@DirectUI@@UEAAXPEAUKeyboardEvent@2@@Z @2815
    ?OnNotify@CCBase@DirectUI@@UEAA_NI_K_JPEA_J@Z=C:/Windows/System32/DUI70.?OnNotify@CCBase@DirectUI@@UEAA_NI_K_JPEA_J@Z @2816
    ?OnNotify@CCCheckBox@DirectUI@@UEAA_NI_K_JPEA_J@Z=C:/Windows/System32/DUI70.?OnNotify@CCCheckBox@DirectUI@@UEAA_NI_K_JPEA_J@Z @2817
    ?OnNotify@CCPushButton@DirectUI@@UEAA_NI_K_JPEA_J@Z=C:/Windows/System32/DUI70.?OnNotify@CCPushButton@DirectUI@@UEAA_NI_K_JPEA_J@Z @2818
    ?OnNotify@CCRadioButton@DirectUI@@UEAA_NI_K_JPEA_J@Z=C:/Windows/System32/DUI70.?OnNotify@CCRadioButton@DirectUI@@UEAA_NI_K_JPEA_J@Z @2819
    ?OnNotify@CCTreeView@DirectUI@@UEAA_NI_K_JPEA_J@Z=C:/Windows/System32/DUI70.?OnNotify@CCTreeView@DirectUI@@UEAA_NI_K_JPEA_J@Z @2820
    ?OnNotify@Combobox@DirectUI@@UEAA_NI_K_JPEA_J@Z=C:/Windows/System32/DUI70.?OnNotify@Combobox@DirectUI@@UEAA_NI_K_JPEA_J@Z @2821
    ?OnNotify@Edit@DirectUI@@UEAA_NI_K_JPEA_J@Z=C:/Windows/System32/DUI70.?OnNotify@Edit@DirectUI@@UEAA_NI_K_JPEA_J@Z @2822
    ?OnNotify@HWNDHost@DirectUI@@UEAA_NI_K_JPEA_J@Z=C:/Windows/System32/DUI70.?OnNotify@HWNDHost@DirectUI@@UEAA_NI_K_JPEA_J@Z @2823
    ?OnPageChanged@BaseScrollBar@DirectUI@@QEAAXPEAVValue@2@@Z=C:/Windows/System32/DUI70.?OnPageChanged@BaseScrollBar@DirectUI@@QEAAXPEAVValue@2@@Z @2824
    ?OnPageChanging@BaseScrollBar@DirectUI@@QEAA_NPEAVValue@2@@Z=C:/Windows/System32/DUI70.?OnPageChanging@BaseScrollBar@DirectUI@@QEAA_NPEAVValue@2@@Z @2825
    ?OnPositionChanged@BaseScrollBar@DirectUI@@QEAAXPEAVValue@2@@Z=C:/Windows/System32/DUI70.?OnPositionChanged@BaseScrollBar@DirectUI@@QEAAXPEAVValue@2@@Z @2826
    ?OnPositionChanging@BaseScrollBar@DirectUI@@QEAA_NPEAVValue@2@@Z=C:/Windows/System32/DUI70.?OnPositionChanging@BaseScrollBar@DirectUI@@QEAA_NPEAVValue@2@@Z @2827
    ?OnPropertyChanged@AccessibleButton@DirectUI@@UEAAXPEBUPropertyInfo@2@HPEAVValue@2@1@Z=C:/Windows/System32/DUI70.?OnPropertyChanged@AccessibleButton@DirectUI@@UEAAXPEBUPropertyInfo@2@HPEAVValue@2@1@Z @2828
    ?OnPropertyChanged@AnimationStrip@DirectUI@@MEAAXPEBUPropertyInfo@2@HPEAVValue@2@1@Z=C:/Windows/System32/DUI70.?OnPropertyChanged@AnimationStrip@DirectUI@@MEAAXPEBUPropertyInfo@2@HPEAVValue@2@1@Z @2829
    ?OnPropertyChanged@BaseScrollViewer@DirectUI@@UEAAXPEBUPropertyInfo@2@HPEAVValue@2@1@Z=C:/Windows/System32/DUI70.?OnPropertyChanged@BaseScrollViewer@DirectUI@@UEAAXPEBUPropertyInfo@2@HPEAVValue@2@1@Z @2830
    ?OnPropertyChanged@Browser@DirectUI@@UEAAXPEBUPropertyInfo@2@HPEAVValue@2@1@Z=C:/Windows/System32/DUI70.?OnPropertyChanged@Browser@DirectUI@@UEAAXPEBUPropertyInfo@2@HPEAVValue@2@1@Z @2831
    ?OnPropertyChanged@Button@DirectUI@@UEAAXPEBUPropertyInfo@2@HPEAVValue@2@1@Z=C:/Windows/System32/DUI70.?OnPropertyChanged@Button@DirectUI@@UEAAXPEBUPropertyInfo@2@HPEAVValue@2@1@Z @2832
    ?OnPropertyChanged@CCBase@DirectUI@@UEAAXPEBUPropertyInfo@2@HPEAVValue@2@1@Z=C:/Windows/System32/DUI70.?OnPropertyChanged@CCBase@DirectUI@@UEAAXPEBUPropertyInfo@2@HPEAVValue@2@1@Z @2833
    ?OnPropertyChanged@CCBaseCheckRadioButton@DirectUI@@UEAAXPEBUPropertyInfo@2@HPEAVValue@2@1@Z=C:/Windows/System32/DUI70.?OnPropertyChanged@CCBaseCheckRadioButton@DirectUI@@UEAAXPEBUPropertyInfo@2@HPEAVValue@2@1@Z @2834
    ?OnPropertyChanged@CCBaseScrollBar@DirectUI@@UEAAXPEBUPropertyInfo@2@HPEAVValue@2@1@Z=C:/Windows/System32/DUI70.?OnPropertyChanged@CCBaseScrollBar@DirectUI@@UEAAXPEBUPropertyInfo@2@HPEAVValue@2@1@Z @2835
    ?OnPropertyChanged@CCCommandLink@DirectUI@@UEAAXPEBUPropertyInfo@2@HPEAVValue@2@1@Z=C:/Windows/System32/DUI70.?OnPropertyChanged@CCCommandLink@DirectUI@@UEAAXPEBUPropertyInfo@2@HPEAVValue@2@1@Z @2836
    ?OnPropertyChanged@CCPushButton@DirectUI@@UEAAXPEBUPropertyInfo@2@HPEAVValue@2@1@Z=C:/Windows/System32/DUI70.?OnPropertyChanged@CCPushButton@DirectUI@@UEAAXPEBUPropertyInfo@2@HPEAVValue@2@1@Z @2837
    ?OnPropertyChanged@CCTrackBar@DirectUI@@UEAAXPEBUPropertyInfo@2@HPEAVValue@2@1@Z=C:/Windows/System32/DUI70.?OnPropertyChanged@CCTrackBar@DirectUI@@UEAAXPEBUPropertyInfo@2@HPEAVValue@2@1@Z @2838
    ?OnPropertyChanged@Combobox@DirectUI@@UEAAXPEBUPropertyInfo@2@HPEAVValue@2@1@Z=C:/Windows/System32/DUI70.?OnPropertyChanged@Combobox@DirectUI@@UEAAXPEBUPropertyInfo@2@HPEAVValue@2@1@Z @2839
    ?OnPropertyChanged@DialogElement@DirectUI@@UEAAXPEBUPropertyInfo@2@HPEAVValue@2@1@Z=C:/Windows/System32/DUI70.?OnPropertyChanged@DialogElement@DirectUI@@UEAAXPEBUPropertyInfo@2@HPEAVValue@2@1@Z @2840
    ?OnPropertyChanged@Edit@DirectUI@@UEAAXPEBUPropertyInfo@2@HPEAVValue@2@1@Z=C:/Windows/System32/DUI70.?OnPropertyChanged@Edit@DirectUI@@UEAAXPEBUPropertyInfo@2@HPEAVValue@2@1@Z @2841
    ?OnPropertyChanged@Element@DirectUI@@UEAAXPEAUPropertyInfo@2@HPEAVValue@2@1@Z=C:/Windows/System32/DUI70.?OnPropertyChanged@Element@DirectUI@@UEAAXPEAUPropertyInfo@2@HPEAVValue@2@1@Z @2842
    ?OnPropertyChanged@Element@DirectUI@@UEAAXPEBUPropertyInfo@2@HPEAVValue@2@1@Z=C:/Windows/System32/DUI70.?OnPropertyChanged@Element@DirectUI@@UEAAXPEBUPropertyInfo@2@HPEAVValue@2@1@Z @2843
    ?OnPropertyChanged@Expando@DirectUI@@UEAAXPEBUPropertyInfo@2@HPEAVValue@2@1@Z=C:/Windows/System32/DUI70.?OnPropertyChanged@Expando@DirectUI@@UEAAXPEBUPropertyInfo@2@HPEAVValue@2@1@Z @2844
    ?OnPropertyChanged@HWNDElement@DirectUI@@UEAAXPEBUPropertyInfo@2@HPEAVValue@2@1@Z=C:/Windows/System32/DUI70.?OnPropertyChanged@HWNDElement@DirectUI@@UEAAXPEBUPropertyInfo@2@HPEAVValue@2@1@Z @2845
    ?OnPropertyChanged@HWNDHost@DirectUI@@UEAAXPEBUPropertyInfo@2@HPEAVValue@2@1@Z=C:/Windows/System32/DUI70.?OnPropertyChanged@HWNDHost@DirectUI@@UEAAXPEBUPropertyInfo@2@HPEAVValue@2@1@Z @2846
    ?OnPropertyChanged@ItemList@DirectUI@@UEAAXPEBUPropertyInfo@2@HPEAVValue@2@1@Z=C:/Windows/System32/DUI70.?OnPropertyChanged@ItemList@DirectUI@@UEAAXPEBUPropertyInfo@2@HPEAVValue@2@1@Z @2847
    ?OnPropertyChanged@Macro@DirectUI@@UEAAXPEBUPropertyInfo@2@HPEAVValue@2@1@Z=C:/Windows/System32/DUI70.?OnPropertyChanged@Macro@DirectUI@@UEAAXPEBUPropertyInfo@2@HPEAVValue@2@1@Z @2848
    ?OnPropertyChanged@ModernProgressBar@DirectUI@@MEAAXPEBUPropertyInfo@2@HPEAVValue@2@1@Z=C:/Windows/System32/DUI70.?OnPropertyChanged@ModernProgressBar@DirectUI@@MEAAXPEBUPropertyInfo@2@HPEAVValue@2@1@Z @2849
    ?OnPropertyChanged@ModernProgressRing@DirectUI@@MEAAXPEBUPropertyInfo@2@HPEAVValue@2@1@Z=C:/Windows/System32/DUI70.?OnPropertyChanged@ModernProgressRing@DirectUI@@MEAAXPEBUPropertyInfo@2@HPEAVValue@2@1@Z @2850
    ?OnPropertyChanged@RefPointElement@DirectUI@@UEAAXPEBUPropertyInfo@2@HPEAVValue@2@1@Z=C:/Windows/System32/DUI70.?OnPropertyChanged@RefPointElement@DirectUI@@UEAAXPEBUPropertyInfo@2@HPEAVValue@2@1@Z @2851
    ?OnPropertyChanged@RichText@DirectUI@@UEAAXPEBUPropertyInfo@2@HPEAVValue@2@1@Z=C:/Windows/System32/DUI70.?OnPropertyChanged@RichText@DirectUI@@UEAAXPEBUPropertyInfo@2@HPEAVValue@2@1@Z @2852
    ?OnPropertyChanged@ScrollBar@DirectUI@@UEAAXPEBUPropertyInfo@2@HPEAVValue@2@1@Z=C:/Windows/System32/DUI70.?OnPropertyChanged@ScrollBar@DirectUI@@UEAAXPEBUPropertyInfo@2@HPEAVValue@2@1@Z @2853
    ?OnPropertyChanged@ScrollViewer@DirectUI@@UEAAXPEBUPropertyInfo@2@HPEAVValue@2@1@Z=C:/Windows/System32/DUI70.?OnPropertyChanged@ScrollViewer@DirectUI@@UEAAXPEBUPropertyInfo@2@HPEAVValue@2@1@Z @2854
    ?OnPropertyChanged@Selector@DirectUI@@UEAAXPEBUPropertyInfo@2@HPEAVValue@2@1@Z=C:/Windows/System32/DUI70.?OnPropertyChanged@Selector@DirectUI@@UEAAXPEBUPropertyInfo@2@HPEAVValue@2@1@Z @2855
    ?OnPropertyChanged@TextGraphic@DirectUI@@UEAAXPEBUPropertyInfo@2@HPEAVValue@2@1@Z=C:/Windows/System32/DUI70.?OnPropertyChanged@TextGraphic@DirectUI@@UEAAXPEBUPropertyInfo@2@HPEAVValue@2@1@Z @2856
    ?OnPropertyChanged@TouchButton@DirectUI@@UEAAXPEBUPropertyInfo@2@HPEAVValue@2@1@Z=C:/Windows/System32/DUI70.?OnPropertyChanged@TouchButton@DirectUI@@UEAAXPEBUPropertyInfo@2@HPEAVValue@2@1@Z @2857
    ?OnPropertyChanged@TouchCheckBox@DirectUI@@UEAAXPEBUPropertyInfo@2@HPEAVValue@2@1@Z=C:/Windows/System32/DUI70.?OnPropertyChanged@TouchCheckBox@DirectUI@@UEAAXPEBUPropertyInfo@2@HPEAVValue@2@1@Z @2858
    ?OnPropertyChanged@TouchCommandButton@DirectUI@@UEAAXPEBUPropertyInfo@2@HPEAVValue@2@1@Z=C:/Windows/System32/DUI70.?OnPropertyChanged@TouchCommandButton@DirectUI@@UEAAXPEBUPropertyInfo@2@HPEAVValue@2@1@Z @2859
    ?OnPropertyChanged@TouchEdit2@DirectUI@@UEAAXPEBUPropertyInfo@2@HPEAVValue@2@1@Z=C:/Windows/System32/DUI70.?OnPropertyChanged@TouchEdit2@DirectUI@@UEAAXPEBUPropertyInfo@2@HPEAVValue@2@1@Z @2860
    ?OnPropertyChanged@TouchEditBase@DirectUI@@UEAAXPEBUPropertyInfo@2@HPEAVValue@2@1@Z=C:/Windows/System32/DUI70.?OnPropertyChanged@TouchEditBase@DirectUI@@UEAAXPEBUPropertyInfo@2@HPEAVValue@2@1@Z @2861
    ?OnPropertyChanged@TouchHWNDElement@DirectUI@@UEAAXPEBUPropertyInfo@2@HPEAVValue@2@1@Z=C:/Windows/System32/DUI70.?OnPropertyChanged@TouchHWNDElement@DirectUI@@UEAAXPEBUPropertyInfo@2@HPEAVValue@2@1@Z @2862
    ?OnPropertyChanged@TouchHyperLink@DirectUI@@UEAAXPEBUPropertyInfo@2@HPEAVValue@2@1@Z=C:/Windows/System32/DUI70.?OnPropertyChanged@TouchHyperLink@DirectUI@@UEAAXPEBUPropertyInfo@2@HPEAVValue@2@1@Z @2863
    ?OnPropertyChanged@TouchRepeatButton@DirectUI@@UEAAXPEBUPropertyInfo@2@HPEAVValue@2@1@Z=C:/Windows/System32/DUI70.?OnPropertyChanged@TouchRepeatButton@DirectUI@@UEAAXPEBUPropertyInfo@2@HPEAVValue@2@1@Z @2864
    ?OnPropertyChanged@TouchScrollBar@DirectUI@@UEAAXPEBUPropertyInfo@2@HPEAVValue@2@1@Z=C:/Windows/System32/DUI70.?OnPropertyChanged@TouchScrollBar@DirectUI@@UEAAXPEBUPropertyInfo@2@HPEAVValue@2@1@Z @2865
    ?OnPropertyChanged@TouchSelect@DirectUI@@UEAAXPEBUPropertyInfo@2@HPEAVValue@2@1@Z=C:/Windows/System32/DUI70.?OnPropertyChanged@TouchSelect@DirectUI@@UEAAXPEBUPropertyInfo@2@HPEAVValue@2@1@Z @2866
    ?OnPropertyChanged@Viewer@DirectUI@@UEAAXPEBUPropertyInfo@2@HPEAVValue@2@1@Z=C:/Windows/System32/DUI70.?OnPropertyChanged@Viewer@DirectUI@@UEAAXPEBUPropertyInfo@2@HPEAVValue@2@1@Z @2867
    ?OnPropertyChanging@BaseScrollViewer@DirectUI@@UEAA_NPEBUPropertyInfo@2@HPEAVValue@2@1@Z=C:/Windows/System32/DUI70.?OnPropertyChanging@BaseScrollViewer@DirectUI@@UEAA_NPEBUPropertyInfo@2@HPEAVValue@2@1@Z @2868
    ?OnPropertyChanging@CCBaseScrollBar@DirectUI@@UEAA_NPEBUPropertyInfo@2@HPEAVValue@2@1@Z=C:/Windows/System32/DUI70.?OnPropertyChanging@CCBaseScrollBar@DirectUI@@UEAA_NPEBUPropertyInfo@2@HPEAVValue@2@1@Z @2869
    ?OnPropertyChanging@CCTrackBar@DirectUI@@UEAA_NPEBUPropertyInfo@2@HPEAVValue@2@1@Z=C:/Windows/System32/DUI70.?OnPropertyChanging@CCTrackBar@DirectUI@@UEAA_NPEBUPropertyInfo@2@HPEAVValue@2@1@Z @2870
    ?OnPropertyChanging@Element@DirectUI@@UEAA_NPEAUPropertyInfo@2@HPEAVValue@2@1@Z=C:/Windows/System32/DUI70.?OnPropertyChanging@Element@DirectUI@@UEAA_NPEAUPropertyInfo@2@HPEAVValue@2@1@Z @2871
    ?OnPropertyChanging@Element@DirectUI@@UEAA_NPEBUPropertyInfo@2@HPEAVValue@2@1@Z=C:/Windows/System32/DUI70.?OnPropertyChanging@Element@DirectUI@@UEAA_NPEBUPropertyInfo@2@HPEAVValue@2@1@Z @2872
    ?OnPropertyChanging@PText@DirectUI@@UEAA_NPEBUPropertyInfo@2@HPEAVValue@2@1@Z=C:/Windows/System32/DUI70.?OnPropertyChanging@PText@DirectUI@@UEAA_NPEBUPropertyInfo@2@HPEAVValue@2@1@Z @2873
    ?OnPropertyChanging@ScrollBar@DirectUI@@UEAA_NPEBUPropertyInfo@2@HPEAVValue@2@1@Z=C:/Windows/System32/DUI70.?OnPropertyChanging@ScrollBar@DirectUI@@UEAA_NPEBUPropertyInfo@2@HPEAVValue@2@1@Z @2874
    ?OnPropertyChanging@TextGraphic@DirectUI@@UEAA_NPEBUPropertyInfo@2@HPEAVValue@2@1@Z=C:/Windows/System32/DUI70.?OnPropertyChanging@TextGraphic@DirectUI@@UEAA_NPEBUPropertyInfo@2@HPEAVValue@2@1@Z @2875
    ?OnPropertyChanging@TouchCheckBox@DirectUI@@UEAA_NPEBUPropertyInfo@2@HPEAVValue@2@1@Z=C:/Windows/System32/DUI70.?OnPropertyChanging@TouchCheckBox@DirectUI@@UEAA_NPEBUPropertyInfo@2@HPEAVValue@2@1@Z @2876
    ?OnPropertyChanging@TouchCheckBoxGlyph@DirectUI@@UEAA_NPEBUPropertyInfo@2@HPEAVValue@2@1@Z=C:/Windows/System32/DUI70.?OnPropertyChanging@TouchCheckBoxGlyph@DirectUI@@UEAA_NPEBUPropertyInfo@2@HPEAVValue@2@1@Z @2877
    ?OnPropertyChanging@TouchCommandButton@DirectUI@@UEAA_NPEBUPropertyInfo@2@HPEAVValue@2@1@Z=C:/Windows/System32/DUI70.?OnPropertyChanging@TouchCommandButton@DirectUI@@UEAA_NPEBUPropertyInfo@2@HPEAVValue@2@1@Z @2878
    ?OnPropertyChanging@TouchEdit2@DirectUI@@UEAA_NPEBUPropertyInfo@2@HPEAVValue@2@1@Z=C:/Windows/System32/DUI70.?OnPropertyChanging@TouchEdit2@DirectUI@@UEAA_NPEBUPropertyInfo@2@HPEAVValue@2@1@Z @2879
    ?OnPropertyChanging@TouchEditBase@DirectUI@@UEAA_NPEBUPropertyInfo@2@HPEAVValue@2@1@Z=C:/Windows/System32/DUI70.?OnPropertyChanging@TouchEditBase@DirectUI@@UEAA_NPEBUPropertyInfo@2@HPEAVValue@2@1@Z @2880
    ?OnPropertyChanging@TouchSelect@DirectUI@@UEAA_NPEBUPropertyInfo@2@HPEAVValue@2@1@Z=C:/Windows/System32/DUI70.?OnPropertyChanging@TouchSelect@DirectUI@@UEAA_NPEBUPropertyInfo@2@HPEAVValue@2@1@Z @2881
    ?OnPropertyChanging@Viewer@DirectUI@@UEAA_NPEBUPropertyInfo@2@HPEAVValue@2@1@Z=C:/Windows/System32/DUI70.?OnPropertyChanging@Viewer@DirectUI@@UEAA_NPEBUPropertyInfo@2@HPEAVValue@2@1@Z @2882
    ?OnQueryCancel@TaskPage@DirectUI@@MEAA_JXZ=C:/Windows/System32/DUI70.?OnQueryCancel@TaskPage@DirectUI@@MEAA_JXZ @2883
    ?OnQueryInitialFocus@TaskPage@DirectUI@@MEAAPEAVElement@2@XZ=C:/Windows/System32/DUI70.?OnQueryInitialFocus@TaskPage@DirectUI@@MEAAPEAVElement@2@XZ @2884
    ?OnReceivedDialogFocus@Button@DirectUI@@UEAA_NPEAUIDialogElement@2@@Z=C:/Windows/System32/DUI70.?OnReceivedDialogFocus@Button@DirectUI@@UEAA_NPEAUIDialogElement@2@@Z @2885
    ?OnReceivedDialogFocus@CCBase@DirectUI@@UEAA_NPEAUIDialogElement@2@@Z=C:/Windows/System32/DUI70.?OnReceivedDialogFocus@CCBase@DirectUI@@UEAA_NPEAUIDialogElement@2@@Z @2886
    ?OnReceivedDialogFocus@CCBaseCheckRadioButton@DirectUI@@UEAA_NPEAUIDialogElement@2@@Z=C:/Windows/System32/DUI70.?OnReceivedDialogFocus@CCBaseCheckRadioButton@DirectUI@@UEAA_NPEAUIDialogElement@2@@Z @2887
    ?OnReceivedDialogFocus@CCPushButton@DirectUI@@UEAA_NPEAUIDialogElement@2@@Z=C:/Windows/System32/DUI70.?OnReceivedDialogFocus@CCPushButton@DirectUI@@UEAA_NPEAUIDialogElement@2@@Z @2888
    ?OnReceivedDialogFocus@CCSysLink@DirectUI@@UEAA_NPEAUIDialogElement@2@@Z=C:/Windows/System32/DUI70.?OnReceivedDialogFocus@CCSysLink@DirectUI@@UEAA_NPEAUIDialogElement@2@@Z @2889
    ?OnReceivedDialogFocus@CheckBoxGlyph@DirectUI@@UEAA_NPEAUIDialogElement@2@@Z=C:/Windows/System32/DUI70.?OnReceivedDialogFocus@CheckBoxGlyph@DirectUI@@UEAA_NPEAUIDialogElement@2@@Z @2890
    ?OnReceivedDialogFocus@ExpandoButtonGlyph@DirectUI@@UEAA_NPEAUIDialogElement@2@@Z=C:/Windows/System32/DUI70.?OnReceivedDialogFocus@ExpandoButtonGlyph@DirectUI@@UEAA_NPEAUIDialogElement@2@@Z @2891
    ?OnReceivedDialogFocus@RadioButtonGlyph@DirectUI@@UEAA_NPEAUIDialogElement@2@@Z=C:/Windows/System32/DUI70.?OnReceivedDialogFocus@RadioButtonGlyph@DirectUI@@UEAA_NPEAUIDialogElement@2@@Z @2892
    ?OnRegisteredDefaultButtonChanged@DialogElementCore@DirectUI@@QEAAXPEAVValue@2@0@Z=C:/Windows/System32/DUI70.?OnRegisteredDefaultButtonChanged@DialogElementCore@DirectUI@@QEAAXPEAVValue@2@0@Z @2893
    ?OnRemove@BorderLayout@DirectUI@@UEAAXPEAVElement@2@PEAPEAV32@I@Z=C:/Windows/System32/DUI70.?OnRemove@BorderLayout@DirectUI@@UEAAXPEAVElement@2@PEAPEAV32@I@Z @2894
    ?OnRemove@Layout@DirectUI@@UEAAXPEAVElement@2@PEAPEAV32@I@Z=C:/Windows/System32/DUI70.?OnRemove@Layout@DirectUI@@UEAAXPEAVElement@2@PEAPEAV32@I@Z @2895
    ?OnRemove@NineGridLayout@DirectUI@@UEAAXPEAVElement@2@PEAPEAV32@I@Z=C:/Windows/System32/DUI70.?OnRemove@NineGridLayout@DirectUI@@UEAAXPEAVElement@2@PEAPEAV32@I@Z @2896
    ?OnRemove@ShellBorderLayout@DirectUI@@UEAAXPEAVElement@2@PEAPEAV32@I@Z=C:/Windows/System32/DUI70.?OnRemove@ShellBorderLayout@DirectUI@@UEAAXPEAVElement@2@PEAPEAV32@I@Z @2897
    ?OnReset@TaskPage@DirectUI@@MEAA_JXZ=C:/Windows/System32/DUI70.?OnReset@TaskPage@DirectUI@@MEAA_JXZ @2898
    ?OnSelectedPropertyChanged@CCCommandLink@DirectUI@@UEAAXXZ=C:/Windows/System32/DUI70.?OnSelectedPropertyChanged@CCCommandLink@DirectUI@@UEAAXXZ @2899
    ?OnSelectedPropertyChanged@CCPushButton@DirectUI@@UEAAXXZ=C:/Windows/System32/DUI70.?OnSelectedPropertyChanged@CCPushButton@DirectUI@@UEAAXXZ @2900
    ?OnSetActive@TaskPage@DirectUI@@MEAA_JXZ=C:/Windows/System32/DUI70.?OnSetActive@TaskPage@DirectUI@@MEAA_JXZ @2901
    ?OnSinkThemeChanged@HWNDHost@DirectUI@@UEAA_NI_K_JPEA_J@Z=C:/Windows/System32/DUI70.?OnSinkThemeChanged@HWNDHost@DirectUI@@UEAA_NI_K_JPEA_J@Z @2902
    ?OnSinkThemeChanged@XElement@DirectUI@@UEAA_NI_K_JPEA_J@Z=C:/Windows/System32/DUI70.?OnSinkThemeChanged@XElement@DirectUI@@UEAA_NI_K_JPEA_J@Z @2903
    ?OnSysChar@HWNDHost@DirectUI@@UEAA_NG@Z=C:/Windows/System32/DUI70.?OnSysChar@HWNDHost@DirectUI@@UEAA_NG@Z @2904
    ?OnSysChar@XElement@DirectUI@@UEAA_NG@Z=C:/Windows/System32/DUI70.?OnSysChar@XElement@DirectUI@@UEAA_NG@Z @2905
    ?OnTextProp@TouchSwitch@DirectUI@@SAPEBUPropertyInfo@2@XZ=C:/Windows/System32/DUI70.?OnTextProp@TouchSwitch@DirectUI@@SAPEBUPropertyInfo@2@XZ @2906
    ?OnThemeChanged@HWNDElement@DirectUI@@UEAAXPEAUThemeChangedEvent@2@@Z=C:/Windows/System32/DUI70.?OnThemeChanged@HWNDElement@DirectUI@@UEAAXPEAUThemeChangedEvent@2@@Z @2907
    ?OnThemeChanged@XBaby@DirectUI@@UEAAXPEAUThemeChangedEvent@2@@Z=C:/Windows/System32/DUI70.?OnThemeChanged@XBaby@DirectUI@@UEAAXPEAUThemeChangedEvent@2@@Z @2908
    ?OnToolTip@EventManager@DirectUI@@SAJPEAVElement@2@K@Z=C:/Windows/System32/DUI70.?OnToolTip@EventManager@DirectUI@@SAJPEAVElement@2@K@Z @2909
    ?OnUnHosted@Element@DirectUI@@MEAAXPEAV12@@Z=C:/Windows/System32/DUI70.?OnUnHosted@Element@DirectUI@@MEAAXPEAV12@@Z @2910
    ?OnUnHosted@HWNDHost@DirectUI@@MEAAXPEAVElement@2@@Z=C:/Windows/System32/DUI70.?OnUnHosted@HWNDHost@DirectUI@@MEAAXPEAVElement@2@@Z @2911
    ?OnUnHosted@ModernProgressBar@DirectUI@@MEAAXPEAVElement@2@@Z=C:/Windows/System32/DUI70.?OnUnHosted@ModernProgressBar@DirectUI@@MEAAXPEAVElement@2@@Z @2912
    ?OnUnHosted@ModernProgressRing@DirectUI@@MEAAXPEAVElement@2@@Z=C:/Windows/System32/DUI70.?OnUnHosted@ModernProgressRing@DirectUI@@MEAAXPEAVElement@2@@Z @2913
    ?OnUnHosted@PushButton@DirectUI@@UEAAXPEAVElement@2@@Z=C:/Windows/System32/DUI70.?OnUnHosted@PushButton@DirectUI@@UEAAXPEAVElement@2@@Z @2914
    ?OnUnHosted@TouchButton@DirectUI@@UEAAXPEAVElement@2@@Z=C:/Windows/System32/DUI70.?OnUnHosted@TouchButton@DirectUI@@UEAAXPEAVElement@2@@Z @2915
    ?OnUnHosted@TouchSelect@DirectUI@@UEAAXPEAVElement@2@@Z=C:/Windows/System32/DUI70.?OnUnHosted@TouchSelect@DirectUI@@UEAAXPEAVElement@2@@Z @2916
    ?OnWindowStyleChanged@HWNDHost@DirectUI@@UEAAX_KPEBUtagSTYLESTRUCT@@@Z=C:/Windows/System32/DUI70.?OnWindowStyleChanged@HWNDHost@DirectUI@@UEAAX_KPEBUtagSTYLESTRUCT@@@Z @2917
    ?OnWizBack@TaskPage@DirectUI@@MEAA_JXZ=C:/Windows/System32/DUI70.?OnWizBack@TaskPage@DirectUI@@MEAA_JXZ @2918
    ?OnWizFinish@TaskPage@DirectUI@@MEAA_JXZ=C:/Windows/System32/DUI70.?OnWizFinish@TaskPage@DirectUI@@MEAA_JXZ @2919
    ?OnWizNext@TaskPage@DirectUI@@MEAA_JXZ=C:/Windows/System32/DUI70.?OnWizNext@TaskPage@DirectUI@@MEAA_JXZ @2920
    ?OnWmSettingChanged@HWNDElement@DirectUI@@UEAAX_K_J@Z=C:/Windows/System32/DUI70.?OnWmSettingChanged@HWNDElement@DirectUI@@UEAAX_K_J@Z @2921
    ?OnWmThemeChanged@HWNDElement@DirectUI@@UEAAX_K_J@Z=C:/Windows/System32/DUI70.?OnWmThemeChanged@HWNDElement@DirectUI@@UEAAX_K_J@Z @2922
    ?OnWmThemeChanged@XBaby@DirectUI@@UEAAX_K_J@Z=C:/Windows/System32/DUI70.?OnWmThemeChanged@XBaby@DirectUI@@UEAAX_K_J@Z @2923
    ?OnWndMsg@TaskPage@DirectUI@@AEAAHI_K_JPEA_J@Z=C:/Windows/System32/DUI70.?OnWndMsg@TaskPage@DirectUI@@AEAAHI_K_JPEA_J@Z @2924
    ?OpenAnimation@CCAVI@DirectUI@@AEAAXPEAUHWND__@@@Z=C:/Windows/System32/DUI70.?OpenAnimation@CCAVI@DirectUI@@AEAAXPEAUHWND__@@@Z @2925
    ?OpenPopup@TouchSelect@DirectUI@@QEAAJXZ=C:/Windows/System32/DUI70.?OpenPopup@TouchSelect@DirectUI@@QEAAJXZ @2926
    ?OptimizeMoveProp@HWNDHost@DirectUI@@SAPEBUPropertyInfo@2@XZ=C:/Windows/System32/DUI70.?OptimizeMoveProp@HWNDHost@DirectUI@@SAPEBUPropertyInfo@2@XZ @2927
    ?OrderProp@ScrollBar@DirectUI@@SAPEBUPropertyInfo@2@XZ=C:/Windows/System32/DUI70.?OrderProp@ScrollBar@DirectUI@@SAPEBUPropertyInfo@2@XZ @2928
    ?Orientation@Schema@DirectUI@@2HA=C:/Windows/System32/DUI70.?Orientation@Schema@DirectUI@@2HA @2929
    ?OverhangOffsetProp@RichText@DirectUI@@SAPEBUPropertyInfo@2@XZ=C:/Windows/System32/DUI70.?OverhangOffsetProp@RichText@DirectUI@@SAPEBUPropertyInfo@2@XZ @2930
    ?OverhangProp@Element@DirectUI@@SAPEBUPropertyInfo@2@XZ=C:/Windows/System32/DUI70.?OverhangProp@Element@DirectUI@@SAPEBUPropertyInfo@2@XZ @2931
    ?OverrideButtonBackgroundProp@CCPushButton@DirectUI@@SAPEBUPropertyInfo@2@XZ=C:/Windows/System32/DUI70.?OverrideButtonBackgroundProp@CCPushButton@DirectUI@@SAPEBUPropertyInfo@2@XZ @2932
    ?OverrideZoomThreshold@TouchScrollViewer@DirectUI@@QEAAJMMH@Z=C:/Windows/System32/DUI70.?OverrideZoomThreshold@TouchScrollViewer@DirectUI@@QEAAJMMH@Z @2933
    ?PaddingProp@Element@DirectUI@@SAPEBUPropertyInfo@2@XZ=C:/Windows/System32/DUI70.?PaddingProp@Element@DirectUI@@SAPEBUPropertyInfo@2@XZ @2934
    ?PageDown@BaseScrollBar@DirectUI@@UEAAXI@Z=C:/Windows/System32/DUI70.?PageDown@BaseScrollBar@DirectUI@@UEAAXI@Z @2935
    ?PageDown@TouchScrollBar@DirectUI@@UEAAXI@Z=C:/Windows/System32/DUI70.?PageDown@TouchScrollBar@DirectUI@@UEAAXI@Z @2936
    ?PageProp@CCBaseScrollBar@DirectUI@@SAPEBUPropertyInfo@2@XZ=C:/Windows/System32/DUI70.?PageProp@CCBaseScrollBar@DirectUI@@SAPEBUPropertyInfo@2@XZ @2937
    ?PageProp@ScrollBar@DirectUI@@SAPEBUPropertyInfo@2@XZ=C:/Windows/System32/DUI70.?PageProp@ScrollBar@DirectUI@@SAPEBUPropertyInfo@2@XZ @2938
    ?PageUp@BaseScrollBar@DirectUI@@UEAAXI@Z=C:/Windows/System32/DUI70.?PageUp@BaseScrollBar@DirectUI@@UEAAXI@Z @2939
    ?PageUp@TouchScrollBar@DirectUI@@UEAAXI@Z=C:/Windows/System32/DUI70.?PageUp@TouchScrollBar@DirectUI@@UEAAXI@Z @2940
    ?Paint@AnimationStrip@DirectUI@@MEAAXPEAUHDC__@@PEBUtagRECT@@1PEAU4@2@Z=C:/Windows/System32/DUI70.?Paint@AnimationStrip@DirectUI@@MEAAXPEAUHDC__@@PEBUtagRECT@@1PEAU4@2@Z @2941
    ?Paint@Element@DirectUI@@UEAAXPEAUHDC__@@PEBUtagRECT@@1PEAU4@2@Z=C:/Windows/System32/DUI70.?Paint@Element@DirectUI@@UEAAXPEAUHDC__@@PEBUtagRECT@@1PEAU4@2@Z @2942
    ?Paint@HWNDHost@DirectUI@@UEAAXPEAUHDC__@@PEBUtagRECT@@1PEAU4@2@Z=C:/Windows/System32/DUI70.?Paint@HWNDHost@DirectUI@@UEAAXPEAUHDC__@@PEBUtagRECT@@1PEAU4@2@Z @2943
    ?Paint@ModernProgressBar@DirectUI@@MEAAXPEAUHDC__@@PEBUtagRECT@@1PEAU4@2@Z=C:/Windows/System32/DUI70.?Paint@ModernProgressBar@DirectUI@@MEAAXPEAUHDC__@@PEBUtagRECT@@1PEAU4@2@Z @2944
    ?Paint@ModernProgressRing@DirectUI@@MEAAXPEAUHDC__@@PEBUtagRECT@@1PEAU4@2@Z=C:/Windows/System32/DUI70.?Paint@ModernProgressRing@DirectUI@@MEAAXPEAUHDC__@@PEBUtagRECT@@1PEAU4@2@Z @2945
    ?Paint@Movie@DirectUI@@UEAAXPEAUHDC__@@PEBUtagRECT@@1PEAU4@2@Z=C:/Windows/System32/DUI70.?Paint@Movie@DirectUI@@UEAAXPEAUHDC__@@PEBUtagRECT@@1PEAU4@2@Z @2946
    ?Paint@Progress@DirectUI@@UEAAXPEAUHDC__@@PEBUtagRECT@@1PEAU4@2@Z=C:/Windows/System32/DUI70.?Paint@Progress@DirectUI@@UEAAXPEAUHDC__@@PEBUtagRECT@@1PEAU4@2@Z @2947
    ?Paint@RichText@DirectUI@@UEAAXPEAUHDC__@@PEBUtagRECT@@1PEAU4@2@Z=C:/Windows/System32/DUI70.?Paint@RichText@DirectUI@@UEAAXPEAUHDC__@@PEBUtagRECT@@1PEAU4@2@Z @2948
    ?Paint@TouchCheckBox@DirectUI@@UEAAXPEAUHDC__@@PEBUtagRECT@@1PEAU4@2@Z=C:/Windows/System32/DUI70.?Paint@TouchCheckBox@DirectUI@@UEAAXPEAUHDC__@@PEBUtagRECT@@1PEAU4@2@Z @2949
    ?Paint@TouchCheckBoxGlyph@DirectUI@@UEAAXPEAUHDC__@@PEBUtagRECT@@1PEAU4@2@Z=C:/Windows/System32/DUI70.?Paint@TouchCheckBoxGlyph@DirectUI@@UEAAXPEAUHDC__@@PEBUtagRECT@@1PEAU4@2@Z @2950
    ?Paint@TouchCommandButton@DirectUI@@UEAAXPEAUHDC__@@PEBUtagRECT@@1PEAU4@2@Z=C:/Windows/System32/DUI70.?Paint@TouchCommandButton@DirectUI@@UEAAXPEAUHDC__@@PEBUtagRECT@@1PEAU4@2@Z @2951
    ?Paint@TouchEdit2@DirectUI@@UEAAXPEAUHDC__@@PEBUtagRECT@@1PEAU4@2@Z=C:/Windows/System32/DUI70.?Paint@TouchEdit2@DirectUI@@UEAAXPEAUHDC__@@PEBUtagRECT@@1PEAU4@2@Z @2952
    ?PaintBackground@Element@DirectUI@@QEAAXPEAUHDC__@@PEAVValue@2@AEBUtagRECT@@222@Z=C:/Windows/System32/DUI70.?PaintBackground@Element@DirectUI@@QEAAXPEAUHDC__@@PEAVValue@2@AEBUtagRECT@@222@Z @2953
    ?PaintBorder@Element@DirectUI@@QEAAXPEAUHDC__@@PEAVValue@2@PEAUtagRECT@@AEBU5@@Z=C:/Windows/System32/DUI70.?PaintBorder@Element@DirectUI@@QEAAXPEAUHDC__@@PEAVValue@2@PEAUtagRECT@@AEBU5@@Z @2954
    ?PaintContent@Element@DirectUI@@QEAAXPEAUHDC__@@PEBUtagRECT@@@Z=C:/Windows/System32/DUI70.?PaintContent@Element@DirectUI@@QEAAXPEAUHDC__@@PEBUtagRECT@@@Z @2955
    ?PaintEdgeHighlight@Element@DirectUI@@QEAAXPEAUHDC__@@AEBUtagRECT@@1@Z=C:/Windows/System32/DUI70.?PaintEdgeHighlight@Element@DirectUI@@QEAAXPEAUHDC__@@AEBUtagRECT@@1@Z @2956
    ?PaintFocusRect@Element@DirectUI@@QEAAXPEAUHDC__@@PEBUtagRECT@@1@Z=C:/Windows/System32/DUI70.?PaintFocusRect@Element@DirectUI@@QEAAXPEAUHDC__@@PEBUtagRECT@@1@Z @2957
    ?PaintStringContent@Element@DirectUI@@QEAAXPEAUHDC__@@PEBUtagRECT@@PEAVValue@2@H@Z=C:/Windows/System32/DUI70.?PaintStringContent@Element@DirectUI@@QEAAXPEAUHDC__@@PEBUtagRECT@@PEAVValue@2@H@Z @2958
    ?PaneControlType@Schema@DirectUI@@2HA=C:/Windows/System32/DUI70.?PaneControlType@Schema@DirectUI@@2HA @2959
    ?ParentProp@Element@DirectUI@@SAPEBUPropertyInfo@2@XZ=C:/Windows/System32/DUI70.?ParentProp@Element@DirectUI@@SAPEBUPropertyInfo@2@XZ @2960
    ?ParseARGBColor@DUIXmlParser@DirectUI@@IEAAJPEBUExprNode@ParserTools@2@PEAKPEA_N@Z=C:/Windows/System32/DUI70.?ParseARGBColor@DUIXmlParser@DirectUI@@IEAAJPEBUExprNode@ParserTools@2@PEAKPEA_N@Z @2961
    ?ParseArgs@DUIXmlParser@DirectUI@@IEAAJPEBUExprNode@ParserTools@2@PEATParsedArg@12@IPEBD@Z=C:/Windows/System32/DUI70.?ParseArgs@DUIXmlParser@DirectUI@@IEAAJPEBUExprNode@ParserTools@2@PEATParsedArg@12@IPEBD@Z @2962
    ?ParseAtomValue@DUIXmlParser@DirectUI@@IEAAJPEBUExprNode@ParserTools@2@PEAPEAVValue@2@@Z=C:/Windows/System32/DUI70.?ParseAtomValue@DUIXmlParser@DirectUI@@IEAAJPEBUExprNode@ParserTools@2@PEAPEAVValue@2@@Z @2963
    ?ParseBehavior@DUIXmlParser@DirectUI@@IEAAJPEBUExprNode@ParserTools@2@@Z=C:/Windows/System32/DUI70.?ParseBehavior@DUIXmlParser@DirectUI@@IEAAJPEBUExprNode@ParserTools@2@@Z @2964
    ?ParseBehaviorArgValue@DUIXmlParser@DirectUI@@IEAAJPEBUExprNode@ParserTools@2@PEAPEAVValue@2@@Z=C:/Windows/System32/DUI70.?ParseBehaviorArgValue@DUIXmlParser@DirectUI@@IEAAJPEBUExprNode@ParserTools@2@PEAPEAVValue@2@@Z @2965
    ?ParseBoolValue@DUIXmlParser@DirectUI@@IEAAJPEBUExprNode@ParserTools@2@PEAPEAVValue@2@@Z=C:/Windows/System32/DUI70.?ParseBoolValue@DUIXmlParser@DirectUI@@IEAAJPEBUExprNode@ParserTools@2@PEAPEAVValue@2@@Z @2966
    ?ParseColor@DUIXmlParser@DirectUI@@IEAAJPEBUExprNode@ParserTools@2@PEAK@Z=C:/Windows/System32/DUI70.?ParseColor@DUIXmlParser@DirectUI@@IEAAJPEBUExprNode@ParserTools@2@PEAK@Z @2967
    ?ParseDFCFill@DUIXmlParser@DirectUI@@IEAAJPEBUExprNode@ParserTools@2@PEAPEAVValue@2@PEA_N@Z=C:/Windows/System32/DUI70.?ParseDFCFill@DUIXmlParser@DirectUI@@IEAAJPEBUExprNode@ParserTools@2@PEAPEAVValue@2@PEA_N@Z @2968
    ?ParseDTBFill@DUIXmlParser@DirectUI@@IEAAJPEBUExprNode@ParserTools@2@PEAPEAVValue@2@PEA_N@Z=C:/Windows/System32/DUI70.?ParseDTBFill@DUIXmlParser@DirectUI@@IEAAJPEBUExprNode@ParserTools@2@PEAPEAVValue@2@PEA_N@Z @2969
    ?ParseDoubleListValue@DUIXmlParser@DirectUI@@IEAAJPEBUExprNode@ParserTools@2@PEAPEAVValue@2@@Z=C:/Windows/System32/DUI70.?ParseDoubleListValue@DUIXmlParser@DirectUI@@IEAAJPEBUExprNode@ParserTools@2@PEAPEAVValue@2@@Z @2970
    ?ParseFillValue@DUIXmlParser@DirectUI@@IEAAJPEBUExprNode@ParserTools@2@PEAPEAVValue@2@@Z=C:/Windows/System32/DUI70.?ParseFillValue@DUIXmlParser@DirectUI@@IEAAJPEBUExprNode@ParserTools@2@PEAPEAVValue@2@@Z @2971
    ?ParseFloat@DUIXmlParser@DirectUI@@IEAAJPEBUExprNode@ParserTools@2@PEAMPEA_N@Z=C:/Windows/System32/DUI70.?ParseFloat@DUIXmlParser@DirectUI@@IEAAJPEBUExprNode@ParserTools@2@PEAMPEA_N@Z @2972
    ?ParseFloatValue@DUIXmlParser@DirectUI@@IEAAJPEBUExprNode@ParserTools@2@PEAPEAVValue@2@@Z=C:/Windows/System32/DUI70.?ParseFloatValue@DUIXmlParser@DirectUI@@IEAAJPEBUExprNode@ParserTools@2@PEAPEAVValue@2@@Z @2973
    ?ParseFunction@DUIXmlParser@DirectUI@@IEAAJPEBGPEBUExprNode@ParserTools@2@PEATParsedArg@12@IPEBD@Z=C:/Windows/System32/DUI70.?ParseFunction@DUIXmlParser@DirectUI@@IEAAJPEBGPEBUExprNode@ParserTools@2@PEATParsedArg@12@IPEBD@Z @2974
    ?ParseGTCColor@DUIXmlParser@DirectUI@@IEAAJPEBUExprNode@ParserTools@2@PEAKPEA_N@Z=C:/Windows/System32/DUI70.?ParseGTCColor@DUIXmlParser@DirectUI@@IEAAJPEBUExprNode@ParserTools@2@PEAKPEA_N@Z @2975
    ?ParseGTFStr@DUIXmlParser@DirectUI@@IEAAJPEBUExprNode@ParserTools@2@PEAPEAVValue@2@PEA_N@Z=C:/Windows/System32/DUI70.?ParseGTFStr@DUIXmlParser@DirectUI@@IEAAJPEBUExprNode@ParserTools@2@PEAPEAVValue@2@PEA_N@Z @2976
    ?ParseGTMarRect@DUIXmlParser@DirectUI@@IEAAJPEBUExprNode@ParserTools@2@PEAUScaledRECT@2@PEA_N@Z=C:/Windows/System32/DUI70.?ParseGTMarRect@DUIXmlParser@DirectUI@@IEAAJPEBUExprNode@ParserTools@2@PEAUScaledRECT@2@PEA_N@Z @2977
    ?ParseGTMetInt@DUIXmlParser@DirectUI@@IEAAJPEBUExprNode@ParserTools@2@PEAHPEA_N@Z=C:/Windows/System32/DUI70.?ParseGTMetInt@DUIXmlParser@DirectUI@@IEAAJPEBUExprNode@ParserTools@2@PEAHPEA_N@Z @2978
    ?ParseGTPartSize@DUIXmlParser@DirectUI@@IEAAJPEBUExprNode@ParserTools@2@PEAUScaledSIZE@2@PEA_N@Z=C:/Windows/System32/DUI70.?ParseGTPartSize@DUIXmlParser@DirectUI@@IEAAJPEBUExprNode@ParserTools@2@PEAUScaledSIZE@2@PEA_N@Z @2979
    ?ParseGradientFill@DUIXmlParser@DirectUI@@IEAAJPEBUExprNode@ParserTools@2@PEAPEAVValue@2@PEA_N@Z=C:/Windows/System32/DUI70.?ParseGradientFill@DUIXmlParser@DirectUI@@IEAAJPEBUExprNode@ParserTools@2@PEAPEAVValue@2@PEA_N@Z @2980
    ?ParseGraphicGraphic@DUIXmlParser@DirectUI@@IEAAJPEBUExprNode@ParserTools@2@PEAPEAVValue@2@PEA_N@Z=C:/Windows/System32/DUI70.?ParseGraphicGraphic@DUIXmlParser@DirectUI@@IEAAJPEBUExprNode@ParserTools@2@PEAPEAVValue@2@PEA_N@Z @2981
    ?ParseGraphicHelper@DUIXmlParser@DirectUI@@IEAAJ_NPEBUExprNode@ParserTools@2@PEAPEAVValue@2@@Z=C:/Windows/System32/DUI70.?ParseGraphicHelper@DUIXmlParser@DirectUI@@IEAAJ_NPEBUExprNode@ParserTools@2@PEAPEAVValue@2@@Z @2982
    ?ParseGraphicValue@DUIXmlParser@DirectUI@@IEAAJPEBUExprNode@ParserTools@2@PEAPEAVValue@2@@Z=C:/Windows/System32/DUI70.?ParseGraphicValue@DUIXmlParser@DirectUI@@IEAAJPEBUExprNode@ParserTools@2@PEAPEAVValue@2@@Z @2983
    ?ParseIconGraphic@DUIXmlParser@DirectUI@@IEAAJPEBUExprNode@ParserTools@2@PEAPEAVValue@2@PEA_N@Z=C:/Windows/System32/DUI70.?ParseIconGraphic@DUIXmlParser@DirectUI@@IEAAJPEBUExprNode@ParserTools@2@PEAPEAVValue@2@PEA_N@Z @2984
    ?ParseImageGraphic@DUIXmlParser@DirectUI@@IEAAJPEBUExprNode@ParserTools@2@PEAPEAVValue@2@PEA_N@Z=C:/Windows/System32/DUI70.?ParseImageGraphic@DUIXmlParser@DirectUI@@IEAAJPEBUExprNode@ParserTools@2@PEAPEAVValue@2@PEA_N@Z @2985
    ?ParseIntValue@DUIXmlParser@DirectUI@@IEAAJPEBUExprNode@ParserTools@2@PEAPEAVValue@2@@Z=C:/Windows/System32/DUI70.?ParseIntValue@DUIXmlParser@DirectUI@@IEAAJPEBUExprNode@ParserTools@2@PEAPEAVValue@2@@Z @2986
    ?ParseLayoutValue@DUIXmlParser@DirectUI@@IEAAJPEBUExprNode@ParserTools@2@@Z=C:/Windows/System32/DUI70.?ParseLayoutValue@DUIXmlParser@DirectUI@@IEAAJPEBUExprNode@ParserTools@2@@Z @2987
    ?ParseLibrary@DUIXmlParser@DirectUI@@IEAAJPEBUExprNode@ParserTools@2@PEAPEAUHINSTANCE__@@@Z=C:/Windows/System32/DUI70.?ParseLibrary@DUIXmlParser@DirectUI@@IEAAJPEBUExprNode@ParserTools@2@PEAPEAUHINSTANCE__@@@Z @2988
    ?ParseLiteral@DUIXmlParser@DirectUI@@IEAAJPEBUExprNode@ParserTools@2@PEAPEBG@Z=C:/Windows/System32/DUI70.?ParseLiteral@DUIXmlParser@DirectUI@@IEAAJPEBUExprNode@ParserTools@2@PEAPEBG@Z @2989
    ?ParseLiteralColor@DUIXmlParser@DirectUI@@IEAAJPEBGPEAK@Z=C:/Windows/System32/DUI70.?ParseLiteralColor@DUIXmlParser@DirectUI@@IEAAJPEBGPEAK@Z @2990
    ?ParseLiteralColorInt@DUIXmlParser@DirectUI@@IEAAJPEBGPEAH@Z=C:/Windows/System32/DUI70.?ParseLiteralColorInt@DUIXmlParser@DirectUI@@IEAAJPEBGPEAH@Z @2991
    ?ParseLiteralNumber@DUIXmlParser@DirectUI@@IEAAJPEBGPEAHPEA_N@Z=C:/Windows/System32/DUI70.?ParseLiteralNumber@DUIXmlParser@DirectUI@@IEAAJPEBGPEAHPEA_N@Z @2992
    ?ParseMagnitude@DUIXmlParser@DirectUI@@IEAAJPEBGPEAHPEA_N@Z=C:/Windows/System32/DUI70.?ParseMagnitude@DUIXmlParser@DirectUI@@IEAAJPEBGPEAHPEA_N@Z @2993
    ?ParseMagnitudeFloat@DUIXmlParser@DirectUI@@IEAAJPEBGPEAMPEA_N@Z=C:/Windows/System32/DUI70.?ParseMagnitudeFloat@DUIXmlParser@DirectUI@@IEAAJPEBGPEAMPEA_N@Z @2994
    ?ParseNumber@DUIXmlParser@DirectUI@@IEAAJPEBUExprNode@ParserTools@2@PEAHPEA_N@Z=C:/Windows/System32/DUI70.?ParseNumber@DUIXmlParser@DirectUI@@IEAAJPEBUExprNode@ParserTools@2@PEAHPEA_N@Z @2995
    ?ParsePointValue@DUIXmlParser@DirectUI@@IEAAJPEBUExprNode@ParserTools@2@PEAPEAVValue@2@@Z=C:/Windows/System32/DUI70.?ParsePointValue@DUIXmlParser@DirectUI@@IEAAJPEBUExprNode@ParserTools@2@PEAPEAVValue@2@@Z @2996
    ?ParseQuotedString@DUIXmlParser@DirectUI@@IEAAJPEBUExprNode@ParserTools@2@PEAPEBG@Z=C:/Windows/System32/DUI70.?ParseQuotedString@DUIXmlParser@DirectUI@@IEAAJPEBUExprNode@ParserTools@2@PEAPEBG@Z @2997
    ?ParseRGBColor@DUIXmlParser@DirectUI@@IEAAJPEBUExprNode@ParserTools@2@PEAKPEA_N@Z=C:/Windows/System32/DUI70.?ParseRGBColor@DUIXmlParser@DirectUI@@IEAAJPEBUExprNode@ParserTools@2@PEAKPEA_N@Z @2998
    ?ParseRect@DUIXmlParser@DirectUI@@IEAAJPEBUExprNode@ParserTools@2@PEAUScaledRECT@2@@Z=C:/Windows/System32/DUI70.?ParseRect@DUIXmlParser@DirectUI@@IEAAJPEBUExprNode@ParserTools@2@PEAUScaledRECT@2@@Z @2999
    ?ParseRectRect@DUIXmlParser@DirectUI@@IEAAJPEBUExprNode@ParserTools@2@PEAUScaledRECT@2@PEA_N@Z=C:/Windows/System32/DUI70.?ParseRectRect@DUIXmlParser@DirectUI@@IEAAJPEBUExprNode@ParserTools@2@PEAUScaledRECT@2@PEA_N@Z @3000
    ?ParseRectValue@DUIXmlParser@DirectUI@@IEAAJPEBUExprNode@ParserTools@2@PEAPEAVValue@2@@Z=C:/Windows/System32/DUI70.?ParseRectValue@DUIXmlParser@DirectUI@@IEAAJPEBUExprNode@ParserTools@2@PEAPEAVValue@2@@Z @3001
    ?ParseResStr@DUIXmlParser@DirectUI@@IEAAJPEBUExprNode@ParserTools@2@PEAPEAVValue@2@PEA_N@Z=C:/Windows/System32/DUI70.?ParseResStr@DUIXmlParser@DirectUI@@IEAAJPEBUExprNode@ParserTools@2@PEAPEAVValue@2@PEA_N@Z @3002
    ?ParseResid@DUIXmlParser@DirectUI@@IEAAJPEBUExprNode@ParserTools@2@PEAPEBG@Z=C:/Windows/System32/DUI70.?ParseResid@DUIXmlParser@DirectUI@@IEAAJPEBUExprNode@ParserTools@2@PEAPEBG@Z @3003
    ?ParseSGraphicGraphic@DUIXmlParser@DirectUI@@IEAAJPEBUExprNode@ParserTools@2@PEAPEAVValue@2@PEA_N@Z=C:/Windows/System32/DUI70.?ParseSGraphicGraphic@DUIXmlParser@DirectUI@@IEAAJPEBUExprNode@ParserTools@2@PEAPEAVValue@2@PEA_N@Z @3004
    ?ParseSGraphicHelper@DUIXmlParser@DirectUI@@IEAAJ_NPEBUExprNode@ParserTools@2@PEAPEAVValue@2@@Z=C:/Windows/System32/DUI70.?ParseSGraphicHelper@DUIXmlParser@DirectUI@@IEAAJ_NPEBUExprNode@ParserTools@2@PEAPEAVValue@2@@Z @3005
    ?ParseSize@DUIXmlParser@DirectUI@@IEAAJPEBUExprNode@ParserTools@2@PEAUScaledSIZE@2@@Z=C:/Windows/System32/DUI70.?ParseSize@DUIXmlParser@DirectUI@@IEAAJPEBUExprNode@ParserTools@2@PEAUScaledSIZE@2@@Z @3006
    ?ParseSizeSize@DUIXmlParser@DirectUI@@IEAAJPEBUExprNode@ParserTools@2@PEAUScaledSIZE@2@PEA_N@Z=C:/Windows/System32/DUI70.?ParseSizeSize@DUIXmlParser@DirectUI@@IEAAJPEBUExprNode@ParserTools@2@PEAUScaledSIZE@2@PEA_N@Z @3007
    ?ParseSizeValue@DUIXmlParser@DirectUI@@IEAAJPEBUExprNode@ParserTools@2@PEAPEAVValue@2@@Z=C:/Windows/System32/DUI70.?ParseSizeValue@DUIXmlParser@DirectUI@@IEAAJPEBUExprNode@ParserTools@2@PEAPEAVValue@2@@Z @3008
    ?ParseStringValue@DUIXmlParser@DirectUI@@IEAAJPEBUExprNode@ParserTools@2@PEAPEAVValue@2@@Z=C:/Windows/System32/DUI70.?ParseStringValue@DUIXmlParser@DirectUI@@IEAAJPEBUExprNode@ParserTools@2@PEAPEAVValue@2@@Z @3009
    ?ParseStyleSheets@DUIXmlParser@DirectUI@@IEAAJPEAUIXmlReader@@@Z=C:/Windows/System32/DUI70.?ParseStyleSheets@DUIXmlParser@DirectUI@@IEAAJPEAUIXmlReader@@@Z @3010
    ?ParseSysMetricInt@DUIXmlParser@DirectUI@@IEAAJPEBUExprNode@ParserTools@2@PEAHPEA_N@Z=C:/Windows/System32/DUI70.?ParseSysMetricInt@DUIXmlParser@DirectUI@@IEAAJPEBUExprNode@ParserTools@2@PEAHPEA_N@Z @3011
    ?ParseSysMetricStr@DUIXmlParser@DirectUI@@IEAAJPEBUExprNode@ParserTools@2@PEAPEAVValue@2@PEA_N@Z=C:/Windows/System32/DUI70.?ParseSysMetricStr@DUIXmlParser@DirectUI@@IEAAJPEBUExprNode@ParserTools@2@PEAPEAVValue@2@PEA_N@Z @3012
    ?ParseTheme@DUIXmlParser@DirectUI@@IEAAJPEBUExprNode@ParserTools@2@_NPEAPEAX@Z=C:/Windows/System32/DUI70.?ParseTheme@DUIXmlParser@DirectUI@@IEAAJPEBUExprNode@ParserTools@2@_NPEAPEAX@Z @3013
    ?PasswordCharacterProp@Edit@DirectUI@@SAPEBUPropertyInfo@2@XZ=C:/Windows/System32/DUI70.?PasswordCharacterProp@Edit@DirectUI@@SAPEBUPropertyInfo@2@XZ @3014
    ?PasswordCharacterProp@TouchEditBase@DirectUI@@SAPEBUPropertyInfo@2@XZ=C:/Windows/System32/DUI70.?PasswordCharacterProp@TouchEditBase@DirectUI@@SAPEBUPropertyInfo@2@XZ @3015
    ?PasswordRevealModeProp@TouchEdit2@DirectUI@@SAPEBUPropertyInfo@2@XZ=C:/Windows/System32/DUI70.?PasswordRevealModeProp@TouchEdit2@DirectUI@@SAPEBUPropertyInfo@2@XZ @3016
    ?Paste@TouchEditBase@DirectUI@@SA?AVUID@@XZ=C:/Windows/System32/DUI70.?Paste@TouchEditBase@DirectUI@@SA?AVUID@@XZ @3017
    ?PasteText@TouchEdit2@DirectUI@@QEAAJPEBG@Z=C:/Windows/System32/DUI70.?PasteText@TouchEdit2@DirectUI@@QEAAJPEBG@Z @3018
    ?PathProp@Movie@DirectUI@@SAPEBUPropertyInfo@2@XZ=C:/Windows/System32/DUI70.?PathProp@Movie@DirectUI@@SAPEBUPropertyInfo@2@XZ @3019
    ?PatternFromPatternId@Schema@DirectUI@@SA?AW4Pattern@12@H@Z=C:/Windows/System32/DUI70.?PatternFromPatternId@Schema@DirectUI@@SA?AW4Pattern@12@H@Z @3020
    ?Pause@Movie@DirectUI@@QEAAXXZ=C:/Windows/System32/DUI70.?Pause@Movie@DirectUI@@QEAAXXZ @3021
    ?PfnIsSupportedFromPattern@Schema@DirectUI@@SAP6A_NPEAVElement@2@@ZW4Pattern@12@@Z=C:/Windows/System32/DUI70.?PfnIsSupportedFromPattern@Schema@DirectUI@@SAP6A_NPEAVElement@2@@ZW4Pattern@12@@Z @3022
    ?PinningProp@BaseScrollViewer@DirectUI@@SAPEBUPropertyInfo@2@XZ=C:/Windows/System32/DUI70.?PinningProp@BaseScrollViewer@DirectUI@@SAPEBUPropertyInfo@2@XZ @3023
    ?PixelOffsetModeProp@Movie@DirectUI@@SAPEBUPropertyInfo@2@XZ=C:/Windows/System32/DUI70.?PixelOffsetModeProp@Movie@DirectUI@@SAPEBUPropertyInfo@2@XZ @3024
    ?Play@CCAVI@DirectUI@@QEAAXPEAUHWND__@@@Z=C:/Windows/System32/DUI70.?Play@CCAVI@DirectUI@@QEAAXPEAUHWND__@@@Z @3025
    ?Play@Movie@DirectUI@@QEAAXXZ=C:/Windows/System32/DUI70.?Play@Movie@DirectUI@@QEAAXXZ @3026
    ?PlayAllFramesModeProp@Movie@DirectUI@@SAPEBUPropertyInfo@2@XZ=C:/Windows/System32/DUI70.?PlayAllFramesModeProp@Movie@DirectUI@@SAPEBUPropertyInfo@2@XZ @3027
    ?PlayProp@AnimationStrip@DirectUI@@SAPEBUPropertyInfo@2@XZ=C:/Windows/System32/DUI70.?PlayProp@AnimationStrip@DirectUI@@SAPEBUPropertyInfo@2@XZ @3028
    ?PopupBoundsProp@TouchSelect@DirectUI@@SAPEBUPropertyInfo@2@XZ=C:/Windows/System32/DUI70.?PopupBoundsProp@TouchSelect@DirectUI@@SAPEBUPropertyInfo@2@XZ @3029
    ?PopupChange@TouchSelect@DirectUI@@SA?AVUID@@XZ=C:/Windows/System32/DUI70.?PopupChange@TouchSelect@DirectUI@@SA?AVUID@@XZ @3030
    ?PosInLayoutProp@Element@DirectUI@@SAPEBUPropertyInfo@2@XZ=C:/Windows/System32/DUI70.?PosInLayoutProp@Element@DirectUI@@SAPEBUPropertyInfo@2@XZ @3031
    ?PositionProp@CCBaseScrollBar@DirectUI@@SAPEBUPropertyInfo@2@XZ=C:/Windows/System32/DUI70.?PositionProp@CCBaseScrollBar@DirectUI@@SAPEBUPropertyInfo@2@XZ @3032
    ?PositionProp@ModernProgressBar@DirectUI@@SAPEBUPropertyInfo@2@XZ=C:/Windows/System32/DUI70.?PositionProp@ModernProgressBar@DirectUI@@SAPEBUPropertyInfo@2@XZ @3033
    ?PositionProp@Progress@DirectUI@@SAPEBUPropertyInfo@2@XZ=C:/Windows/System32/DUI70.?PositionProp@Progress@DirectUI@@SAPEBUPropertyInfo@2@XZ @3034
    ?PositionProp@ScrollBar@DirectUI@@SAPEBUPropertyInfo@2@XZ=C:/Windows/System32/DUI70.?PositionProp@ScrollBar@DirectUI@@SAPEBUPropertyInfo@2@XZ @3035
    ?PostCreate@CCAVI@DirectUI@@MEAAXPEAUHWND__@@@Z=C:/Windows/System32/DUI70.?PostCreate@CCAVI@DirectUI@@MEAAXPEAUHWND__@@@Z @3036
    ?PostCreate@CCBase@DirectUI@@MEAAXPEAUHWND__@@@Z=C:/Windows/System32/DUI70.?PostCreate@CCBase@DirectUI@@MEAAXPEAUHWND__@@@Z @3037
    ?PostCreate@CCBaseCheckRadioButton@DirectUI@@MEAAXPEAUHWND__@@@Z=C:/Windows/System32/DUI70.?PostCreate@CCBaseCheckRadioButton@DirectUI@@MEAAXPEAUHWND__@@@Z @3038
    ?PostCreate@CCCommandLink@DirectUI@@MEAAXPEAUHWND__@@@Z=C:/Windows/System32/DUI70.?PostCreate@CCCommandLink@DirectUI@@MEAAXPEAUHWND__@@@Z @3039
    ?PostCreate@CCTrackBar@DirectUI@@MEAAXPEAUHWND__@@@Z=C:/Windows/System32/DUI70.?PostCreate@CCTrackBar@DirectUI@@MEAAXPEAUHWND__@@@Z @3040
    ?PrepareManualSwapDeferredZoomToRect@TouchScrollViewer@DirectUI@@QEAAJPEBUtagRECT@@PEBM1PEAM2M@Z=C:/Windows/System32/DUI70.?PrepareManualSwapDeferredZoomToRect@TouchScrollViewer@DirectUI@@QEAAJPEBUtagRECT@@PEBM1PEAM2M@Z @3041
    ?PressedProp@Button@DirectUI@@SAPEBUPropertyInfo@2@XZ=C:/Windows/System32/DUI70.?PressedProp@Button@DirectUI@@SAPEBUPropertyInfo@2@XZ @3042
    ?PressedProp@TouchButton@DirectUI@@SAPEBUPropertyInfo@2@XZ=C:/Windows/System32/DUI70.?PressedProp@TouchButton@DirectUI@@SAPEBUPropertyInfo@2@XZ @3043
    ?PreventFormatChangeUpdatingModifiedStateProp@TouchEditBase@DirectUI@@SAPEBUPropertyInfo@2@XZ=C:/Windows/System32/DUI70.?PreventFormatChangeUpdatingModifiedStateProp@TouchEditBase@DirectUI@@SAPEBUPropertyInfo@2@XZ @3044
    ?PrintRTLControl@HWNDHost@DirectUI@@IEAAXPEAUHDC__@@0AEBUtagRECT@@@Z=C:/Windows/System32/DUI70.?PrintRTLControl@HWNDHost@DirectUI@@IEAAXPEAUHDC__@@0AEBUtagRECT@@@Z @3045
    ?ProcessIdProperty@Schema@DirectUI@@2HA=C:/Windows/System32/DUI70.?ProcessIdProperty@Schema@DirectUI@@2HA @3046
    ?ProcessingKeyboardNavigation@TouchHWNDElement@DirectUI@@SA?AVUID@@XZ=C:/Windows/System32/DUI70.?ProcessingKeyboardNavigation@TouchHWNDElement@DirectUI@@SA?AVUID@@XZ @3047
    ?ProgressBarControlType@Schema@DirectUI@@2HA=C:/Windows/System32/DUI70.?ProgressBarControlType@Schema@DirectUI@@2HA @3048
    ?PromptTextProp@TouchEdit2@DirectUI@@SAPEBUPropertyInfo@2@XZ=C:/Windows/System32/DUI70.?PromptTextProp@TouchEdit2@DirectUI@@SAPEBUPropertyInfo@2@XZ @3049
    ?PromptWithCaretProp@TouchEdit2@DirectUI@@SAPEBUPropertyInfo@2@XZ=C:/Windows/System32/DUI70.?PromptWithCaretProp@TouchEdit2@DirectUI@@SAPEBUPropertyInfo@2@XZ @3050
    ?PropSheet_SendMessage@TaskPage@DirectUI@@IEAA_JI_K_J@Z=C:/Windows/System32/DUI70.?PropSheet_SendMessage@TaskPage@DirectUI@@IEAA_JI_K_J@Z @3051
    ?PropertyChangedCore@Edit@DirectUI@@AEAAXPEBUPropertyInfo@2@HPEAVValue@2@PEAUHWND__@@@Z=C:/Windows/System32/DUI70.?PropertyChangedCore@Edit@DirectUI@@AEAAXPEBUPropertyInfo@2@HPEAVValue@2@PEAUHWND__@@@Z @3052
    ?PropertyChangingListener@EventManager@DirectUI@@SAJPEAVElement@2@PEBUPropertyInfo@2@PEA_N@Z=C:/Windows/System32/DUI70.?PropertyChangingListener@EventManager@DirectUI@@SAJPEAVElement@2@PEBUPropertyInfo@2@PEA_N@Z @3053
    ?PropertyListener@EventManager@DirectUI@@SAJPEAVElement@2@PEBUPropertyInfo@2@HPEAVValue@2@2@Z=C:/Windows/System32/DUI70.?PropertyListener@EventManager@DirectUI@@SAJPEAVElement@2@PEBUPropertyInfo@2@HPEAVValue@2@2@Z @3054
    ?PropertyProp@Bind@DirectUI@@SAPEBUPropertyInfo@2@XZ=C:/Windows/System32/DUI70.?PropertyProp@Bind@DirectUI@@SAPEBUPropertyInfo@2@XZ @3055
    ?ProportionalProp@ScrollBar@DirectUI@@SAPEBUPropertyInfo@2@XZ=C:/Windows/System32/DUI70.?ProportionalProp@ScrollBar@DirectUI@@SAPEBUPropertyInfo@2@XZ @3056
    ?QueryInterface@DuiAccessible@DirectUI@@UEAAJAEBU_GUID@@PEAPEAX@Z=C:/Windows/System32/DUI70.?QueryInterface@DuiAccessible@DirectUI@@UEAAJAEBU_GUID@@PEAPEAX@Z @3057
    ?QueryInterface@Element@DirectUI@@UEAAJAEBU_GUID@@PEAPEAX@Z=C:/Windows/System32/DUI70.?QueryInterface@Element@DirectUI@@UEAAJAEBU_GUID@@PEAPEAX@Z @3058
    ?QueryInterface@ElementProvider@DirectUI@@UEAAJAEBU_GUID@@PEAPEAX@Z=C:/Windows/System32/DUI70.?QueryInterface@ElementProvider@DirectUI@@UEAAJAEBU_GUID@@PEAPEAX@Z @3059
    ?QueryInterface@ExpandCollapseProvider@DirectUI@@UEAAJAEBU_GUID@@PEAPEAX@Z=C:/Windows/System32/DUI70.?QueryInterface@ExpandCollapseProvider@DirectUI@@UEAAJAEBU_GUID@@PEAPEAX@Z @3060
    ?QueryInterface@GridItemProvider@DirectUI@@UEAAJAEBU_GUID@@PEAPEAX@Z=C:/Windows/System32/DUI70.?QueryInterface@GridItemProvider@DirectUI@@UEAAJAEBU_GUID@@PEAPEAX@Z @3061
    ?QueryInterface@GridProvider@DirectUI@@UEAAJAEBU_GUID@@PEAPEAX@Z=C:/Windows/System32/DUI70.?QueryInterface@GridProvider@DirectUI@@UEAAJAEBU_GUID@@PEAPEAX@Z @3062
    ?QueryInterface@HWNDElementProvider@DirectUI@@UEAAJAEBU_GUID@@PEAPEAX@Z=C:/Windows/System32/DUI70.?QueryInterface@HWNDElementProvider@DirectUI@@UEAAJAEBU_GUID@@PEAPEAX@Z @3063
    ?QueryInterface@HWNDHostAccessible@DirectUI@@UEAAJAEBU_GUID@@PEAPEAX@Z=C:/Windows/System32/DUI70.?QueryInterface@HWNDHostAccessible@DirectUI@@UEAAJAEBU_GUID@@PEAPEAX@Z @3064
    ?QueryInterface@InvokeProvider@DirectUI@@UEAAJAEBU_GUID@@PEAPEAX@Z=C:/Windows/System32/DUI70.?QueryInterface@InvokeProvider@DirectUI@@UEAAJAEBU_GUID@@PEAPEAX@Z @3065
    ?QueryInterface@RangeValueProvider@DirectUI@@UEAAJAEBU_GUID@@PEAPEAX@Z=C:/Windows/System32/DUI70.?QueryInterface@RangeValueProvider@DirectUI@@UEAAJAEBU_GUID@@PEAPEAX@Z @3066
    ?QueryInterface@ScrollItemProvider@DirectUI@@UEAAJAEBU_GUID@@PEAPEAX@Z=C:/Windows/System32/DUI70.?QueryInterface@ScrollItemProvider@DirectUI@@UEAAJAEBU_GUID@@PEAPEAX@Z @3067
    ?QueryInterface@ScrollProvider@DirectUI@@UEAAJAEBU_GUID@@PEAPEAX@Z=C:/Windows/System32/DUI70.?QueryInterface@ScrollProvider@DirectUI@@UEAAJAEBU_GUID@@PEAPEAX@Z @3068
    ?QueryInterface@SelectionItemProvider@DirectUI@@UEAAJAEBU_GUID@@PEAPEAX@Z=C:/Windows/System32/DUI70.?QueryInterface@SelectionItemProvider@DirectUI@@UEAAJAEBU_GUID@@PEAPEAX@Z @3069
    ?QueryInterface@SelectionProvider@DirectUI@@UEAAJAEBU_GUID@@PEAPEAX@Z=C:/Windows/System32/DUI70.?QueryInterface@SelectionProvider@DirectUI@@UEAAJAEBU_GUID@@PEAPEAX@Z @3070
    ?QueryInterface@TableItemProvider@DirectUI@@UEAAJAEBU_GUID@@PEAPEAX@Z=C:/Windows/System32/DUI70.?QueryInterface@TableItemProvider@DirectUI@@UEAAJAEBU_GUID@@PEAPEAX@Z @3071
    ?QueryInterface@TableProvider@DirectUI@@UEAAJAEBU_GUID@@PEAPEAX@Z=C:/Windows/System32/DUI70.?QueryInterface@TableProvider@DirectUI@@UEAAJAEBU_GUID@@PEAPEAX@Z @3072
    ?QueryInterface@ToggleProvider@DirectUI@@UEAAJAEBU_GUID@@PEAPEAX@Z=C:/Windows/System32/DUI70.?QueryInterface@ToggleProvider@DirectUI@@UEAAJAEBU_GUID@@PEAPEAX@Z @3073
    ?QueryInterface@ValueProvider@DirectUI@@UEAAJAEBU_GUID@@PEAPEAX@Z=C:/Windows/System32/DUI70.?QueryInterface@ValueProvider@DirectUI@@UEAAJAEBU_GUID@@PEAPEAX@Z @3074
    ?QueryInterface@XProvider@DirectUI@@UEAAJAEBU_GUID@@PEAPEAX@Z=C:/Windows/System32/DUI70.?QueryInterface@XProvider@DirectUI@@UEAAJAEBU_GUID@@PEAPEAX@Z @3075
    ?QueryService@DuiAccessible@DirectUI@@UEAAJAEBU_GUID@@0PEAPEAX@Z=C:/Windows/System32/DUI70.?QueryService@DuiAccessible@DirectUI@@UEAAJAEBU_GUID@@0PEAPEAX@Z @3076
    ?QueryService@HWNDHostAccessible@DirectUI@@UEAAJAEBU_GUID@@0PEAPEAX@Z=C:/Windows/System32/DUI70.?QueryService@HWNDHostAccessible@DirectUI@@UEAAJAEBU_GUID@@0PEAPEAX@Z @3077
    ?QuerySysMetric@DUIXmlParser@DirectUI@@IEAAHHPEA_N@Z=C:/Windows/System32/DUI70.?QuerySysMetric@DUIXmlParser@DirectUI@@IEAAHHPEA_N@Z @3078
    ?QuerySysMetricStr@DUIXmlParser@DirectUI@@IEAAPEBGHPEAGI@Z=C:/Windows/System32/DUI70.?QuerySysMetricStr@DUIXmlParser@DirectUI@@IEAAPEBGHPEAGI@Z @3079
    ?QueueDefaultAction@Element@DirectUI@@QEAAJXZ=C:/Windows/System32/DUI70.?QueueDefaultAction@Element@DirectUI@@QEAAJXZ @3080
    ?RadioButtonControlType@Schema@DirectUI@@2HA=C:/Windows/System32/DUI70.?RadioButtonControlType@Schema@DirectUI@@2HA @3081
    ?RaiseChildRemovedEvent@EventManager@DirectUI@@CAJAEBUElementRuntimeId@2@PEAVElement@2@@Z=C:/Windows/System32/DUI70.?RaiseChildRemovedEvent@EventManager@DirectUI@@CAJAEBUElementRuntimeId@2@PEAVElement@2@@Z @3082
    ?RaiseGeometryEventWorker@EventManager@DirectUI@@CAJPEAURectangleChange@2@_N111@Z=C:/Windows/System32/DUI70.?RaiseGeometryEventWorker@EventManager@DirectUI@@CAJPEAURectangleChange@2@_N111@Z @3083
    ?RaiseGeometryEvents@EventManager@DirectUI@@CAJXZ=C:/Windows/System32/DUI70.?RaiseGeometryEvents@EventManager@DirectUI@@CAJXZ @3084
    ?RaiseStructureChangedEvent@EventManager@DirectUI@@CAJPEAVElement@2@W4StructureChangeType@@@Z=C:/Windows/System32/DUI70.?RaiseStructureChangedEvent@EventManager@DirectUI@@CAJPEAVElement@2@W4StructureChangeType@@@Z @3085
    ?RaiseStructureEvents@EventManager@DirectUI@@CAJXZ=C:/Windows/System32/DUI70.?RaiseStructureEvents@EventManager@DirectUI@@CAJXZ @3086
    ?RaiseVisibilityEvents@EventManager@DirectUI@@CAJXZ=C:/Windows/System32/DUI70.?RaiseVisibilityEvents@EventManager@DirectUI@@CAJXZ @3087
    ?RangeMaxProp@CCTrackBar@DirectUI@@SAPEBUPropertyInfo@2@XZ=C:/Windows/System32/DUI70.?RangeMaxProp@CCTrackBar@DirectUI@@SAPEBUPropertyInfo@2@XZ @3088
    ?RangeMinProp@CCTrackBar@DirectUI@@SAPEBUPropertyInfo@2@XZ=C:/Windows/System32/DUI70.?RangeMinProp@CCTrackBar@DirectUI@@SAPEBUPropertyInfo@2@XZ @3089
    ?RangeValuePattern@Schema@DirectUI@@2HA=C:/Windows/System32/DUI70.?RangeValuePattern@Schema@DirectUI@@2HA @3090
    ?RangeValue_IsReadOnly_Property@Schema@DirectUI@@2HA=C:/Windows/System32/DUI70.?RangeValue_IsReadOnly_Property@Schema@DirectUI@@2HA @3091
    ?RangeValue_LargeChange_Property@Schema@DirectUI@@2HA=C:/Windows/System32/DUI70.?RangeValue_LargeChange_Property@Schema@DirectUI@@2HA @3092
    ?RangeValue_Maximum_Property@Schema@DirectUI@@2HA=C:/Windows/System32/DUI70.?RangeValue_Maximum_Property@Schema@DirectUI@@2HA @3093
    ?RangeValue_Minimum_Property@Schema@DirectUI@@2HA=C:/Windows/System32/DUI70.?RangeValue_Minimum_Property@Schema@DirectUI@@2HA @3094
    ?RangeValue_SmallChange_Property@Schema@DirectUI@@2HA=C:/Windows/System32/DUI70.?RangeValue_SmallChange_Property@Schema@DirectUI@@2HA @3095
    ?RangeValue_Value_Property@Schema@DirectUI@@2HA=C:/Windows/System32/DUI70.?RangeValue_Value_Property@Schema@DirectUI@@2HA @3096
    ?RawActionProc@AnimationStrip@DirectUI@@KAXPEAUGMA_ACTIONINFO@@@Z=C:/Windows/System32/DUI70.?RawActionProc@AnimationStrip@DirectUI@@KAXPEAUGMA_ACTIONINFO@@@Z @3097
    ?RawActionProc@Movie@DirectUI@@SAXPEAUGMA_ACTIONINFO@@@Z=C:/Windows/System32/DUI70.?RawActionProc@Movie@DirectUI@@SAXPEAUGMA_ACTIONINFO@@@Z @3098
    ?ReadOnlyProp@TouchEditBase@DirectUI@@SAPEBUPropertyInfo@2@XZ=C:/Windows/System32/DUI70.?ReadOnlyProp@TouchEditBase@DirectUI@@SAPEBUPropertyInfo@2@XZ @3099
    ?Recalc@AccessibleButton@DirectUI@@QEAAXXZ=C:/Windows/System32/DUI70.?Recalc@AccessibleButton@DirectUI@@QEAAXXZ @3100
    ?ReferencePointProp@RefPointElement@DirectUI@@SAPEBUPropertyInfo@2@XZ=C:/Windows/System32/DUI70.?ReferencePointProp@RefPointElement@DirectUI@@SAPEBUPropertyInfo@2@XZ @3101
    ?ReflowStyle@PVLAnimation@DirectUI@@SA?AVUID@@XZ=C:/Windows/System32/DUI70.?ReflowStyle@PVLAnimation@DirectUI@@SA?AVUID@@XZ @3102
    ?RefreshContent@TouchEdit2@DirectUI@@UEAAJXZ=C:/Windows/System32/DUI70.?RefreshContent@TouchEdit2@DirectUI@@UEAAJXZ @3103
    ?RefreshContent@TouchEditBase@DirectUI@@UEAAJXZ=C:/Windows/System32/DUI70.?RefreshContent@TouchEditBase@DirectUI@@UEAAJXZ @3104
    ?Register@AccessibleButton@DirectUI@@SAJXZ=C:/Windows/System32/DUI70.?Register@AccessibleButton@DirectUI@@SAJXZ @3105
    ?Register@AnimationStrip@DirectUI@@SAJXZ=C:/Windows/System32/DUI70.?Register@AnimationStrip@DirectUI@@SAJXZ @3106
    ?Register@AutoButton@DirectUI@@SAJXZ=C:/Windows/System32/DUI70.?Register@AutoButton@DirectUI@@SAJXZ @3107
    ?Register@BaseScrollViewer@DirectUI@@SAJXZ=C:/Windows/System32/DUI70.?Register@BaseScrollViewer@DirectUI@@SAJXZ @3108
    ?Register@Bind@DirectUI@@SAJXZ=C:/Windows/System32/DUI70.?Register@Bind@DirectUI@@SAJXZ @3109
    ?Register@Browser@DirectUI@@SAJXZ=C:/Windows/System32/DUI70.?Register@Browser@DirectUI@@SAJXZ @3110
    ?Register@Button@DirectUI@@SAJXZ=C:/Windows/System32/DUI70.?Register@Button@DirectUI@@SAJXZ @3111
    ?Register@CCAVI@DirectUI@@SAJXZ=C:/Windows/System32/DUI70.?Register@CCAVI@DirectUI@@SAJXZ @3112
    ?Register@CCBase@DirectUI@@SAJXZ=C:/Windows/System32/DUI70.?Register@CCBase@DirectUI@@SAJXZ @3113
    ?Register@CCBaseCheckRadioButton@DirectUI@@SAJXZ=C:/Windows/System32/DUI70.?Register@CCBaseCheckRadioButton@DirectUI@@SAJXZ @3114
    ?Register@CCBaseScrollBar@DirectUI@@SAJXZ=C:/Windows/System32/DUI70.?Register@CCBaseScrollBar@DirectUI@@SAJXZ @3115
    ?Register@CCCheckBox@DirectUI@@SAJXZ=C:/Windows/System32/DUI70.?Register@CCCheckBox@DirectUI@@SAJXZ @3116
    ?Register@CCCommandLink@DirectUI@@SAJXZ=C:/Windows/System32/DUI70.?Register@CCCommandLink@DirectUI@@SAJXZ @3117
    ?Register@CCHScrollBar@DirectUI@@SAJXZ=C:/Windows/System32/DUI70.?Register@CCHScrollBar@DirectUI@@SAJXZ @3118
    ?Register@CCListBox@DirectUI@@SAJXZ=C:/Windows/System32/DUI70.?Register@CCListBox@DirectUI@@SAJXZ @3119
    ?Register@CCListView@DirectUI@@SAJXZ=C:/Windows/System32/DUI70.?Register@CCListView@DirectUI@@SAJXZ @3120
    ?Register@CCProgressBar@DirectUI@@SAJXZ=C:/Windows/System32/DUI70.?Register@CCProgressBar@DirectUI@@SAJXZ @3121
    ?Register@CCPushButton@DirectUI@@SAJXZ=C:/Windows/System32/DUI70.?Register@CCPushButton@DirectUI@@SAJXZ @3122
    ?Register@CCRadioButton@DirectUI@@SAJXZ=C:/Windows/System32/DUI70.?Register@CCRadioButton@DirectUI@@SAJXZ @3123
    ?Register@CCSysLink@DirectUI@@SAJXZ=C:/Windows/System32/DUI70.?Register@CCSysLink@DirectUI@@SAJXZ @3124
    ?Register@CCTrackBar@DirectUI@@SAJXZ=C:/Windows/System32/DUI70.?Register@CCTrackBar@DirectUI@@SAJXZ @3125
    ?Register@CCTreeView@DirectUI@@SAJXZ=C:/Windows/System32/DUI70.?Register@CCTreeView@DirectUI@@SAJXZ @3126
    ?Register@CCVScrollBar@DirectUI@@SAJXZ=C:/Windows/System32/DUI70.?Register@CCVScrollBar@DirectUI@@SAJXZ @3127
    ?Register@CheckBoxGlyph@DirectUI@@SAJXZ=C:/Windows/System32/DUI70.?Register@CheckBoxGlyph@DirectUI@@SAJXZ @3128
    ?Register@ClassInfoBase@DirectUI@@QEAAJXZ=C:/Windows/System32/DUI70.?Register@ClassInfoBase@DirectUI@@QEAAJXZ @3129
    ?Register@Clipper@DirectUI@@SAJXZ=C:/Windows/System32/DUI70.?Register@Clipper@DirectUI@@SAJXZ @3130
    ?Register@Combobox@DirectUI@@SAJXZ=C:/Windows/System32/DUI70.?Register@Combobox@DirectUI@@SAJXZ @3131
    ?Register@DialogElement@DirectUI@@SAJXZ=C:/Windows/System32/DUI70.?Register@DialogElement@DirectUI@@SAJXZ @3132
    ?Register@Edit@DirectUI@@SAJXZ=C:/Windows/System32/DUI70.?Register@Edit@DirectUI@@SAJXZ @3133
    ?Register@Element@DirectUI@@SAJXZ=C:/Windows/System32/DUI70.?Register@Element@DirectUI@@SAJXZ @3134
    ?Register@ElementWithHWND@DirectUI@@SAJXZ=C:/Windows/System32/DUI70.?Register@ElementWithHWND@DirectUI@@SAJXZ @3135
    ?Register@Expandable@DirectUI@@SAJXZ=C:/Windows/System32/DUI70.?Register@Expandable@DirectUI@@SAJXZ @3136
    ?Register@Expando@DirectUI@@SAJXZ=C:/Windows/System32/DUI70.?Register@Expando@DirectUI@@SAJXZ @3137
    ?Register@ExpandoButtonGlyph@DirectUI@@SAJXZ=C:/Windows/System32/DUI70.?Register@ExpandoButtonGlyph@DirectUI@@SAJXZ @3138
    ?Register@HWNDElement@DirectUI@@SAJXZ=C:/Windows/System32/DUI70.?Register@HWNDElement@DirectUI@@SAJXZ @3139
    ?Register@HWNDHost@DirectUI@@SAJXZ=C:/Windows/System32/DUI70.?Register@HWNDHost@DirectUI@@SAJXZ @3140
    ?Register@ItemList@DirectUI@@SAJXZ=C:/Windows/System32/DUI70.?Register@ItemList@DirectUI@@SAJXZ @3141
    ?Register@Macro@DirectUI@@SAJXZ=C:/Windows/System32/DUI70.?Register@Macro@DirectUI@@SAJXZ @3142
    ?Register@ModernProgressBar@DirectUI@@SAJXZ=C:/Windows/System32/DUI70.?Register@ModernProgressBar@DirectUI@@SAJXZ @3143
    ?Register@ModernProgressRing@DirectUI@@SAJXZ=C:/Windows/System32/DUI70.?Register@ModernProgressRing@DirectUI@@SAJXZ @3144
    ?Register@Movie@DirectUI@@SAJXZ=C:/Windows/System32/DUI70.?Register@Movie@DirectUI@@SAJXZ @3145
    ?Register@Navigator@DirectUI@@SAJXZ=C:/Windows/System32/DUI70.?Register@Navigator@DirectUI@@SAJXZ @3146
    ?Register@PText@DirectUI@@SAJXZ=C:/Windows/System32/DUI70.?Register@PText@DirectUI@@SAJXZ @3147
    ?Register@Page@DirectUI@@SAJXZ=C:/Windows/System32/DUI70.?Register@Page@DirectUI@@SAJXZ @3148
    ?Register@Pages@DirectUI@@SAJXZ=C:/Windows/System32/DUI70.?Register@Pages@DirectUI@@SAJXZ @3149
    ?Register@Progress@DirectUI@@SAJXZ=C:/Windows/System32/DUI70.?Register@Progress@DirectUI@@SAJXZ @3150
    ?Register@PushButton@DirectUI@@SAJXZ=C:/Windows/System32/DUI70.?Register@PushButton@DirectUI@@SAJXZ @3151
    ?Register@RadioButtonGlyph@DirectUI@@SAJXZ=C:/Windows/System32/DUI70.?Register@RadioButtonGlyph@DirectUI@@SAJXZ @3152
    ?Register@RefPointElement@DirectUI@@SAJXZ=C:/Windows/System32/DUI70.?Register@RefPointElement@DirectUI@@SAJXZ @3153
    ?Register@RepeatButton@DirectUI@@SAJXZ=C:/Windows/System32/DUI70.?Register@RepeatButton@DirectUI@@SAJXZ @3154
    ?Register@Repeater@DirectUI@@SAJXZ=C:/Windows/System32/DUI70.?Register@Repeater@DirectUI@@SAJXZ @3155
    ?Register@RichText@DirectUI@@SAJXZ=C:/Windows/System32/DUI70.?Register@RichText@DirectUI@@SAJXZ @3156
    ?Register@ScrollBar@DirectUI@@SAJXZ=C:/Windows/System32/DUI70.?Register@ScrollBar@DirectUI@@SAJXZ @3157
    ?Register@ScrollViewer@DirectUI@@SAJXZ=C:/Windows/System32/DUI70.?Register@ScrollViewer@DirectUI@@SAJXZ @3158
    ?Register@Selector@DirectUI@@SAJXZ=C:/Windows/System32/DUI70.?Register@Selector@DirectUI@@SAJXZ @3159
    ?Register@SelectorNoDefault@DirectUI@@SAJXZ=C:/Windows/System32/DUI70.?Register@SelectorNoDefault@DirectUI@@SAJXZ @3160
    ?Register@SemanticZoomToggle@DirectUI@@SAJXZ=C:/Windows/System32/DUI70.?Register@SemanticZoomToggle@DirectUI@@SAJXZ @3161
    ?Register@StyledScrollViewer@DirectUI@@SAJXZ=C:/Windows/System32/DUI70.?Register@StyledScrollViewer@DirectUI@@SAJXZ @3162
    ?Register@TextGraphic@DirectUI@@SAJXZ=C:/Windows/System32/DUI70.?Register@TextGraphic@DirectUI@@SAJXZ @3163
    ?Register@Thumb@DirectUI@@SAJXZ=C:/Windows/System32/DUI70.?Register@Thumb@DirectUI@@SAJXZ @3164
    ?Register@TouchButton@DirectUI@@SAJXZ=C:/Windows/System32/DUI70.?Register@TouchButton@DirectUI@@SAJXZ @3165
    ?Register@TouchCheckBox@DirectUI@@SAJXZ=C:/Windows/System32/DUI70.?Register@TouchCheckBox@DirectUI@@SAJXZ @3166
    ?Register@TouchCheckBoxGlyph@DirectUI@@SAJXZ=C:/Windows/System32/DUI70.?Register@TouchCheckBoxGlyph@DirectUI@@SAJXZ @3167
    ?Register@TouchCommandButton@DirectUI@@SAJXZ=C:/Windows/System32/DUI70.?Register@TouchCommandButton@DirectUI@@SAJXZ @3168
    ?Register@TouchEdit2@DirectUI@@SAJXZ=C:/Windows/System32/DUI70.?Register@TouchEdit2@DirectUI@@SAJXZ @3169
    ?Register@TouchEditBase@DirectUI@@SAJXZ=C:/Windows/System32/DUI70.?Register@TouchEditBase@DirectUI@@SAJXZ @3170
    ?Register@TouchHWNDElement@DirectUI@@SAJXZ=C:/Windows/System32/DUI70.?Register@TouchHWNDElement@DirectUI@@SAJXZ @3171
    ?Register@TouchHyperLink@DirectUI@@SAJXZ=C:/Windows/System32/DUI70.?Register@TouchHyperLink@DirectUI@@SAJXZ @3172
    ?Register@TouchRepeatButton@DirectUI@@SAJXZ=C:/Windows/System32/DUI70.?Register@TouchRepeatButton@DirectUI@@SAJXZ @3173
    ?Register@TouchScrollBar@DirectUI@@SAJXZ=C:/Windows/System32/DUI70.?Register@TouchScrollBar@DirectUI@@SAJXZ @3174
    ?Register@TouchSelect@DirectUI@@SAJXZ=C:/Windows/System32/DUI70.?Register@TouchSelect@DirectUI@@SAJXZ @3175
    ?Register@TouchSelectItem@DirectUI@@SAJXZ=C:/Windows/System32/DUI70.?Register@TouchSelectItem@DirectUI@@SAJXZ @3176
    ?Register@TouchSlider@DirectUI@@SAJXZ=C:/Windows/System32/DUI70.?Register@TouchSlider@DirectUI@@SAJXZ @3177
    ?Register@TouchSwitch@DirectUI@@SAJXZ=C:/Windows/System32/DUI70.?Register@TouchSwitch@DirectUI@@SAJXZ @3178
    ?Register@UnknownElement@DirectUI@@SAJXZ=C:/Windows/System32/DUI70.?Register@UnknownElement@DirectUI@@SAJXZ @3179
    ?Register@Viewer@DirectUI@@SAJXZ=C:/Windows/System32/DUI70.?Register@Viewer@DirectUI@@SAJXZ @3180
    ?Register@XBaby@DirectUI@@SAJXZ=C:/Windows/System32/DUI70.?Register@XBaby@DirectUI@@SAJXZ @3181
    ?Register@XElement@DirectUI@@SAJXZ=C:/Windows/System32/DUI70.?Register@XElement@DirectUI@@SAJXZ @3182
    ?RegisterForAnimationStatusChanges@TouchHWNDElement@DirectUI@@QEAAXXZ=C:/Windows/System32/DUI70.?RegisterForAnimationStatusChanges@TouchHWNDElement@DirectUI@@QEAAXXZ @3183
    ?RegisterForIHMChanges@TouchHWNDElement@DirectUI@@QEAAJXZ=C:/Windows/System32/DUI70.?RegisterForIHMChanges@TouchHWNDElement@DirectUI@@QEAAJXZ @3184
    ?RegisterForMonitorPowerChanges@TouchHWNDElement@DirectUI@@QEAAJXZ=C:/Windows/System32/DUI70.?RegisterForMonitorPowerChanges@TouchHWNDElement@DirectUI@@QEAAJXZ @3185
    ?RegisteredDefaultButtonProp@DialogElement@DirectUI@@SAPEBUPropertyInfo@2@XZ=C:/Windows/System32/DUI70.?RegisteredDefaultButtonProp@DialogElement@DirectUI@@SAPEBUPropertyInfo@2@XZ @3186
    ?Release@ClassInfoBase@DirectUI@@UEAAHXZ=C:/Windows/System32/DUI70.?Release@ClassInfoBase@DirectUI@@UEAAHXZ @3187
    ?Release@DuiAccessible@DirectUI@@UEAAKXZ=C:/Windows/System32/DUI70.?Release@DuiAccessible@DirectUI@@UEAAKXZ @3188
    ?Release@Element@DirectUI@@QEAAKXZ=C:/Windows/System32/DUI70.?Release@Element@DirectUI@@QEAAKXZ @3189
    ?Release@ElementProvider@DirectUI@@UEAAKXZ=C:/Windows/System32/DUI70.?Release@ElementProvider@DirectUI@@UEAAKXZ @3190
    ?Release@ExpandCollapseProvider@DirectUI@@UEAAKXZ=C:/Windows/System32/DUI70.?Release@ExpandCollapseProvider@DirectUI@@UEAAKXZ @3191
    ?Release@GridItemProvider@DirectUI@@UEAAKXZ=C:/Windows/System32/DUI70.?Release@GridItemProvider@DirectUI@@UEAAKXZ @3192
    ?Release@GridProvider@DirectUI@@UEAAKXZ=C:/Windows/System32/DUI70.?Release@GridProvider@DirectUI@@UEAAKXZ @3193
    ?Release@HWNDElementProvider@DirectUI@@UEAAKXZ=C:/Windows/System32/DUI70.?Release@HWNDElementProvider@DirectUI@@UEAAKXZ @3194
    ?Release@InvokeProvider@DirectUI@@UEAAKXZ=C:/Windows/System32/DUI70.?Release@InvokeProvider@DirectUI@@UEAAKXZ @3195
    ?Release@RangeValueProvider@DirectUI@@UEAAKXZ=C:/Windows/System32/DUI70.?Release@RangeValueProvider@DirectUI@@UEAAKXZ @3196
    ?Release@RefcountBase@DirectUI@@QEAAJXZ=C:/Windows/System32/DUI70.?Release@RefcountBase@DirectUI@@QEAAJXZ @3197
    ?Release@ScrollItemProvider@DirectUI@@UEAAKXZ=C:/Windows/System32/DUI70.?Release@ScrollItemProvider@DirectUI@@UEAAKXZ @3198
    ?Release@ScrollProvider@DirectUI@@UEAAKXZ=C:/Windows/System32/DUI70.?Release@ScrollProvider@DirectUI@@UEAAKXZ @3199
    ?Release@SelectionItemProvider@DirectUI@@UEAAKXZ=C:/Windows/System32/DUI70.?Release@SelectionItemProvider@DirectUI@@UEAAKXZ @3200
    ?Release@SelectionProvider@DirectUI@@UEAAKXZ=C:/Windows/System32/DUI70.?Release@SelectionProvider@DirectUI@@UEAAKXZ @3201
    ?Release@TableItemProvider@DirectUI@@UEAAKXZ=C:/Windows/System32/DUI70.?Release@TableItemProvider@DirectUI@@UEAAKXZ @3202
    ?Release@TableProvider@DirectUI@@UEAAKXZ=C:/Windows/System32/DUI70.?Release@TableProvider@DirectUI@@UEAAKXZ @3203
    ?Release@ToggleProvider@DirectUI@@UEAAKXZ=C:/Windows/System32/DUI70.?Release@ToggleProvider@DirectUI@@UEAAKXZ @3204
    ?Release@Value@DirectUI@@QEAAXXZ=C:/Windows/System32/DUI70.?Release@Value@DirectUI@@QEAAXXZ @3205
    ?Release@ValueProvider@DirectUI@@UEAAKXZ=C:/Windows/System32/DUI70.?Release@ValueProvider@DirectUI@@UEAAKXZ @3206
    ?Release@XProvider@DirectUI@@UEAAKXZ=C:/Windows/System32/DUI70.?Release@XProvider@DirectUI@@UEAAKXZ @3207
    ?ReleaseSnapshot@TouchScrollViewer@DirectUI@@SA?AVUID@@XZ=C:/Windows/System32/DUI70.?ReleaseSnapshot@TouchScrollViewer@DirectUI@@SA?AVUID@@XZ @3208
    ?ReloadIcon@Value@DirectUI@@CAPEAUHICON__@@PEAUGraphic@2@M@Z=C:/Windows/System32/DUI70.?ReloadIcon@Value@DirectUI@@CAPEAUHICON__@@PEAUGraphic@2@M@Z @3209
    ?Remove@Element@DirectUI@@QEAAJPEAV12@@Z=C:/Windows/System32/DUI70.?Remove@Element@DirectUI@@QEAAJPEAV12@@Z @3210
    ?Remove@Element@DirectUI@@UEAAJPEAPEAV12@I@Z=C:/Windows/System32/DUI70.?Remove@Element@DirectUI@@UEAAJPEAPEAV12@I@Z @3211
    ?Remove@ElementProviderManager@DirectUI@@SAXPEAVElementProvider@2@@Z=C:/Windows/System32/DUI70.?Remove@ElementProviderManager@DirectUI@@SAXPEAVElementProvider@2@@Z @3212
    ?Remove@LinkedList@DirectUI@@QEAAXPEAVLinkedListNode@2@@Z=C:/Windows/System32/DUI70.?Remove@LinkedList@DirectUI@@QEAAXPEAVLinkedListNode@2@@Z @3213
    ?RemoveAll@Element@DirectUI@@QEAAJXZ=C:/Windows/System32/DUI70.?RemoveAll@Element@DirectUI@@QEAAJXZ @3214
    ?RemoveAll@TouchSelect@DirectUI@@QEAAXXZ=C:/Windows/System32/DUI70.?RemoveAll@TouchSelect@DirectUI@@QEAAXXZ @3215
    ?RemoveBehavior@Element@DirectUI@@UEAAJPEAUIDuiBehavior@@@Z=C:/Windows/System32/DUI70.?RemoveBehavior@Element@DirectUI@@UEAAJPEAUIDuiBehavior@@@Z @3216
    ?RemoveChild@ClassInfoBase@DirectUI@@UEAAXXZ=C:/Windows/System32/DUI70.?RemoveChild@ClassInfoBase@DirectUI@@UEAAXXZ @3217
    ?RemoveFromSelection@SelectionItemProvider@DirectUI@@UEAAJXZ=C:/Windows/System32/DUI70.?RemoveFromSelection@SelectionItemProvider@DirectUI@@UEAAJXZ @3218
    ?RemoveItem@TouchSelect@DirectUI@@QEAAJH@Z=C:/Windows/System32/DUI70.?RemoveItem@TouchSelect@DirectUI@@QEAAJH@Z @3219
    ?RemoveListener@Element@DirectUI@@QEAAXPEAUIElementListener@2@@Z=C:/Windows/System32/DUI70.?RemoveListener@Element@DirectUI@@QEAAXPEAUIElementListener@2@@Z @3220
    ?RemoveLocalValue@Element@DirectUI@@QEAAJP6APEBUPropertyInfo@2@XZ@Z=C:/Windows/System32/DUI70.?RemoveLocalValue@Element@DirectUI@@QEAAJP6APEBUPropertyInfo@2@XZ@Z @3221
    ?RemoveLocalValue@Element@DirectUI@@QEAAJPEBUPropertyInfo@2@@Z=C:/Windows/System32/DUI70.?RemoveLocalValue@Element@DirectUI@@QEAAJPEBUPropertyInfo@2@@Z @3222
    ?RemoveRichDuiTooltip@TouchSlider@DirectUI@@QEAAXXZ=C:/Windows/System32/DUI70.?RemoveRichDuiTooltip@TouchSlider@DirectUI@@QEAAXXZ @3223
    ?RemoveShortcutFromName@Element@DirectUI@@AEAAPEAGPEBG@Z=C:/Windows/System32/DUI70.?RemoveShortcutFromName@Element@DirectUI@@AEAAPEAGPEBG@Z @3224
    ?RemoveTail@LinkedList@DirectUI@@QEAAPEAVLinkedListNode@2@XZ=C:/Windows/System32/DUI70.?RemoveTail@LinkedList@DirectUI@@QEAAPEAVLinkedListNode@2@XZ @3225
    ?RemoveTooltip@Element@DirectUI@@MEAAXPEAV12@@Z=C:/Windows/System32/DUI70.?RemoveTooltip@Element@DirectUI@@MEAAXPEAV12@@Z @3226
    ?RemoveTooltip@HWNDElement@DirectUI@@UEAAXPEAVElement@2@@Z=C:/Windows/System32/DUI70.?RemoveTooltip@HWNDElement@DirectUI@@UEAAXPEAVElement@2@@Z @3227
    ?RemoveTooltip@TouchHWNDElement@DirectUI@@UEAAXPEAVElement@2@@Z=C:/Windows/System32/DUI70.?RemoveTooltip@TouchHWNDElement@DirectUI@@UEAAXPEAVElement@2@@Z @3228
    ?RepeatClick@TouchRepeatButton@DirectUI@@SA?AVUID@@XZ=C:/Windows/System32/DUI70.?RepeatClick@TouchRepeatButton@DirectUI@@SA?AVUID@@XZ @3229
    ?RepeatProp@Movie@DirectUI@@SAPEBUPropertyInfo@2@XZ=C:/Windows/System32/DUI70.?RepeatProp@Movie@DirectUI@@SAPEBUPropertyInfo@2@XZ @3230
    ?Reset@DuiAccessible@DirectUI@@UEAAJXZ=C:/Windows/System32/DUI70.?Reset@DuiAccessible@DirectUI@@UEAAJXZ @3231
    ?Reset@HWNDHostAccessible@DirectUI@@UEAAJXZ=C:/Windows/System32/DUI70.?Reset@HWNDHostAccessible@DirectUI@@UEAAJXZ @3232
    ?ResetInputState@TouchScrollViewer@DirectUI@@QEAAJXZ=C:/Windows/System32/DUI70.?ResetInputState@TouchScrollViewer@DirectUI@@QEAAJXZ @3233
    ?ResetManipulations@TouchScrollViewer@DirectUI@@QEAAJXZ=C:/Windows/System32/DUI70.?ResetManipulations@TouchScrollViewer@DirectUI@@QEAAJXZ @3234
    ?ResolveBindings@Macro@DirectUI@@IEAAXXZ=C:/Windows/System32/DUI70.?ResolveBindings@Macro@DirectUI@@IEAAXXZ @3235
    ?RestoreFocus@NativeHWNDHost@DirectUI@@QEAAHXZ=C:/Windows/System32/DUI70.?RestoreFocus@NativeHWNDHost@DirectUI@@QEAAHXZ @3236
    ?Resume@Movie@DirectUI@@QEAAXXZ=C:/Windows/System32/DUI70.?Resume@Movie@DirectUI@@QEAAXXZ @3237
    ?ReturnValueParser@DUIXmlParser@DirectUI@@IEAAXPEAVValueParser@ParserTools@2@@Z=C:/Windows/System32/DUI70.?ReturnValueParser@DUIXmlParser@DirectUI@@IEAAXPEAVValueParser@ParserTools@2@@Z @3238
    ?Rewind@Movie@DirectUI@@QEAAXXZ=C:/Windows/System32/DUI70.?Rewind@Movie@DirectUI@@QEAAXXZ @3239
    ?RichTooltipShowing@TouchHWNDElement@DirectUI@@SA?AVUID@@XZ=C:/Windows/System32/DUI70.?RichTooltipShowing@TouchHWNDElement@DirectUI@@SA?AVUID@@XZ @3240
    ?RightClick@TouchButton@DirectUI@@SA?AVUID@@XZ=C:/Windows/System32/DUI70.?RightClick@TouchButton@DirectUI@@SA?AVUID@@XZ @3241
    ?RuntimeIdProperty@Schema@DirectUI@@2HA=C:/Windows/System32/DUI70.?RuntimeIdProperty@Schema@DirectUI@@2HA @3242
    ?STACKDEPTH@CallstackTracker@DirectUI@@0HB=C:/Windows/System32/DUI70.?STACKDEPTH@CallstackTracker@DirectUI@@0HB @3243
    ?SaveFocus@NativeHWNDHost@DirectUI@@QEAAXXZ=C:/Windows/System32/DUI70.?SaveFocus@NativeHWNDHost@DirectUI@@QEAAXXZ @3244
    ?ScaleChanged@TouchHWNDElement@DirectUI@@SA?AVUID@@XZ=C:/Windows/System32/DUI70.?ScaleChanged@TouchHWNDElement@DirectUI@@SA?AVUID@@XZ @3245
    ?ScaleFactorProp@Element@DirectUI@@SAPEBUPropertyInfo@2@XZ=C:/Windows/System32/DUI70.?ScaleFactorProp@Element@DirectUI@@SAPEBUPropertyInfo@2@XZ @3246
    ?Scroll@BaseScrollBar@DirectUI@@SA?AVUID@@XZ=C:/Windows/System32/DUI70.?Scroll@BaseScrollBar@DirectUI@@SA?AVUID@@XZ @3247
    ?Scroll@ScrollProvider@DirectUI@@UEAAJW4ScrollAmount@@0@Z=C:/Windows/System32/DUI70.?Scroll@ScrollProvider@DirectUI@@UEAAJW4ScrollAmount@@0@Z @3248
    ?Scroll@ScrollProxy@DirectUI@@AEAAJW4ScrollAmount@@0@Z=C:/Windows/System32/DUI70.?Scroll@ScrollProxy@DirectUI@@AEAAJW4ScrollAmount@@0@Z @3249
    ?ScrollBarControlType@Schema@DirectUI@@2HA=C:/Windows/System32/DUI70.?ScrollBarControlType@Schema@DirectUI@@2HA @3250
    ?ScrollIntoView@ScrollItemProvider@DirectUI@@UEAAJXZ=C:/Windows/System32/DUI70.?ScrollIntoView@ScrollItemProvider@DirectUI@@UEAAJXZ @3251
    ?ScrollItemPattern@Schema@DirectUI@@2HA=C:/Windows/System32/DUI70.?ScrollItemPattern@Schema@DirectUI@@2HA @3252
    ?ScrollLine@ScrollProxy@DirectUI@@AEAAJ_N0@Z=C:/Windows/System32/DUI70.?ScrollLine@ScrollProxy@DirectUI@@AEAAJ_N0@Z @3253
    ?ScrollPaddingProp@TouchScrollViewer@DirectUI@@SAPEBUPropertyInfo@2@XZ=C:/Windows/System32/DUI70.?ScrollPaddingProp@TouchScrollViewer@DirectUI@@SAPEBUPropertyInfo@2@XZ @3254
    ?ScrollPage@ScrollProxy@DirectUI@@AEAAJ_N0@Z=C:/Windows/System32/DUI70.?ScrollPage@ScrollProxy@DirectUI@@AEAAJ_N0@Z @3255
    ?ScrollPattern@Schema@DirectUI@@2HA=C:/Windows/System32/DUI70.?ScrollPattern@Schema@DirectUI@@2HA @3256
    ?ScrollToHorizontalPosition@ScrollProxy@DirectUI@@AEAAJH_N@Z=C:/Windows/System32/DUI70.?ScrollToHorizontalPosition@ScrollProxy@DirectUI@@AEAAJH_N@Z @3257
    ?ScrollToVerticalPosition@ScrollProxy@DirectUI@@AEAAJH_N@Z=C:/Windows/System32/DUI70.?ScrollToVerticalPosition@ScrollProxy@DirectUI@@AEAAJH_N@Z @3258
    ?Scroll_HorizontalScrollPercent_Property@Schema@DirectUI@@2HA=C:/Windows/System32/DUI70.?Scroll_HorizontalScrollPercent_Property@Schema@DirectUI@@2HA @3259
    ?Scroll_HorizontalViewSize_Property@Schema@DirectUI@@2HA=C:/Windows/System32/DUI70.?Scroll_HorizontalViewSize_Property@Schema@DirectUI@@2HA @3260
    ?Scroll_HorizontallyScrollable_Property@Schema@DirectUI@@2HA=C:/Windows/System32/DUI70.?Scroll_HorizontallyScrollable_Property@Schema@DirectUI@@2HA @3261
    ?Scroll_VerticalScrollPercent_Property@Schema@DirectUI@@2HA=C:/Windows/System32/DUI70.?Scroll_VerticalScrollPercent_Property@Schema@DirectUI@@2HA @3262
    ?Scroll_VerticalViewSize_Property@Schema@DirectUI@@2HA=C:/Windows/System32/DUI70.?Scroll_VerticalViewSize_Property@Schema@DirectUI@@2HA @3263
    ?Scroll_VerticallyScrollable_Property@Schema@DirectUI@@2HA=C:/Windows/System32/DUI70.?Scroll_VerticallyScrollable_Property@Schema@DirectUI@@2HA @3264
    ?Select@SelectionItemProvider@DirectUI@@UEAAJXZ=C:/Windows/System32/DUI70.?Select@SelectionItemProvider@DirectUI@@UEAAJXZ @3265
    ?Select@SelectorSelectionItemProxy@DirectUI@@AEAAJXZ=C:/Windows/System32/DUI70.?Select@SelectorSelectionItemProxy@DirectUI@@AEAAJXZ @3266
    ?SelectAll@TouchEdit2@DirectUI@@QEAAJXZ=C:/Windows/System32/DUI70.?SelectAll@TouchEdit2@DirectUI@@QEAAJXZ @3267
    ?SelectNone@TouchEdit2@DirectUI@@QEAAJXZ=C:/Windows/System32/DUI70.?SelectNone@TouchEdit2@DirectUI@@QEAAJXZ @3268
    ?SelectedProp@Element@DirectUI@@SAPEBUPropertyInfo@2@XZ=C:/Windows/System32/DUI70.?SelectedProp@Element@DirectUI@@SAPEBUPropertyInfo@2@XZ @3269
    ?SelectionBackgroundColorProp@TouchEditBase@DirectUI@@SAPEBUPropertyInfo@2@XZ=C:/Windows/System32/DUI70.?SelectionBackgroundColorProp@TouchEditBase@DirectUI@@SAPEBUPropertyInfo@2@XZ @3270
    ?SelectionChange@Combobox@DirectUI@@SA?AVUID@@XZ=C:/Windows/System32/DUI70.?SelectionChange@Combobox@DirectUI@@SA?AVUID@@XZ @3271
    ?SelectionChange@Selector@DirectUI@@SA?AVUID@@XZ=C:/Windows/System32/DUI70.?SelectionChange@Selector@DirectUI@@SA?AVUID@@XZ @3272
    ?SelectionChange@TouchSelect@DirectUI@@SA?AVUID@@XZ=C:/Windows/System32/DUI70.?SelectionChange@TouchSelect@DirectUI@@SA?AVUID@@XZ @3273
    ?SelectionForegroundColorProp@TouchEditBase@DirectUI@@SAPEBUPropertyInfo@2@XZ=C:/Windows/System32/DUI70.?SelectionForegroundColorProp@TouchEditBase@DirectUI@@SAPEBUPropertyInfo@2@XZ @3274
    ?SelectionInvalidatedEvent@Schema@DirectUI@@2HA=C:/Windows/System32/DUI70.?SelectionInvalidatedEvent@Schema@DirectUI@@2HA @3275
    ?SelectionItemElementAddedToSelectionEvent@Schema@DirectUI@@2HA=C:/Windows/System32/DUI70.?SelectionItemElementAddedToSelectionEvent@Schema@DirectUI@@2HA @3276
    ?SelectionItemElementRemovedFromSelectionEvent@Schema@DirectUI@@2HA=C:/Windows/System32/DUI70.?SelectionItemElementRemovedFromSelectionEvent@Schema@DirectUI@@2HA @3277
    ?SelectionItemElementSelectedEvent@Schema@DirectUI@@2HA=C:/Windows/System32/DUI70.?SelectionItemElementSelectedEvent@Schema@DirectUI@@2HA @3278
    ?SelectionItemPattern@Schema@DirectUI@@2HA=C:/Windows/System32/DUI70.?SelectionItemPattern@Schema@DirectUI@@2HA @3279
    ?SelectionItem_IsSelected_Property@Schema@DirectUI@@2HA=C:/Windows/System32/DUI70.?SelectionItem_IsSelected_Property@Schema@DirectUI@@2HA @3280
    ?SelectionItem_SelectionContainer_Property@Schema@DirectUI@@2HA=C:/Windows/System32/DUI70.?SelectionItem_SelectionContainer_Property@Schema@DirectUI@@2HA @3281
    ?SelectionPattern@Schema@DirectUI@@2HA=C:/Windows/System32/DUI70.?SelectionPattern@Schema@DirectUI@@2HA @3282
    ?SelectionProp@Combobox@DirectUI@@SAPEBUPropertyInfo@2@XZ=C:/Windows/System32/DUI70.?SelectionProp@Combobox@DirectUI@@SAPEBUPropertyInfo@2@XZ @3283
    ?SelectionProp@Selector@DirectUI@@SAPEBUPropertyInfo@2@XZ=C:/Windows/System32/DUI70.?SelectionProp@Selector@DirectUI@@SAPEBUPropertyInfo@2@XZ @3284
    ?SelectionProp@TouchSelect@DirectUI@@SAPEBUPropertyInfo@2@XZ=C:/Windows/System32/DUI70.?SelectionProp@TouchSelect@DirectUI@@SAPEBUPropertyInfo@2@XZ @3285
    ?Selection_CanSelectMultiple_Property@Schema@DirectUI@@2HA=C:/Windows/System32/DUI70.?Selection_CanSelectMultiple_Property@Schema@DirectUI@@2HA @3286
    ?Selection_IsSelectionRequired_Property@Schema@DirectUI@@2HA=C:/Windows/System32/DUI70.?Selection_IsSelectionRequired_Property@Schema@DirectUI@@2HA @3287
    ?Selection_Selection_Property@Schema@DirectUI@@2HA=C:/Windows/System32/DUI70.?Selection_Selection_Property@Schema@DirectUI@@2HA @3288
    ?SemanticChange@TouchScrollViewer@DirectUI@@SA?AVUID@@XZ=C:/Windows/System32/DUI70.?SemanticChange@TouchScrollViewer@DirectUI@@SA?AVUID@@XZ @3289
    ?SemanticZoomControlType@Schema@DirectUI@@2HA=C:/Windows/System32/DUI70.?SemanticZoomControlType@Schema@DirectUI@@2HA @3290
    ?SendParseError@DUIXmlParser@DirectUI@@IEAAXPEBG0HHJ@Z=C:/Windows/System32/DUI70.?SendParseError@DUIXmlParser@DirectUI@@IEAAXPEBG0HHJ@Z @3291
    ?SendParseError@DUIXmlParser@DirectUI@@IEAAXPEBG0PEAUIXmlReader@@J@Z=C:/Windows/System32/DUI70.?SendParseError@DUIXmlParser@DirectUI@@IEAAXPEBG0PEAUIXmlReader@@J@Z @3292
    ?SeparatorControlType@Schema@DirectUI@@2HA=C:/Windows/System32/DUI70.?SeparatorControlType@Schema@DirectUI@@2HA @3293
    ?SetAbsorbsShortcut@Element@DirectUI@@QEAAJ_N@Z=C:/Windows/System32/DUI70.?SetAbsorbsShortcut@Element@DirectUI@@QEAAJ_N@Z @3294
    ?SetAccDefAction@Element@DirectUI@@QEAAJPEBG@Z=C:/Windows/System32/DUI70.?SetAccDefAction@Element@DirectUI@@QEAAJPEBG@Z @3295
    ?SetAccDesc@Element@DirectUI@@QEAAJPEBG@Z=C:/Windows/System32/DUI70.?SetAccDesc@Element@DirectUI@@QEAAJPEBG@Z @3296
    ?SetAccHelp@Element@DirectUI@@QEAAJPEBG@Z=C:/Windows/System32/DUI70.?SetAccHelp@Element@DirectUI@@QEAAJPEBG@Z @3297
    ?SetAccItemStatus@Element@DirectUI@@QEAAJPEBG@Z=C:/Windows/System32/DUI70.?SetAccItemStatus@Element@DirectUI@@QEAAJPEBG@Z @3298
    ?SetAccItemType@Element@DirectUI@@QEAAJPEBG@Z=C:/Windows/System32/DUI70.?SetAccItemType@Element@DirectUI@@QEAAJPEBG@Z @3299
    ?SetAccName@Element@DirectUI@@QEAAJPEBG@Z=C:/Windows/System32/DUI70.?SetAccName@Element@DirectUI@@QEAAJPEBG@Z @3300
    ?SetAccRole@Element@DirectUI@@QEAAJH@Z=C:/Windows/System32/DUI70.?SetAccRole@Element@DirectUI@@QEAAJH@Z @3301
    ?SetAccState@Element@DirectUI@@QEAAJH@Z=C:/Windows/System32/DUI70.?SetAccState@Element@DirectUI@@QEAAJH@Z @3302
    ?SetAccValue@Element@DirectUI@@QEAAJPEBG@Z=C:/Windows/System32/DUI70.?SetAccValue@Element@DirectUI@@QEAAJPEBG@Z @3303
    ?SetAccessible@Element@DirectUI@@QEAAJ_N@Z=C:/Windows/System32/DUI70.?SetAccessible@Element@DirectUI@@QEAAJ_N@Z @3304
    ?SetActive@Element@DirectUI@@QEAAJH@Z=C:/Windows/System32/DUI70.?SetActive@Element@DirectUI@@QEAAJH@Z @3305
    ?SetActiveState@TouchScrollBar@DirectUI@@QEAAXW4ActiveState@2@_N@Z=C:/Windows/System32/DUI70.?SetActiveState@TouchScrollBar@DirectUI@@QEAAXW4ActiveState@2@_N@Z @3306
    ?SetActivityOccuring@ModernProgressBar@DirectUI@@QEAAJ_N@Z=C:/Windows/System32/DUI70.?SetActivityOccuring@ModernProgressBar@DirectUI@@QEAAJ_N@Z @3307
    ?SetActivityOccuring@ModernProgressRing@DirectUI@@QEAAJ_N@Z=C:/Windows/System32/DUI70.?SetActivityOccuring@ModernProgressRing@DirectUI@@QEAAJ_N@Z @3308
    ?SetAddLayeredRef@ModernProgressBar@DirectUI@@QEAAJ_N@Z=C:/Windows/System32/DUI70.?SetAddLayeredRef@ModernProgressBar@DirectUI@@QEAAJ_N@Z @3309
    ?SetAddLayeredRef@ModernProgressRing@DirectUI@@QEAAJ_N@Z=C:/Windows/System32/DUI70.?SetAddLayeredRef@ModernProgressRing@DirectUI@@QEAAJ_N@Z @3310
    ?SetAliasedRendering@RichText@DirectUI@@QEAAJ_N@Z=C:/Windows/System32/DUI70.?SetAliasedRendering@RichText@DirectUI@@QEAAJ_N@Z @3311
    ?SetAllowArrowOut@TouchScrollViewer@DirectUI@@QEAAJ_N@Z=C:/Windows/System32/DUI70.?SetAllowArrowOut@TouchScrollViewer@DirectUI@@QEAAJ_N@Z @3312
    ?SetAlpha@Element@DirectUI@@QEAAJH@Z=C:/Windows/System32/DUI70.?SetAlpha@Element@DirectUI@@QEAAJH@Z @3313
    ?SetAnimatePopupOnDismiss@TouchSelect@DirectUI@@QEAAJ_N@Z=C:/Windows/System32/DUI70.?SetAnimatePopupOnDismiss@TouchSelect@DirectUI@@QEAAJ_N@Z @3314
    ?SetAnimation@Element@DirectUI@@QEAAJH@Z=C:/Windows/System32/DUI70.?SetAnimation@Element@DirectUI@@QEAAJH@Z @3315
    ?SetAutoGrouping@CCRadioButton@DirectUI@@QEAAJ_N@Z=C:/Windows/System32/DUI70.?SetAutoGrouping@CCRadioButton@DirectUI@@QEAAJ_N@Z @3316
    ?SetAutoHeight@ModernProgressBar@DirectUI@@QEAAJ_N@Z=C:/Windows/System32/DUI70.?SetAutoHeight@ModernProgressBar@DirectUI@@QEAAJ_N@Z @3317
    ?SetAutoStart@Movie@DirectUI@@QEAAJ_N@Z=C:/Windows/System32/DUI70.?SetAutoStart@Movie@DirectUI@@QEAAJ_N@Z @3318
    ?SetAutoStop@Movie@DirectUI@@QEAAJ_N@Z=C:/Windows/System32/DUI70.?SetAutoStop@Movie@DirectUI@@QEAAJ_N@Z @3319
    ?SetBackgroundColor@Element@DirectUI@@QEAAJAEBUFill@2@@Z=C:/Windows/System32/DUI70.?SetBackgroundColor@Element@DirectUI@@QEAAJAEBUFill@2@@Z @3320
    ?SetBackgroundColor@Element@DirectUI@@QEAAJK@Z=C:/Windows/System32/DUI70.?SetBackgroundColor@Element@DirectUI@@QEAAJK@Z @3321
    ?SetBackgroundColor@Element@DirectUI@@QEAAJKKE@Z=C:/Windows/System32/DUI70.?SetBackgroundColor@Element@DirectUI@@QEAAJKKE@Z @3322
    ?SetBackgroundColor@Element@DirectUI@@QEAAJKKKE@Z=C:/Windows/System32/DUI70.?SetBackgroundColor@Element@DirectUI@@QEAAJKKKE@Z @3323
    ?SetBackgroundColor@Element@DirectUI@@QEAAJPEBGHH@Z=C:/Windows/System32/DUI70.?SetBackgroundColor@Element@DirectUI@@QEAAJPEBGHH@Z @3324
    ?SetBackgroundOwnerID@HWNDHost@DirectUI@@QEAAJPEBG@Z=C:/Windows/System32/DUI70.?SetBackgroundOwnerID@HWNDHost@DirectUI@@QEAAJPEBG@Z @3325
    ?SetBackgroundStdColor@Element@DirectUI@@QEAAJH@Z=C:/Windows/System32/DUI70.?SetBackgroundStdColor@Element@DirectUI@@QEAAJH@Z @3326
    ?SetBaseline@RichText@DirectUI@@QEAAJH@Z=C:/Windows/System32/DUI70.?SetBaseline@RichText@DirectUI@@QEAAJH@Z @3327
    ?SetBorderColor@Element@DirectUI@@QEAAJK@Z=C:/Windows/System32/DUI70.?SetBorderColor@Element@DirectUI@@QEAAJK@Z @3328
    ?SetBorderGradientColor@Element@DirectUI@@QEAAJKKE@Z=C:/Windows/System32/DUI70.?SetBorderGradientColor@Element@DirectUI@@QEAAJKKE@Z @3329
    ?SetBorderStdColor@Element@DirectUI@@QEAAJH@Z=C:/Windows/System32/DUI70.?SetBorderStdColor@Element@DirectUI@@QEAAJH@Z @3330
    ?SetBorderStyle@Element@DirectUI@@QEAAJH@Z=C:/Windows/System32/DUI70.?SetBorderStyle@Element@DirectUI@@QEAAJH@Z @3331
    ?SetBorderThickness@Element@DirectUI@@QEAAJHHHH@Z=C:/Windows/System32/DUI70.?SetBorderThickness@Element@DirectUI@@QEAAJHHHH@Z @3332
    ?SetBuffering@TouchSlider@DirectUI@@QEAAJH@Z=C:/Windows/System32/DUI70.?SetBuffering@TouchSlider@DirectUI@@QEAAJH@Z @3333
    ?SetButtonClassAcceptsEnterKey@DialogElement@DirectUI@@QEAAJ_N@Z=C:/Windows/System32/DUI70.?SetButtonClassAcceptsEnterKey@DialogElement@DirectUI@@QEAAJ_N@Z @3334
    ?SetButtonClassAcceptsEnterKey@XBaby@DirectUI@@UEAAJ_N@Z=C:/Windows/System32/DUI70.?SetButtonClassAcceptsEnterKey@XBaby@DirectUI@@UEAAJ_N@Z @3335
    ?SetButtonClassAcceptsEnterKey@XProvider@DirectUI@@UEAAJ_N@Z=C:/Windows/System32/DUI70.?SetButtonClassAcceptsEnterKey@XProvider@DirectUI@@UEAAJ_N@Z @3336
    ?SetCache@RichText@DirectUI@@QEAAXKPEAUIDUIRichTextCache@@@Z=C:/Windows/System32/DUI70.?SetCache@RichText@DirectUI@@QEAAXKPEAUIDUIRichTextCache@@@Z @3337
    ?SetCacheDirty@Layout@DirectUI@@IEAAXXZ=C:/Windows/System32/DUI70.?SetCacheDirty@Layout@DirectUI@@IEAAXXZ @3338
    ?SetCaptured@Button@DirectUI@@QEAAJ_N@Z=C:/Windows/System32/DUI70.?SetCaptured@Button@DirectUI@@QEAAJ_N@Z @3339
    ?SetCaptured@TouchButton@DirectUI@@QEAAJ_N@Z=C:/Windows/System32/DUI70.?SetCaptured@TouchButton@DirectUI@@QEAAJ_N@Z @3340
    ?SetCaretPosition@TouchEdit2@DirectUI@@QEAAJJ@Z=C:/Windows/System32/DUI70.?SetCaretPosition@TouchEdit2@DirectUI@@QEAAJJ@Z @3341
    ?SetCheckedState@TouchCheckBox@DirectUI@@QEAAJW4CheckedStateFlags@2@@Z=C:/Windows/System32/DUI70.?SetCheckedState@TouchCheckBox@DirectUI@@QEAAJW4CheckedStateFlags@2@@Z @3342
    ?SetClass@Element@DirectUI@@QEAAJPEBG@Z=C:/Windows/System32/DUI70.?SetClass@Element@DirectUI@@QEAAJPEBG@Z @3343
    ?SetClassInfoPtr@AccessibleButton@DirectUI@@SAXPEAUIClassInfo@2@@Z=C:/Windows/System32/DUI70.?SetClassInfoPtr@AccessibleButton@DirectUI@@SAXPEAUIClassInfo@2@@Z @3344
    ?SetClassInfoPtr@AnimationStrip@DirectUI@@SAXPEAUIClassInfo@2@@Z=C:/Windows/System32/DUI70.?SetClassInfoPtr@AnimationStrip@DirectUI@@SAXPEAUIClassInfo@2@@Z @3345
    ?SetClassInfoPtr@AutoButton@DirectUI@@SAXPEAUIClassInfo@2@@Z=C:/Windows/System32/DUI70.?SetClassInfoPtr@AutoButton@DirectUI@@SAXPEAUIClassInfo@2@@Z @3346
    ?SetClassInfoPtr@BaseScrollViewer@DirectUI@@SAXPEAUIClassInfo@2@@Z=C:/Windows/System32/DUI70.?SetClassInfoPtr@BaseScrollViewer@DirectUI@@SAXPEAUIClassInfo@2@@Z @3347
    ?SetClassInfoPtr@Bind@DirectUI@@SAXPEAUIClassInfo@2@@Z=C:/Windows/System32/DUI70.?SetClassInfoPtr@Bind@DirectUI@@SAXPEAUIClassInfo@2@@Z @3348
    ?SetClassInfoPtr@Browser@DirectUI@@SAXPEAUIClassInfo@2@@Z=C:/Windows/System32/DUI70.?SetClassInfoPtr@Browser@DirectUI@@SAXPEAUIClassInfo@2@@Z @3349
    ?SetClassInfoPtr@Button@DirectUI@@SAXPEAUIClassInfo@2@@Z=C:/Windows/System32/DUI70.?SetClassInfoPtr@Button@DirectUI@@SAXPEAUIClassInfo@2@@Z @3350
    ?SetClassInfoPtr@CCAVI@DirectUI@@SAXPEAUIClassInfo@2@@Z=C:/Windows/System32/DUI70.?SetClassInfoPtr@CCAVI@DirectUI@@SAXPEAUIClassInfo@2@@Z @3351
    ?SetClassInfoPtr@CCBase@DirectUI@@SAXPEAUIClassInfo@2@@Z=C:/Windows/System32/DUI70.?SetClassInfoPtr@CCBase@DirectUI@@SAXPEAUIClassInfo@2@@Z @3352
    ?SetClassInfoPtr@CCBaseCheckRadioButton@DirectUI@@SAXPEAUIClassInfo@2@@Z=C:/Windows/System32/DUI70.?SetClassInfoPtr@CCBaseCheckRadioButton@DirectUI@@SAXPEAUIClassInfo@2@@Z @3353
    ?SetClassInfoPtr@CCBaseScrollBar@DirectUI@@SAXPEAUIClassInfo@2@@Z=C:/Windows/System32/DUI70.?SetClassInfoPtr@CCBaseScrollBar@DirectUI@@SAXPEAUIClassInfo@2@@Z @3354
    ?SetClassInfoPtr@CCCheckBox@DirectUI@@SAXPEAUIClassInfo@2@@Z=C:/Windows/System32/DUI70.?SetClassInfoPtr@CCCheckBox@DirectUI@@SAXPEAUIClassInfo@2@@Z @3355
    ?SetClassInfoPtr@CCCommandLink@DirectUI@@SAXPEAUIClassInfo@2@@Z=C:/Windows/System32/DUI70.?SetClassInfoPtr@CCCommandLink@DirectUI@@SAXPEAUIClassInfo@2@@Z @3356
    ?SetClassInfoPtr@CCHScrollBar@DirectUI@@SAXPEAUIClassInfo@2@@Z=C:/Windows/System32/DUI70.?SetClassInfoPtr@CCHScrollBar@DirectUI@@SAXPEAUIClassInfo@2@@Z @3357
    ?SetClassInfoPtr@CCListBox@DirectUI@@SAXPEAUIClassInfo@2@@Z=C:/Windows/System32/DUI70.?SetClassInfoPtr@CCListBox@DirectUI@@SAXPEAUIClassInfo@2@@Z @3358
    ?SetClassInfoPtr@CCListView@DirectUI@@SAXPEAUIClassInfo@2@@Z=C:/Windows/System32/DUI70.?SetClassInfoPtr@CCListView@DirectUI@@SAXPEAUIClassInfo@2@@Z @3359
    ?SetClassInfoPtr@CCProgressBar@DirectUI@@SAXPEAUIClassInfo@2@@Z=C:/Windows/System32/DUI70.?SetClassInfoPtr@CCProgressBar@DirectUI@@SAXPEAUIClassInfo@2@@Z @3360
    ?SetClassInfoPtr@CCPushButton@DirectUI@@SAXPEAUIClassInfo@2@@Z=C:/Windows/System32/DUI70.?SetClassInfoPtr@CCPushButton@DirectUI@@SAXPEAUIClassInfo@2@@Z @3361
    ?SetClassInfoPtr@CCRadioButton@DirectUI@@SAXPEAUIClassInfo@2@@Z=C:/Windows/System32/DUI70.?SetClassInfoPtr@CCRadioButton@DirectUI@@SAXPEAUIClassInfo@2@@Z @3362
    ?SetClassInfoPtr@CCSysLink@DirectUI@@SAXPEAUIClassInfo@2@@Z=C:/Windows/System32/DUI70.?SetClassInfoPtr@CCSysLink@DirectUI@@SAXPEAUIClassInfo@2@@Z @3363
    ?SetClassInfoPtr@CCTrackBar@DirectUI@@SAXPEAUIClassInfo@2@@Z=C:/Windows/System32/DUI70.?SetClassInfoPtr@CCTrackBar@DirectUI@@SAXPEAUIClassInfo@2@@Z @3364
    ?SetClassInfoPtr@CCTreeView@DirectUI@@SAXPEAUIClassInfo@2@@Z=C:/Windows/System32/DUI70.?SetClassInfoPtr@CCTreeView@DirectUI@@SAXPEAUIClassInfo@2@@Z @3365
    ?SetClassInfoPtr@CCVScrollBar@DirectUI@@SAXPEAUIClassInfo@2@@Z=C:/Windows/System32/DUI70.?SetClassInfoPtr@CCVScrollBar@DirectUI@@SAXPEAUIClassInfo@2@@Z @3366
    ?SetClassInfoPtr@CheckBoxGlyph@DirectUI@@SAXPEAUIClassInfo@2@@Z=C:/Windows/System32/DUI70.?SetClassInfoPtr@CheckBoxGlyph@DirectUI@@SAXPEAUIClassInfo@2@@Z @3367
    ?SetClassInfoPtr@Clipper@DirectUI@@SAXPEAUIClassInfo@2@@Z=C:/Windows/System32/DUI70.?SetClassInfoPtr@Clipper@DirectUI@@SAXPEAUIClassInfo@2@@Z @3368
    ?SetClassInfoPtr@Combobox@DirectUI@@SAXPEAUIClassInfo@2@@Z=C:/Windows/System32/DUI70.?SetClassInfoPtr@Combobox@DirectUI@@SAXPEAUIClassInfo@2@@Z @3369
    ?SetClassInfoPtr@DialogElement@DirectUI@@SAXPEAUIClassInfo@2@@Z=C:/Windows/System32/DUI70.?SetClassInfoPtr@DialogElement@DirectUI@@SAXPEAUIClassInfo@2@@Z @3370
    ?SetClassInfoPtr@Edit@DirectUI@@SAXPEAUIClassInfo@2@@Z=C:/Windows/System32/DUI70.?SetClassInfoPtr@Edit@DirectUI@@SAXPEAUIClassInfo@2@@Z @3371
    ?SetClassInfoPtr@Element@DirectUI@@SAXPEAUIClassInfo@2@@Z=C:/Windows/System32/DUI70.?SetClassInfoPtr@Element@DirectUI@@SAXPEAUIClassInfo@2@@Z @3372
    ?SetClassInfoPtr@ElementWithHWND@DirectUI@@SAXPEAUIClassInfo@2@@Z=C:/Windows/System32/DUI70.?SetClassInfoPtr@ElementWithHWND@DirectUI@@SAXPEAUIClassInfo@2@@Z @3373
    ?SetClassInfoPtr@Expandable@DirectUI@@SAXPEAUIClassInfo@2@@Z=C:/Windows/System32/DUI70.?SetClassInfoPtr@Expandable@DirectUI@@SAXPEAUIClassInfo@2@@Z @3374
    ?SetClassInfoPtr@Expando@DirectUI@@SAXPEAUIClassInfo@2@@Z=C:/Windows/System32/DUI70.?SetClassInfoPtr@Expando@DirectUI@@SAXPEAUIClassInfo@2@@Z @3375
    ?SetClassInfoPtr@ExpandoButtonGlyph@DirectUI@@SAXPEAUIClassInfo@2@@Z=C:/Windows/System32/DUI70.?SetClassInfoPtr@ExpandoButtonGlyph@DirectUI@@SAXPEAUIClassInfo@2@@Z @3376
    ?SetClassInfoPtr@HWNDElement@DirectUI@@SAXPEAUIClassInfo@2@@Z=C:/Windows/System32/DUI70.?SetClassInfoPtr@HWNDElement@DirectUI@@SAXPEAUIClassInfo@2@@Z @3377
    ?SetClassInfoPtr@HWNDHost@DirectUI@@SAXPEAUIClassInfo@2@@Z=C:/Windows/System32/DUI70.?SetClassInfoPtr@HWNDHost@DirectUI@@SAXPEAUIClassInfo@2@@Z @3378
    ?SetClassInfoPtr@Macro@DirectUI@@SAXPEAUIClassInfo@2@@Z=C:/Windows/System32/DUI70.?SetClassInfoPtr@Macro@DirectUI@@SAXPEAUIClassInfo@2@@Z @3379
    ?SetClassInfoPtr@Movie@DirectUI@@SAXPEAUIClassInfo@2@@Z=C:/Windows/System32/DUI70.?SetClassInfoPtr@Movie@DirectUI@@SAXPEAUIClassInfo@2@@Z @3380
    ?SetClassInfoPtr@Navigator@DirectUI@@SAXPEAUIClassInfo@2@@Z=C:/Windows/System32/DUI70.?SetClassInfoPtr@Navigator@DirectUI@@SAXPEAUIClassInfo@2@@Z @3381
    ?SetClassInfoPtr@PText@DirectUI@@SAXPEAUIClassInfo@2@@Z=C:/Windows/System32/DUI70.?SetClassInfoPtr@PText@DirectUI@@SAXPEAUIClassInfo@2@@Z @3382
    ?SetClassInfoPtr@Page@DirectUI@@SAXPEAUIClassInfo@2@@Z=C:/Windows/System32/DUI70.?SetClassInfoPtr@Page@DirectUI@@SAXPEAUIClassInfo@2@@Z @3383
    ?SetClassInfoPtr@Pages@DirectUI@@SAXPEAUIClassInfo@2@@Z=C:/Windows/System32/DUI70.?SetClassInfoPtr@Pages@DirectUI@@SAXPEAUIClassInfo@2@@Z @3384
    ?SetClassInfoPtr@Progress@DirectUI@@SAXPEAUIClassInfo@2@@Z=C:/Windows/System32/DUI70.?SetClassInfoPtr@Progress@DirectUI@@SAXPEAUIClassInfo@2@@Z @3385
    ?SetClassInfoPtr@PushButton@DirectUI@@SAXPEAUIClassInfo@2@@Z=C:/Windows/System32/DUI70.?SetClassInfoPtr@PushButton@DirectUI@@SAXPEAUIClassInfo@2@@Z @3386
    ?SetClassInfoPtr@RadioButtonGlyph@DirectUI@@SAXPEAUIClassInfo@2@@Z=C:/Windows/System32/DUI70.?SetClassInfoPtr@RadioButtonGlyph@DirectUI@@SAXPEAUIClassInfo@2@@Z @3387
    ?SetClassInfoPtr@RefPointElement@DirectUI@@SAXPEAUIClassInfo@2@@Z=C:/Windows/System32/DUI70.?SetClassInfoPtr@RefPointElement@DirectUI@@SAXPEAUIClassInfo@2@@Z @3388
    ?SetClassInfoPtr@RepeatButton@DirectUI@@SAXPEAUIClassInfo@2@@Z=C:/Windows/System32/DUI70.?SetClassInfoPtr@RepeatButton@DirectUI@@SAXPEAUIClassInfo@2@@Z @3389
    ?SetClassInfoPtr@Repeater@DirectUI@@SAXPEAUIClassInfo@2@@Z=C:/Windows/System32/DUI70.?SetClassInfoPtr@Repeater@DirectUI@@SAXPEAUIClassInfo@2@@Z @3390
    ?SetClassInfoPtr@ScrollBar@DirectUI@@SAXPEAUIClassInfo@2@@Z=C:/Windows/System32/DUI70.?SetClassInfoPtr@ScrollBar@DirectUI@@SAXPEAUIClassInfo@2@@Z @3391
    ?SetClassInfoPtr@ScrollViewer@DirectUI@@SAXPEAUIClassInfo@2@@Z=C:/Windows/System32/DUI70.?SetClassInfoPtr@ScrollViewer@DirectUI@@SAXPEAUIClassInfo@2@@Z @3392
    ?SetClassInfoPtr@Selector@DirectUI@@SAXPEAUIClassInfo@2@@Z=C:/Windows/System32/DUI70.?SetClassInfoPtr@Selector@DirectUI@@SAXPEAUIClassInfo@2@@Z @3393
    ?SetClassInfoPtr@SelectorNoDefault@DirectUI@@SAXPEAUIClassInfo@2@@Z=C:/Windows/System32/DUI70.?SetClassInfoPtr@SelectorNoDefault@DirectUI@@SAXPEAUIClassInfo@2@@Z @3394
    ?SetClassInfoPtr@StyledScrollViewer@DirectUI@@SAXPEAUIClassInfo@2@@Z=C:/Windows/System32/DUI70.?SetClassInfoPtr@StyledScrollViewer@DirectUI@@SAXPEAUIClassInfo@2@@Z @3395
    ?SetClassInfoPtr@TextGraphic@DirectUI@@SAXPEAUIClassInfo@2@@Z=C:/Windows/System32/DUI70.?SetClassInfoPtr@TextGraphic@DirectUI@@SAXPEAUIClassInfo@2@@Z @3396
